 Cheat

 Timestamp is 5b2768ce (Mon Jun 18 01:09:50 2018)

 Preferred load address is 10000000

 Start         Length     Name                   Class
 0001:00000000 00012820H .text$di                CODE
 0001:00012820 00112340H .text$mn                CODE
 0001:00124b60 00000d90H .text$x                 CODE
 0001:001258f0 00000249H .text$yd                CODE
 0002:00000000 00000544H .idata$5                DATA
 0002:00000544 00000004H .00cfg                  DATA
 0002:00000548 00000004H .CRT$XCA                DATA
 0002:0000054c 00000004H .CRT$XCL                DATA
 0002:00000550 00000258H .CRT$XCU                DATA
 0002:000007a8 00000004H .CRT$XCZ                DATA
 0002:000007ac 00000004H .CRT$XIA                DATA
 0002:000007b0 00000004H .CRT$XIC                DATA
 0002:000007b4 00000004H .CRT$XIZ                DATA
 0002:000007b8 00000004H .CRT$XLA                DATA
 0002:000007bc 00000004H .CRT$XLZ                DATA
 0002:000007c0 00000004H .CRT$XPA                DATA
 0002:000007c4 00000004H .CRT$XPZ                DATA
 0002:000007c8 00000004H .CRT$XTA                DATA
 0002:000007cc 00000004H .CRT$XTZ                DATA
 0002:000007d0 00000000H .gfids$y                DATA
 0002:000007d0 0002b408H .rdata                  DATA
 0002:0002bbd8 00000018H .rdata$T                DATA
 0002:0002bbf0 000004e0H .rdata$r                DATA
 0002:0002c0d0 00000188H .rdata$sxdata           DATA
 0002:0002c258 000003a4H .rdata$zzzdbg           DATA
 0002:0002c5fc 00000004H .rtc$IAA                DATA
 0002:0002c600 00000004H .rtc$IZZ                DATA
 0002:0002c604 00000004H .rtc$TAA                DATA
 0002:0002c608 00000004H .rtc$TZZ                DATA
 0002:0002c60c 00000004H .tls                    DATA
 0002:0002c610 00000004H .tls$                   DATA
 0002:0002c614 00000004H .tls$ZZZ                DATA
 0002:0002c618 00001790H .xdata$x                DATA
 0002:0002dda8 00000000H .edata                  DATA
 0002:0002dda8 00000140H .idata$2                DATA
 0002:0002dee8 00000014H .idata$3                DATA
 0002:0002defc 00000544H .idata$4                DATA
 0002:0002e440 00001eccH .idata$6                DATA
 0003:00000000 0000e814H .data                   DATA
 0003:0000e814 0000027cH .data$r                 DATA
 0003:0000ea90 00012d90H .bss                    DATA
 0004:00000000 0000362cH .detourc                DATA
 0005:00000000 00000024H .detourd                DATA
 0006:00000000 00000060H .rsrc$01                DATA
 0006:00000060 00000180H .rsrc$02                DATA

  Address         Publics by Value              Rva+Base       Lib:Object

 0000:00000000       ___guard_longjmp_count     00000000     <absolute>
 0000:00000000       ___dynamic_value_reloc_table 00000000     <absolute>
 0000:00000000       ___hybrid_code_map         00000000     <absolute>
 0000:00000000       ___enclave_config          00000000     <absolute>
 0000:00000000       ___hybrid_code_map_count   00000000     <absolute>
 0000:00000000       ___guard_iat_count         00000000     <absolute>
 0000:00000000       ___guard_fids_table        00000000     <absolute>
 0000:00000000       ___guard_fids_count        00000000     <absolute>
 0000:00000000       ___guard_longjmp_table     00000000     <absolute>
 0000:00000000       ___guard_iat_table         00000000     <absolute>
 0000:00000000       ___hybrid_auxiliary_iat    00000000     <absolute>
 0000:0000002c       __tls_array                0000002c     <absolute>
 0000:00000062       ___safe_se_handler_count   00000062     <absolute>
 0000:00000100       ___guard_flags             00000100     <absolute>
 0000:00000000       ___ImageBase               10000000     <linker-defined>
 0001:00012820       ?InitialiseInterfaces@@YAXXZ 10013820 f   Interfaces.obj
 0001:00012cc0       ??$?0$$CBW4ItemDefinitionIndexx@@UDefItem_t@@$0A@@?$pair@$$CBW4ItemDefinitionIndexx@@UDefItem_t@@@std@@QAE@ABW4ItemDefinitionIndexx@@ABUDefItem_t@@@Z 10013cc0 f i Interfaces.obj
 0001:00012d00       ??$?0$$V@?$_Compressed_pair@V?$allocator@D@std@@V?$_String_val@U?$_Simple_types@D@std@@@2@$00@std@@QAE@U_Zero_then_variadic_args_t@1@@Z 10013d00 f i Interfaces.obj
 0001:00012d20       ??$?0$$V@?$_Compressed_pair@V?$allocator@U?$_Tree_node@U?$pair@$$CBW4ItemDefinitionIndexx@@UDefItem_t@@@std@@PAX@std@@@std@@V?$_Tree_val@U?$_Tree_simple_types@U?$pair@$$CBW4ItemDefinitionIndexx@@UDefItem_t@@@std@@@std@@@2@$00@std@@QAE@U_Zero_then_variadic_args_t@1@@Z 10013d20 f i Interfaces.obj
 0001:00012d40       ??$?0V?$_Tree_iterator@V?$_Tree_val@U?$_Tree_simple_types@U?$pair@$$CBW4ItemDefinitionIndexx@@UDefItem_t@@@std@@@std@@@std@@@std@@_N$0A@@?$pair@V?$_Tree_iterator@V?$_Tree_val@U?$_Tree_simple_types@U?$pair@$$CBW4ItemDefinitionIndexx@@UDefItem_t@@@std@@@std@@@std@@@std@@_N@std@@QAE@$$QAV?$_Tree_iterator@V?$_Tree_val@U?$_Tree_simple_types@U?$pair@$$CBW4ItemDefinitionIndexx@@UDefItem_t@@@std@@@std@@@std@@@1@$$QA_N@Z 10013d40 f i Interfaces.obj
 0001:00012d40       ??$?0AAV?$_Tree_iterator@V?$_Tree_val@U?$_Tree_simple_types@U?$pair@$$CBW4ItemDefinitionIndexx@@UDefItem_t@@@std@@@std@@@std@@@std@@_N$0A@@?$pair@V?$_Tree_iterator@V?$_Tree_val@U?$_Tree_simple_types@U?$pair@$$CBW4ItemDefinitionIndexx@@UDefItem_t@@@std@@@std@@@std@@@std@@_N@std@@QAE@AAV?$_Tree_iterator@V?$_Tree_val@U?$_Tree_simple_types@U?$pair@$$CBW4ItemDefinitionIndexx@@UDefItem_t@@@std@@@std@@@std@@@1@$$QA_N@Z 10013d40 f i Interfaces.obj
 0001:00012d80       ??$?0ABU?$less@W4ItemDefinitionIndexx@@@std@@U_Zero_then_variadic_args_t@1@@?$_Compressed_pair@U?$less@W4ItemDefinitionIndexx@@@std@@V?$_Compressed_pair@V?$allocator@U?$_Tree_node@U?$pair@$$CBW4ItemDefinitionIndexx@@UDefItem_t@@@std@@PAX@std@@@std@@V?$_Tree_val@U?$_Tree_simple_types@U?$pair@$$CBW4ItemDefinitionIndexx@@UDefItem_t@@@std@@@std@@@2@$00@2@$00@std@@QAE@U_One_then_variadic_args_t@1@ABU?$less@W4ItemDefinitionIndexx@@@1@$$QAU_Zero_then_variadic_args_t@1@@Z 10013d80 f i Interfaces.obj
 0001:00012dc0       ??$_Allocate@$07U_Default_allocate_traits@std@@$0A@@std@@YAPAXI@Z 10013dc0 f i Interfaces.obj
 0001:00012e00       ??$_Allocate_manually_vector_aligned@U_Default_allocate_traits@std@@@std@@YAPAXI@Z 10013e00 f i Interfaces.obj
 0001:00012e60       ??$_Buy_if_not_node@AAU?$pair@$$CBW4ItemDefinitionIndexx@@UDefItem_t@@@std@@@?$_Tree@V?$_Tmap_traits@W4ItemDefinitionIndexx@@UDefItem_t@@U?$less@W4ItemDefinitionIndexx@@@std@@V?$allocator@U?$pair@$$CBW4ItemDefinitionIndexx@@UDefItem_t@@@std@@@4@$0A@@std@@@std@@IAEPAU?$_Tree_node@U?$pair@$$CBW4ItemDefinitionIndexx@@UDefItem_t@@@std@@PAX@1@PAU21@AAU?$pair@$$CBW4ItemDefinitionIndexx@@UDefItem_t@@@1@@Z 10013e60 f i Interfaces.obj
 0001:00012e70       ??$_Buynode@ABU?$pair@$$CBW4ItemDefinitionIndexx@@UDefItem_t@@@std@@@?$_Tree_comp_alloc@V?$_Tmap_traits@W4ItemDefinitionIndexx@@UDefItem_t@@U?$less@W4ItemDefinitionIndexx@@@std@@V?$allocator@U?$pair@$$CBW4ItemDefinitionIndexx@@UDefItem_t@@@std@@@4@$0A@@std@@@std@@QAEPAU?$_Tree_node@U?$pair@$$CBW4ItemDefinitionIndexx@@UDefItem_t@@@std@@PAX@1@ABU?$pair@$$CBW4ItemDefinitionIndexx@@UDefItem_t@@@1@@Z 10013e70 f i Interfaces.obj
 0001:00012f30       ??$addressof@V?$basic_string@DU?$char_traits@D@std@@V?$allocator@D@2@@std@@@std@@YAPAV?$basic_string@DU?$char_traits@D@std@@V?$allocator@D@2@@0@AAV10@@Z 10013f30 f i Configuration.obj
 0001:00012f30       ??$move@AAPAV?$ConfigValue@M@@@std@@YA$$QAPAV?$ConfigValue@M@@AAPAV1@@Z 10013f30 f i Configuration.obj
 0001:00012f30       ??$_Unchecked@PAH@std@@YAPAHPAH@Z 10013f30 f i Utilities.obj
 0001:00012f30       ??$forward@PAV?$ConfigValue@H@@@std@@YA$$QAPAV?$ConfigValue@H@@AAPAV1@@Z 10013f30 f i Configuration.obj
 0001:00012f30       ??$move@AAPAV?$ConfigValue@H@@@std@@YA$$QAPAV?$ConfigValue@H@@AAPAV1@@Z 10013f30 f i Configuration.obj
 0001:00012f30       ??$forward@ABU?$pair@$$CBW4ItemDefinitionIndexx@@UDefItem_t@@@std@@@std@@YAABU?$pair@$$CBW4ItemDefinitionIndexx@@UDefItem_t@@@0@ABU10@@Z 10013f30 f i Interfaces.obj
 0001:00012f30       ??$_Unchecked@PAPAV?$ConfigValue@_N@@@std@@YAPAPAV?$ConfigValue@_N@@PAPAV1@@Z 10013f30 f i Configuration.obj
 0001:00012f30       ??$forward@AAV?$_Tree_iterator@V?$_Tree_val@U?$_Tree_simple_types@U?$pair@$$CBW4ItemDefinitionIndexx@@UDefItem_t@@@std@@@std@@@std@@@std@@@std@@YAAAV?$_Tree_iterator@V?$_Tree_val@U?$_Tree_simple_types@U?$pair@$$CBW4ItemDefinitionIndexx@@UDefItem_t@@@std@@@std@@@std@@@0@AAV10@@Z 10013f30 f i Interfaces.obj
 0001:00012f30       ??$move@AAV?$vector@HV?$allocator@H@std@@@std@@@std@@YA$$QAV?$vector@HV?$allocator@H@std@@@0@AAV10@@Z 10013f30 f i Utilities.obj
 0001:00012f30       ??$move@AAV?$basic_string@DU?$char_traits@D@std@@V?$allocator@D@2@@std@@@std@@YA$$QAV?$basic_string@DU?$char_traits@D@std@@V?$allocator@D@2@@0@AAV10@@Z 10013f30 f i ESP.obj
 0001:00012f30       ??$addressof@V?$_String_val@U?$_Simple_types@D@std@@@std@@@std@@YAPAV?$_String_val@U?$_Simple_types@D@std@@@0@AAV10@@Z 10013f30 f i ESP.obj
 0001:00012f30       ??$addressof@U?$pair@$$CBW4ItemDefinitionIndexx@@UDefItem_t@@@std@@@std@@YAPAU?$pair@$$CBW4ItemDefinitionIndexx@@UDefItem_t@@@0@AAU10@@Z 10013f30 f i Interfaces.obj
 0001:00012f30       ??$_Convert_size@I@std@@YAII@Z 10013f30 f i Interfaces.obj
 0001:00012f30       ??$forward@H@std@@YA$$QAHAAH@Z 10013f30 f i Utilities.obj
 0001:00012f30       ??$forward@_N@std@@YA$$QA_NAA_N@Z 10013f30 f i Interfaces.obj
 0001:00012f30       ?select_on_container_copy_construction@?$_Default_allocator_traits@V?$allocator@D@std@@@std@@SA?AV?$allocator@D@2@ABV32@@Z 10013f30 f i ESP.obj
 0001:00012f30       ??$forward@ABV?$allocator@D@std@@@std@@YAABV?$allocator@D@0@ABV10@@Z 10013f30 f i Configuration.obj
 0001:00012f30       ??$move@AAVVector@@@std@@YA$$QAVVector@@AAV1@@Z 10013f30 f i GrenadePrediction.obj
 0001:00012f30       ??$_Refancy@PAD$0A@@std@@YAPADPAD@Z 10013f30 f i DLLMain.obj
 0001:00012f30       ??$forward@V?$allocator@H@std@@@std@@YA$$QAV?$allocator@H@0@AAV10@@Z 10013f30 f i Utilities.obj
 0001:00012f30       ??$_Unfancy@PAV?$ConfigValue@M@@@std@@YAPAPAV?$ConfigValue@M@@PAPAV1@@Z 10013f30 f i Configuration.obj
 0001:00012f30       ??$_Unchecked@PAVVector@@@std@@YAPAVVector@@PAV1@@Z 10013f30 f i GrenadePrediction.obj
 0001:00012f30       ??$forward@ABQAD@std@@YAABQADABQAD@Z 10013f30 f i Interfaces.obj
 0001:00012f30       ??$_Ptr_move_cat@HH@std@@YA?AU_Really_trivial_ptr_iterator_tag@0@ABQAH0@Z 10013f30 f i Utilities.obj
 0001:00012f30       ??$addressof@$$CBV?$basic_string@DU?$char_traits@D@std@@V?$allocator@D@2@@std@@@std@@YAPBV?$basic_string@DU?$char_traits@D@std@@V?$allocator@D@2@@0@ABV10@@Z 10013f30 f i Configuration.obj
 0001:00012f30       ??$addressof@V?$_Tree_val@U?$_Tree_simple_types@U?$pair@$$CBW4ItemDefinitionIndexx@@UDefItem_t@@@std@@@std@@@std@@@std@@YAPAV?$_Tree_val@U?$_Tree_simple_types@U?$pair@$$CBW4ItemDefinitionIndexx@@UDefItem_t@@@std@@@std@@@0@AAV10@@Z 10013f30 f i Interfaces.obj
 0001:00012f30       ??$forward@ABU?$less@W4ItemDefinitionIndexx@@@std@@@std@@YAABU?$less@W4ItemDefinitionIndexx@@@0@ABU10@@Z 10013f30 f i Interfaces.obj
 0001:00012f30       ??$_Unfancy@PAV?$ConfigValue@_N@@@std@@YAPAPAV?$ConfigValue@_N@@PAPAV1@@Z 10013f30 f i Configuration.obj
 0001:00012f30       ??$_Kfn@$$CBW4ItemDefinitionIndexx@@UDefItem_t@@@?$_Tmap_traits@W4ItemDefinitionIndexx@@UDefItem_t@@U?$less@W4ItemDefinitionIndexx@@@std@@V?$allocator@U?$pair@$$CBW4ItemDefinitionIndexx@@UDefItem_t@@@std@@@4@$0A@@std@@SAABW4ItemDefinitionIndexx@@ABU?$pair@$$CBW4ItemDefinitionIndexx@@UDefItem_t@@@1@@Z 10013f30 f i Interfaces.obj
 0001:00012f30       ??$_Get_size_of_n@$00@std@@YAII@Z 10013f30 f i Interfaces.obj
 0001:00012f30       ??$forward@V?$_Tree_iterator@V?$_Tree_val@U?$_Tree_simple_types@U?$pair@$$CBW4ItemDefinitionIndexx@@UDefItem_t@@@std@@@std@@@std@@@std@@@std@@YA$$QAV?$_Tree_iterator@V?$_Tree_val@U?$_Tree_simple_types@U?$pair@$$CBW4ItemDefinitionIndexx@@UDefItem_t@@@std@@@std@@@std@@@0@AAV10@@Z 10013f30 f i Interfaces.obj
 0001:00012f30       ??$_Ptr_move_cat@PAV?$ConfigValue@H@@PAV1@@std@@YA?AU_Really_trivial_ptr_iterator_tag@0@ABQAPAV?$ConfigValue@H@@0@Z 10013f30 f i Configuration.obj
 0001:00012f30       ??$_Unchecked@PAPAV?$ConfigValue@H@@@std@@YAPAPAV?$ConfigValue@H@@PAPAV1@@Z 10013f30 f i Configuration.obj
 0001:00012f30       ??$_Unfancy@PAV?$ConfigValue@H@@@std@@YAPAPAV?$ConfigValue@H@@PAPAV1@@Z 10013f30 f i Configuration.obj
 0001:00012f30       ??$addressof@V?$_Vector_val@U?$_Simple_types@PAURecvTable@@@std@@@std@@@std@@YAPAV?$_Vector_val@U?$_Simple_types@PAURecvTable@@@std@@@0@AAV10@@Z 10013f30 f i NetVarManager.obj
 0001:00012f30       ??$_Unchecked@PAPAV?$ConfigValue@M@@@std@@YAPAPAV?$ConfigValue@M@@PAPAV1@@Z 10013f30 f i Configuration.obj
 0001:00012f30       ??$_Ptr_move_cat@PAURecvTable@@PAU1@@std@@YA?AU_Really_trivial_ptr_iterator_tag@0@ABQAPAURecvTable@@0@Z 10013f30 f i NetVarManager.obj
 0001:00012f30       ??$move@AAD@std@@YA$$QADAAD@Z 10013f30 f i Interfaces.obj
 0001:00012f30       ??$_Unfancy@VVector@@@std@@YAPAVVector@@PAV1@@Z 10013f30 f i GrenadePrediction.obj
 0001:00012f30       ??$_Unfancy@PAURecvTable@@@std@@YAPAPAURecvTable@@PAPAU1@@Z 10013f30 f i NetVarManager.obj
 0001:00012f30       ??$_Unchecked@PAD@std@@YAPADPAD@Z 10013f30 f i Configuration.obj
 0001:00012f30       ??$_Const_cast@$$CBD@std@@YAPADPBD@Z 10013f30 f i DLLMain.obj
 0001:00012f30       ??$_Unfancy_maybe_null@H@std@@YAPAHPAH@Z 10013f30 f i Utilities.obj
 0001:00012f30       ??$forward@V?$allocator@D@std@@@std@@YA$$QAV?$allocator@D@0@AAV10@@Z 10013f30 f i ESP.obj
 0001:00012f30       ??$addressof@PAD@std@@YAPAPADAAPAD@Z 10013f30 f i Interfaces.obj
 0001:00012f30       ??$forward@U_Zero_then_variadic_args_t@std@@@std@@YA$$QAU_Zero_then_variadic_args_t@0@AAU10@@Z 10013f30 f i Interfaces.obj
 0001:00012f30       ??$forward@AAU?$pair@$$CBW4ItemDefinitionIndexx@@UDefItem_t@@@std@@@std@@YAAAU?$pair@$$CBW4ItemDefinitionIndexx@@UDefItem_t@@@0@AAU10@@Z 10013f30 f i Interfaces.obj
 0001:00012f30       ??$forward@AAPAU?$_Tree_node@U?$pair@$$CBW4ItemDefinitionIndexx@@UDefItem_t@@@std@@PAX@std@@@std@@YAAAPAU?$_Tree_node@U?$pair@$$CBW4ItemDefinitionIndexx@@UDefItem_t@@@std@@PAX@0@AAPAU10@@Z 10013f30 f i Interfaces.obj
 0001:00012f30       ??$forward@VVector@@@std@@YA$$QAVVector@@AAV1@@Z 10013f30 f i GrenadePrediction.obj
 0001:00012f30       ??$_Ptr_move_cat@PAV?$ConfigValue@M@@PAV1@@std@@YA?AU_Really_trivial_ptr_iterator_tag@0@ABQAPAV?$ConfigValue@M@@0@Z 10013f30 f i Configuration.obj
 0001:00012f30       ??$_Unchecked@PAPAURecvTable@@@std@@YAPAPAURecvTable@@PAPAU1@@Z 10013f30 f i NetVarManager.obj
 0001:00012f30       ??$move@AAPAV?$ConfigValue@_N@@@std@@YA$$QAPAV?$ConfigValue@_N@@AAPAV1@@Z 10013f30 f i Configuration.obj
 0001:00012f30       ??$addressof@PAU?$_Tree_node@U?$pair@$$CBW4ItemDefinitionIndexx@@UDefItem_t@@@std@@PAX@std@@@std@@YAPAPAU?$_Tree_node@U?$pair@$$CBW4ItemDefinitionIndexx@@UDefItem_t@@@std@@PAX@0@AAPAU10@@Z 10013f30 f i Interfaces.obj
 0001:00012f30       ??$forward@ABVVector@@@std@@YAABVVector@@ABV1@@Z 10013f30 f i GrenadePrediction.obj
 0001:00012f30       ??$forward@PAV?$ConfigValue@_N@@@std@@YA$$QAPAV?$ConfigValue@_N@@AAPAV1@@Z 10013f30 f i Configuration.obj
 0001:00012f30       ??$move@AAV?$allocator@D@std@@@std@@YA$$QAV?$allocator@D@0@AAV10@@Z 10013f30 f i ESP.obj
 0001:00012f30       ??$move@AAH@std@@YA$$QAHAAH@Z 10013f30 f i Utilities.obj
 0001:00012f30       ??$_Unfancy@H@std@@YAPAHPAH@Z 10013f30 f i Utilities.obj
 0001:00012f30       ??$addressof@V?$_Vector_val@U?$_Simple_types@VVector@@@std@@@std@@@std@@YAPAV?$_Vector_val@U?$_Simple_types@VVector@@@std@@@0@AAV10@@Z 10013f30 f i GrenadePrediction.obj
 0001:00012f30       ??$move@AAV?$allocator@H@std@@@std@@YA$$QAV?$allocator@H@0@AAV10@@Z 10013f30 f i Utilities.obj
 0001:00012f30       ??$_Unfancy@V?$basic_string@DU?$char_traits@D@std@@V?$allocator@D@2@@std@@@std@@YAPAV?$basic_string@DU?$char_traits@D@std@@V?$allocator@D@2@@0@PAV10@@Z 10013f30 f i ESP.obj
 0001:00012f30       ??$_Ptr_move_cat@PAV?$ConfigValue@_N@@PAV1@@std@@YA?AU_Really_trivial_ptr_iterator_tag@0@ABQAPAV?$ConfigValue@_N@@0@Z 10013f30 f i Configuration.obj
 0001:00012f30       ??$forward@ABQAURecvTable@@@std@@YAABQAURecvTable@@ABQAU1@@Z 10013f30 f i NetVarManager.obj
 0001:00012f30       ??$forward@PAV?$ConfigValue@M@@@std@@YA$$QAPAV?$ConfigValue@M@@AAPAV1@@Z 10013f30 f i Configuration.obj
 0001:00012f30       ??$_Unfancy@D@std@@YAPADPAD@Z 10013f30 f i Interfaces.obj
 0001:00012f40       ??$_Deallocate@$07$0A@@std@@YAXPAXI@Z 10013f40 f i Interfaces.obj
 0001:00012f70       ??$_Freenode0@V?$allocator@U?$_Tree_node@U?$pair@$$CBW4ItemDefinitionIndexx@@UDefItem_t@@@std@@PAX@std@@@std@@@?$_Tree_node@U?$pair@$$CBW4ItemDefinitionIndexx@@UDefItem_t@@@std@@PAX@std@@SAXAAV?$allocator@U?$_Tree_node@U?$pair@$$CBW4ItemDefinitionIndexx@@UDefItem_t@@@std@@PAX@std@@@1@PAU01@@Z 10013f70 f i Interfaces.obj
 0001:00013000       ??$_Get_size_of_n@$0CI@@std@@YAII@Z 10014000 f i Interfaces.obj
 0001:00013030       ??$_Insert_at@AAU?$pair@$$CBW4ItemDefinitionIndexx@@UDefItem_t@@@std@@PAU?$_Tree_node@U?$pair@$$CBW4ItemDefinitionIndexx@@UDefItem_t@@@std@@PAX@2@@?$_Tree@V?$_Tmap_traits@W4ItemDefinitionIndexx@@UDefItem_t@@U?$less@W4ItemDefinitionIndexx@@@std@@V?$allocator@U?$pair@$$CBW4ItemDefinitionIndexx@@UDefItem_t@@@std@@@4@$0A@@std@@@std@@IAE?AV?$_Tree_iterator@V?$_Tree_val@U?$_Tree_simple_types@U?$pair@$$CBW4ItemDefinitionIndexx@@UDefItem_t@@@std@@@std@@@std@@@1@_NPAU?$_Tree_node@U?$pair@$$CBW4ItemDefinitionIndexx@@UDefItem_t@@@std@@PAX@1@AAU?$pair@$$CBW4ItemDefinitionIndexx@@UDefItem_t@@@1@1@Z 10014030 f i Interfaces.obj
 0001:000132d0       ??$_Insert_hint@AAU?$pair@$$CBW4ItemDefinitionIndexx@@UDefItem_t@@@std@@PAU?$_Tree_node@U?$pair@$$CBW4ItemDefinitionIndexx@@UDefItem_t@@@std@@PAX@2@@?$_Tree@V?$_Tmap_traits@W4ItemDefinitionIndexx@@UDefItem_t@@U?$less@W4ItemDefinitionIndexx@@@std@@V?$allocator@U?$pair@$$CBW4ItemDefinitionIndexx@@UDefItem_t@@@std@@@4@$0A@@std@@@std@@IAE?AV?$_Tree_iterator@V?$_Tree_val@U?$_Tree_simple_types@U?$pair@$$CBW4ItemDefinitionIndexx@@UDefItem_t@@@std@@@std@@@std@@@1@V?$_Tree_const_iterator@V?$_Tree_val@U?$_Tree_simple_types@U?$pair@$$CBW4ItemDefinitionIndexx@@UDefItem_t@@@std@@@std@@@std@@@1@AAU?$pair@$$CBW4ItemDefinitionIndexx@@UDefItem_t@@@1@PAU?$_Tree_node@U?$pair@$$CBW4ItemDefinitionIndexx@@UDefItem_t@@@std@@PAX@1@@Z 100142d0 f i Interfaces.obj
 0001:00013ae0       ??$_Insert_nohint@AAU?$pair@$$CBW4ItemDefinitionIndexx@@UDefItem_t@@@std@@PAU?$_Tree_node@U?$pair@$$CBW4ItemDefinitionIndexx@@UDefItem_t@@@std@@PAX@2@@?$_Tree@V?$_Tmap_traits@W4ItemDefinitionIndexx@@UDefItem_t@@U?$less@W4ItemDefinitionIndexx@@@std@@V?$allocator@U?$pair@$$CBW4ItemDefinitionIndexx@@UDefItem_t@@@std@@@4@$0A@@std@@@std@@IAE?AU?$pair@V?$_Tree_iterator@V?$_Tree_val@U?$_Tree_simple_types@U?$pair@$$CBW4ItemDefinitionIndexx@@UDefItem_t@@@std@@@std@@@std@@@std@@_N@1@_NAAU?$pair@$$CBW4ItemDefinitionIndexx@@UDefItem_t@@@1@PAU?$_Tree_node@U?$pair@$$CBW4ItemDefinitionIndexx@@UDefItem_t@@@std@@PAX@1@@Z 10014ae0 f i Interfaces.obj
 0001:00013de0       ??$_Max_value@I@std@@YAABIABI0@Z 10014de0 f i Interfaces.obj
 0001:00013e10       ??$_Min_value@I@std@@YAABIABI0@Z 10014e10 f i Interfaces.obj
 0001:00013f20       ??$construct@PAV?$ConfigValue@_N@@PAV1@@?$_Default_allocator_traits@V?$allocator@PAV?$ConfigValue@_N@@@std@@@std@@SAXAAV?$allocator@PAV?$ConfigValue@_N@@@1@QAPAV?$ConfigValue@_N@@$$QAPAV3@@Z 10014f20 f i Configuration.obj
 0001:00013f20       ??$construct@PAV?$ConfigValue@M@@PAV1@@?$_Default_allocator_traits@V?$allocator@PAV?$ConfigValue@M@@@std@@@std@@SAXAAV?$allocator@PAV?$ConfigValue@M@@@1@QAPAV?$ConfigValue@M@@$$QAPAV3@@Z 10014f20 f i Configuration.obj
 0001:00013f20       ??$construct@PAU?$_Tree_node@U?$pair@$$CBW4ItemDefinitionIndexx@@UDefItem_t@@@std@@PAX@std@@AAPAU12@@?$_Default_allocator_traits@V?$allocator@U?$_Tree_node@U?$pair@$$CBW4ItemDefinitionIndexx@@UDefItem_t@@@std@@PAX@std@@@std@@@std@@SAXAAV?$allocator@U?$_Tree_node@U?$pair@$$CBW4ItemDefinitionIndexx@@UDefItem_t@@@std@@PAX@std@@@1@QAPAU?$_Tree_node@U?$pair@$$CBW4ItemDefinitionIndexx@@UDefItem_t@@@std@@PAX@1@AAPAU31@@Z 10014f20 f i Interfaces.obj
 0001:00013f20       ??$construct@HH@?$_Default_allocator_traits@V?$allocator@H@std@@@std@@SAXAAV?$allocator@H@1@QAH$$QAH@Z 10014f20 f i Utilities.obj
 0001:00013f20       ??$construct@PADABQAD@?$_Default_allocator_traits@V?$allocator@D@std@@@std@@SAXAAV?$allocator@D@1@QAPADABQAD@Z 10014f20 f i Interfaces.obj
 0001:00013f20       ??$construct@PAURecvTable@@ABQAU1@@?$_Default_allocator_traits@V?$allocator@PAURecvTable@@@std@@@std@@SAXAAV?$allocator@PAURecvTable@@@1@QAPAURecvTable@@ABQAU3@@Z 10014f20 f i NetVarManager.obj
 0001:00013f20       ??$construct@PAV?$ConfigValue@H@@PAV1@@?$_Default_allocator_traits@V?$allocator@PAV?$ConfigValue@H@@@std@@@std@@SAXAAV?$allocator@PAV?$ConfigValue@H@@@1@QAPAV?$ConfigValue@H@@$$QAPAV3@@Z 10014f20 f i Configuration.obj
 0001:00013f50       ??$construct@U?$pair@$$CBW4ItemDefinitionIndexx@@UDefItem_t@@@std@@ABU12@@?$_Default_allocator_traits@V?$allocator@U?$_Tree_node@U?$pair@$$CBW4ItemDefinitionIndexx@@UDefItem_t@@@std@@PAX@std@@@std@@@std@@SAXAAV?$allocator@U?$_Tree_node@U?$pair@$$CBW4ItemDefinitionIndexx@@UDefItem_t@@@std@@PAX@std@@@1@QAU?$pair@$$CBW4ItemDefinitionIndexx@@UDefItem_t@@@1@ABU31@@Z 10014f50 f i Interfaces.obj
 0001:00013fa0       ??3@YAXPAXUImPlacementNewDummy@@0@Z 10014fa0 f i imgui.obj
 0001:00013fa0       ??$__vcrt_va_start_verify_argument_type@QBD@@YAXXZ 10014fa0 f i Chams.obj
 0001:00013fa0       ??$destroy@VVector@@@?$_Default_allocator_traits@V?$allocator@VVector@@@std@@@std@@SAXAAV?$allocator@VVector@@@1@QAVVector@@@Z 10014fa0 f i GrenadePrediction.obj
 0001:00013fa0       ??$_Destroy_range1@V?$allocator@PAV?$ConfigValue@_N@@@std@@@std@@YAXPAPAV?$ConfigValue@_N@@0AAV?$allocator@PAV?$ConfigValue@_N@@@0@U?$integral_constant@_N$00@0@@Z 10014fa0 f i Configuration.obj
 0001:00013fa0       ??$_Destroy_range1@V?$allocator@PAURecvTable@@@std@@@std@@YAXPAPAURecvTable@@0AAV?$allocator@PAURecvTable@@@0@U?$integral_constant@_N$00@0@@Z 10014fa0 f i NetVarManager.obj
 0001:00013fa0       ??$destroy@PAV?$ConfigValue@M@@@?$_Default_allocator_traits@V?$allocator@PAV?$ConfigValue@M@@@std@@@std@@SAXAAV?$allocator@PAV?$ConfigValue@M@@@1@QAPAV?$ConfigValue@M@@@Z 10014fa0 f i Configuration.obj
 0001:00013fa0       ??$destroy@PAV?$ConfigValue@_N@@@?$_Default_allocator_traits@V?$allocator@PAV?$ConfigValue@_N@@@std@@@std@@SAXAAV?$allocator@PAV?$ConfigValue@_N@@@1@QAPAV?$ConfigValue@_N@@@Z 10014fa0 f i Configuration.obj
 0001:00013fa0       ??$_Destroy_range1@V?$allocator@PAVIGameEventListener2@@@std@@@std@@YAXPAPAVIGameEventListener2@@0AAV?$allocator@PAVIGameEventListener2@@@0@U?$integral_constant@_N$00@0@@Z 10014fa0 f i Hooks.obj
 0001:00013fa0       ??$destroy@PAURecvTable@@@?$_Default_allocator_traits@V?$allocator@PAURecvTable@@@std@@@std@@SAXAAV?$allocator@PAURecvTable@@@1@QAPAURecvTable@@@Z 10014fa0 f i NetVarManager.obj
 0001:00013fa0       ??$destroy@PAV?$ConfigValue@H@@@?$_Default_allocator_traits@V?$allocator@PAV?$ConfigValue@H@@@std@@@std@@SAXAAV?$allocator@PAV?$ConfigValue@H@@@1@QAPAV?$ConfigValue@H@@@Z 10014fa0 f i Configuration.obj
 0001:00013fa0       ??$_Destroy_range1@V?$allocator@VVector@@@std@@@std@@YAXPAVVector@@0AAV?$allocator@VVector@@@0@U?$integral_constant@_N$00@0@@Z 10014fa0 f i Hooks.obj
 0001:00013fa0       ??$destroy@PAU?$_Tree_node@U?$pair@$$CBW4ItemDefinitionIndexx@@UDefItem_t@@@std@@PAX@std@@@?$_Default_allocator_traits@V?$allocator@U?$_Tree_node@U?$pair@$$CBW4ItemDefinitionIndexx@@UDefItem_t@@@std@@PAX@std@@@std@@@std@@SAXAAV?$allocator@U?$_Tree_node@U?$pair@$$CBW4ItemDefinitionIndexx@@UDefItem_t@@@std@@PAX@std@@@1@QAPAU?$_Tree_node@U?$pair@$$CBW4ItemDefinitionIndexx@@UDefItem_t@@@std@@PAX@1@@Z 10014fa0 f i Interfaces.obj
 0001:00013fa0       ??$_Destroy_range1@V?$allocator@PAV?$ConfigValue@M@@@std@@@std@@YAXPAPAV?$ConfigValue@M@@0AAV?$allocator@PAV?$ConfigValue@M@@@0@U?$integral_constant@_N$00@0@@Z 10014fa0 f i Configuration.obj
 0001:00013fa0       ??$_Destroy_range1@V?$allocator@H@std@@@std@@YAXPAH0AAV?$allocator@H@0@U?$integral_constant@_N$00@0@@Z 10014fa0 f i Utilities.obj
 0001:00013fa0       ??$destroy@U?$pair@$$CBW4ItemDefinitionIndexx@@UDefItem_t@@@std@@@?$_Default_allocator_traits@V?$allocator@U?$_Tree_node@U?$pair@$$CBW4ItemDefinitionIndexx@@UDefItem_t@@@std@@PAX@std@@@std@@@std@@SAXAAV?$allocator@U?$_Tree_node@U?$pair@$$CBW4ItemDefinitionIndexx@@UDefItem_t@@@std@@PAX@std@@@1@QAU?$pair@$$CBW4ItemDefinitionIndexx@@UDefItem_t@@@1@@Z 10014fa0 f i Interfaces.obj
 0001:00013fa0       ??$destroy@PAD@?$_Default_allocator_traits@V?$allocator@D@std@@@std@@SAXAAV?$allocator@D@1@QAPAD@Z 10014fa0 f i ESP.obj
 0001:00013fa0       ??$__vcrt_va_start_verify_argument_type@PB_W@@YAXXZ 10014fa0 f i creatwth.obj
 0001:00013fa0       ??$_Destroy_range1@V?$allocator@PAV?$ConfigValue@H@@@std@@@std@@YAXPAPAV?$ConfigValue@H@@0AAV?$allocator@PAV?$ConfigValue@H@@@0@U?$integral_constant@_N$00@0@@Z 10014fa0 f i Configuration.obj
 0001:00013fa0       ??$__vcrt_va_start_verify_argument_type@PBD@@YAXXZ 10014fa0 f i MiscFunctions.obj
 0001:00013fa0       ??$_Pocca@V?$allocator@D@std@@@std@@YAXAAV?$allocator@D@0@ABV10@U?$integral_constant@_N$0A@@0@@Z 10014fa0 f i Configuration.obj
 0001:00013fa0       ??$destroy@H@?$_Default_allocator_traits@V?$allocator@H@std@@@std@@SAXAAV?$allocator@H@1@QAH@Z 10014fa0 f i Utilities.obj
 0001:00013fb0       ??$emplace_hint@ABU?$pair@$$CBW4ItemDefinitionIndexx@@UDefItem_t@@@std@@@?$_Tree@V?$_Tmap_traits@W4ItemDefinitionIndexx@@UDefItem_t@@U?$less@W4ItemDefinitionIndexx@@@std@@V?$allocator@U?$pair@$$CBW4ItemDefinitionIndexx@@UDefItem_t@@@std@@@4@$0A@@std@@@std@@QAE?AV?$_Tree_iterator@V?$_Tree_val@U?$_Tree_simple_types@U?$pair@$$CBW4ItemDefinitionIndexx@@UDefItem_t@@@std@@@std@@@std@@@1@V?$_Tree_const_iterator@V?$_Tree_val@U?$_Tree_simple_types@U?$pair@$$CBW4ItemDefinitionIndexx@@UDefItem_t@@@std@@@std@@@std@@@1@ABU?$pair@$$CBW4ItemDefinitionIndexx@@UDefItem_t@@@1@@Z 10014fb0 f i Interfaces.obj
 0001:00014000       ??$insert@PBU?$pair@$$CBW4ItemDefinitionIndexx@@UDefItem_t@@@std@@@?$_Tree@V?$_Tmap_traits@W4ItemDefinitionIndexx@@UDefItem_t@@U?$less@W4ItemDefinitionIndexx@@@std@@V?$allocator@U?$pair@$$CBW4ItemDefinitionIndexx@@UDefItem_t@@@std@@@4@$0A@@std@@@std@@QAEXPBU?$pair@$$CBW4ItemDefinitionIndexx@@UDefItem_t@@@1@0@Z 10015000 f i Interfaces.obj
 0001:00014050       ??$swap@DX@std@@YAXAAD0@Z  10015050 f i Interfaces.obj
 0001:00014090       ??0?$_String_alloc@U?$_String_base_types@DV?$allocator@D@std@@@std@@@std@@QAE@XZ 10015090 f i Interfaces.obj
 0001:000140b0       ??0?$_String_val@U?$_Simple_types@D@std@@@std@@QAE@XZ 100150b0 f i Interfaces.obj
 0001:000140e0       ??0?$_Tree@V?$_Tmap_traits@W4ItemDefinitionIndexx@@UDefItem_t@@U?$less@W4ItemDefinitionIndexx@@@std@@V?$allocator@U?$pair@$$CBW4ItemDefinitionIndexx@@UDefItem_t@@@std@@@4@$0A@@std@@@std@@QAE@ABU?$less@W4ItemDefinitionIndexx@@@1@@Z 100150e0 f i Interfaces.obj
 0001:00014100       ??0?$_Tree_comp_alloc@V?$_Tmap_traits@W4ItemDefinitionIndexx@@UDefItem_t@@U?$less@W4ItemDefinitionIndexx@@@std@@V?$allocator@U?$pair@$$CBW4ItemDefinitionIndexx@@UDefItem_t@@@std@@@4@$0A@@std@@@std@@QAE@ABU?$less@W4ItemDefinitionIndexx@@@1@@Z 10015100 f i Interfaces.obj
 0001:00014130       ??0?$_String_iterator@V?$_String_val@U?$_Simple_types@D@std@@@std@@@std@@QAE@PADPBU_Container_base0@1@@Z 10015130 f i DLLMain.obj
 0001:00014130       ??0?$_Vector_iterator@V?$_Vector_val@U?$_Simple_types@PAURecvTable@@@std@@@std@@@std@@QAE@PAPAURecvTable@@PBU_Container_base0@1@@Z 10015130 f i NetVarManager.obj
 0001:00014130       ??0?$_Tree_const_iterator@V?$_Tree_val@U?$_Tree_simple_types@U?$pair@$$CBW4ItemDefinitionIndexx@@UDefItem_t@@@std@@@std@@@std@@@std@@QAE@PAU?$_Tree_node@U?$pair@$$CBW4ItemDefinitionIndexx@@UDefItem_t@@@std@@PAX@1@PBV?$_Tree_val@U?$_Tree_simple_types@U?$pair@$$CBW4ItemDefinitionIndexx@@UDefItem_t@@@std@@@std@@@1@@Z 10015130 f i Interfaces.obj
 0001:00014130       ??0?$_Vector_iterator@V?$_Vector_val@U?$_Simple_types@VVector@@@std@@@std@@@std@@QAE@PAVVector@@PBU_Container_base0@1@@Z 10015130 f i GrenadePrediction.obj
 0001:00014150       ??0?$_Tree_const_iterator@V?$_Tree_val@U?$_Tree_simple_types@U?$pair@$$CBW4ItemDefinitionIndexx@@UDefItem_t@@@std@@@std@@@std@@@std@@QAE@XZ 10015150 f i Interfaces.obj
 0001:00014170       ??0?$_Tree_iterator@V?$_Tree_val@U?$_Tree_simple_types@U?$pair@$$CBW4ItemDefinitionIndexx@@UDefItem_t@@@std@@@std@@@std@@@std@@QAE@PAU?$_Tree_node@U?$pair@$$CBW4ItemDefinitionIndexx@@UDefItem_t@@@std@@PAX@1@PBV?$_Tree_val@U?$_Tree_simple_types@U?$pair@$$CBW4ItemDefinitionIndexx@@UDefItem_t@@@std@@@std@@@1@@Z 10015170 f i Interfaces.obj
 0001:00014190       ??0?$_Vector_const_iterator@V?$_Vector_val@U?$_Simple_types@VVector@@@std@@@std@@@std@@QAE@PAVVector@@PBU_Container_base0@1@@Z 10015190 f i GrenadePrediction.obj
 0001:00014190       ??0?$_Tree_unchecked_const_iterator@V?$_Tree_val@U?$_Tree_simple_types@U?$pair@$$CBW4ItemDefinitionIndexx@@UDefItem_t@@@std@@@std@@@std@@U_Iterator_base0@2@@std@@QAE@PAU?$_Tree_node@U?$pair@$$CBW4ItemDefinitionIndexx@@UDefItem_t@@@std@@PAX@1@PBV?$_Tree_val@U?$_Tree_simple_types@U?$pair@$$CBW4ItemDefinitionIndexx@@UDefItem_t@@@std@@@std@@@1@@Z 10015190 f i Interfaces.obj
 0001:00014190       ??0?$_Vector_const_iterator@V?$_Vector_val@U?$_Simple_types@PAURecvTable@@@std@@@std@@@std@@QAE@PAPAURecvTable@@PBU_Container_base0@1@@Z 10015190 f i NetVarManager.obj
 0001:00014190       ??0?$_String_const_iterator@V?$_String_val@U?$_Simple_types@D@std@@@std@@@std@@QAE@PBDPBU_Container_base0@1@@Z 10015190 f i DLLMain.obj
 0001:000141c0       ??0Color@@QAE@XZ           100151c0 f i ESP.obj
 0001:000141c0       ??0?$_Tree_unchecked_const_iterator@V?$_Tree_val@U?$_Tree_simple_types@U?$pair@$$CBW4ItemDefinitionIndexx@@UDefItem_t@@@std@@@std@@@std@@U_Iterator_base0@2@@std@@QAE@XZ 100151c0 f i Interfaces.obj
 0001:000141e0       ??0?$_Tree_val@U?$_Tree_simple_types@U?$pair@$$CBW4ItemDefinitionIndexx@@UDefItem_t@@@std@@@std@@@std@@QAE@XZ 100151e0 f i Interfaces.obj
 0001:00014210       ?_Get_first@?$_Compressed_pair@V?$allocator@D@std@@V?$_String_val@U?$_Simple_types@D@std@@@2@$00@std@@QBEABV?$allocator@D@2@XZ 10015210 f i Interfaces.obj
 0001:00014210       ?_Get_second@?$_Compressed_pair@V?$allocator@H@std@@V?$_Vector_val@U?$_Simple_types@H@std@@@2@$00@std@@QAEAAV?$_Vector_val@U?$_Simple_types@H@std@@@2@XZ 10015210 f i Utilities.obj
 0001:00014210       ?_Get_second@?$_Compressed_pair@V?$allocator@U?$_Tree_node@U?$pair@$$CBW4ItemDefinitionIndexx@@UDefItem_t@@@std@@PAX@std@@@std@@V?$_Tree_val@U?$_Tree_simple_types@U?$pair@$$CBW4ItemDefinitionIndexx@@UDefItem_t@@@std@@@std@@@2@$00@std@@QBEABV?$_Tree_val@U?$_Tree_simple_types@U?$pair@$$CBW4ItemDefinitionIndexx@@UDefItem_t@@@std@@@std@@@2@XZ 10015210 f i Interfaces.obj
 0001:00014210       ??0?$allocator@PAV?$ConfigValue@_N@@@std@@QAE@XZ 10015210 f i Configuration.obj
 0001:00014210       ?_Get_second@?$_Compressed_pair@U?$less@W4ItemDefinitionIndexx@@@std@@V?$_Compressed_pair@V?$allocator@U?$_Tree_node@U?$pair@$$CBW4ItemDefinitionIndexx@@UDefItem_t@@@std@@PAX@std@@@std@@V?$_Tree_val@U?$_Tree_simple_types@U?$pair@$$CBW4ItemDefinitionIndexx@@UDefItem_t@@@std@@@std@@@2@$00@2@$00@std@@QBEABV?$_Compressed_pair@V?$allocator@U?$_Tree_node@U?$pair@$$CBW4ItemDefinitionIndexx@@UDefItem_t@@@std@@PAX@std@@@std@@V?$_Tree_val@U?$_Tree_simple_types@U?$pair@$$CBW4ItemDefinitionIndexx@@UDefItem_t@@@std@@@std@@@2@$00@2@XZ 10015210 f i Interfaces.obj
 0001:00014210       ?_Get_second@?$_Compressed_pair@V?$allocator@E@std@@V?$_Vector_val@U?$_Simple_types@E@std@@@2@$00@std@@QAEAAV?$_Vector_val@U?$_Simple_types@E@std@@@2@XZ 10015210 f i Utilities.obj
 0001:00014210       ??0_Bxty@?$_String_val@U?$_Simple_types@D@std@@@std@@QAE@XZ 10015210 f i Interfaces.obj
 0001:00014210       ?_Get_second@?$_Compressed_pair@V?$allocator@D@std@@V?$_String_val@U?$_Simple_types@D@std@@@2@$00@std@@QBEABV?$_String_val@U?$_Simple_types@D@std@@@2@XZ 10015210 f i Interfaces.obj
 0001:00014210       ?data@?$array@D$0M@@std@@QAEPADXZ 10015210 f i Hooks.obj
 0001:00014210       ??0?$allocator@PAV?$ConfigValue@M@@@std@@QAE@XZ 10015210 f i Configuration.obj
 0001:00014210       ?_Get_second@?$_Compressed_pair@V?$allocator@PAURecvTable@@@std@@V?$_Vector_val@U?$_Simple_types@PAURecvTable@@@std@@@2@$00@std@@QAEAAV?$_Vector_val@U?$_Simple_types@PAURecvTable@@@std@@@2@XZ 10015210 f i NetVarManager.obj
 0001:00014210       ?_Get_first@?$_Compressed_pair@V?$allocator@PAV?$ConfigValue@_N@@@std@@V?$_Vector_val@U?$_Simple_types@PAV?$ConfigValue@_N@@@std@@@2@$00@std@@QBEABV?$allocator@PAV?$ConfigValue@_N@@@2@XZ 10015210 f i Configuration.obj
 0001:00014210       ?_Get_first@?$_Compressed_pair@V?$allocator@VVector@@@std@@V?$_Vector_val@U?$_Simple_types@VVector@@@std@@@2@$00@std@@QBEABV?$allocator@VVector@@@2@XZ 10015210 f i GrenadePrediction.obj
 0001:00014210       ??0?$singleton@Vmisc@@@@IAE@XZ 10015210 f i Hooks.obj
 0001:00014210       ?_Get_first@?$_Compressed_pair@V?$allocator@D@std@@V?$_String_val@U?$_Simple_types@D@std@@@2@$00@std@@QAEAAV?$allocator@D@2@XZ 10015210 f i Interfaces.obj
 0001:00014210       ?data@?$array@D$0CJ@@std@@QAEPADXZ 10015210 f i Hooks.obj
 0001:00014210       ?_Get_second@?$_Compressed_pair@U?$less@W4ItemDefinitionIndexx@@@std@@V?$_Compressed_pair@V?$allocator@U?$_Tree_node@U?$pair@$$CBW4ItemDefinitionIndexx@@UDefItem_t@@@std@@PAX@std@@@std@@V?$_Tree_val@U?$_Tree_simple_types@U?$pair@$$CBW4ItemDefinitionIndexx@@UDefItem_t@@@std@@@std@@@2@$00@2@$00@std@@QAEAAV?$_Compressed_pair@V?$allocator@U?$_Tree_node@U?$pair@$$CBW4ItemDefinitionIndexx@@UDefItem_t@@@std@@PAX@std@@@std@@V?$_Tree_val@U?$_Tree_simple_types@U?$pair@$$CBW4ItemDefinitionIndexx@@UDefItem_t@@@std@@@std@@@2@$00@2@XZ 10015210 f i Interfaces.obj
 0001:00014210       ?_Get_first@?$_Compressed_pair@V?$allocator@VVector@@@std@@V?$_Vector_val@U?$_Simple_types@VVector@@@std@@@2@$00@std@@QAEAAV?$allocator@VVector@@@2@XZ 10015210 f i Hooks.obj
 0001:00014210       ?_Get_second@?$_Compressed_pair@V?$allocator@PAV?$ConfigValue@_N@@@std@@V?$_Vector_val@U?$_Simple_types@PAV?$ConfigValue@_N@@@std@@@2@$00@std@@QAEAAV?$_Vector_val@U?$_Simple_types@PAV?$ConfigValue@_N@@@std@@@2@XZ 10015210 f i Configuration.obj
 0001:00014210       ?_Get_second@?$_Compressed_pair@V?$allocator@H@std@@V?$_Vector_val@U?$_Simple_types@H@std@@@2@$00@std@@QBEABV?$_Vector_val@U?$_Simple_types@H@std@@@2@XZ 10015210 f i Utilities.obj
 0001:00014210       ??0?$allocator@V?$basic_string@DU?$char_traits@D@std@@V?$allocator@D@2@@std@@@std@@QAE@XZ 10015210 f i ESP.obj
 0001:00014210       ?_Get_second@?$_Compressed_pair@V?$allocator@PAVIGameEventListener2@@@std@@V?$_Vector_val@U?$_Simple_types@PAVIGameEventListener2@@@std@@@2@$00@std@@QAEAAV?$_Vector_val@U?$_Simple_types@PAVIGameEventListener2@@@std@@@2@XZ 10015210 f i Hooks.obj
 0001:00014210       ?_Get_second@?$_Compressed_pair@V?$allocator@V?$basic_string@DU?$char_traits@D@std@@V?$allocator@D@2@@std@@@std@@V?$_Vector_val@U?$_Simple_types@V?$basic_string@DU?$char_traits@D@std@@V?$allocator@D@2@@std@@@std@@@2@$00@std@@QAEAAV?$_Vector_val@U?$_Simple_types@V?$basic_string@DU?$char_traits@D@std@@V?$allocator@D@2@@std@@@std@@@2@XZ 10015210 f i ESP.obj
 0001:00014210       ?_Get_second@?$_Compressed_pair@V?$allocator@PAV?$ConfigValue@M@@@std@@V?$_Vector_val@U?$_Simple_types@PAV?$ConfigValue@M@@@std@@@2@$00@std@@QBEABV?$_Vector_val@U?$_Simple_types@PAV?$ConfigValue@M@@@std@@@2@XZ 10015210 f i Configuration.obj
 0001:00014210       ?_Get_first@?$_Compressed_pair@V?$allocator@U?$_Tree_node@U?$pair@$$CBW4ItemDefinitionIndexx@@UDefItem_t@@@std@@PAX@std@@@std@@V?$_Tree_val@U?$_Tree_simple_types@U?$pair@$$CBW4ItemDefinitionIndexx@@UDefItem_t@@@std@@@std@@@2@$00@std@@QAEAAV?$allocator@U?$_Tree_node@U?$pair@$$CBW4ItemDefinitionIndexx@@UDefItem_t@@@std@@PAX@std@@@2@XZ 10015210 f i Interfaces.obj
 0001:00014210       ?_Get_second@?$_Compressed_pair@V?$allocator@PAV?$ConfigValue@M@@@std@@V?$_Vector_val@U?$_Simple_types@PAV?$ConfigValue@M@@@std@@@2@$00@std@@QAEAAV?$_Vector_val@U?$_Simple_types@PAV?$ConfigValue@M@@@std@@@2@XZ 10015210 f i Configuration.obj
 0001:00014210       ??0?$allocator@PAURecvTable@@@std@@QAE@XZ 10015210 f i NetVarManager.obj
 0001:00014210       ?data@?$array@D$05@std@@QAEPADXZ 10015210 f i Hooks.obj
 0001:00014210       ?data@?$array@D$0N@@std@@QAEPADXZ 10015210 f i Hooks.obj
 0001:00014210       ?_Get_first@?$_Compressed_pair@V?$allocator@PAV?$ConfigValue@M@@@std@@V?$_Vector_val@U?$_Simple_types@PAV?$ConfigValue@M@@@std@@@2@$00@std@@QBEABV?$allocator@PAV?$ConfigValue@M@@@2@XZ 10015210 f i Configuration.obj
 0001:00014210       ??0?$allocator@H@std@@QAE@XZ 10015210 f i Utilities.obj
 0001:00014210       ?_Get_second@?$_Compressed_pair@V?$allocator@U?$_Tree_node@U?$pair@$$CBW4ItemDefinitionIndexx@@UDefItem_t@@@std@@PAX@std@@@std@@V?$_Tree_val@U?$_Tree_simple_types@U?$pair@$$CBW4ItemDefinitionIndexx@@UDefItem_t@@@std@@@std@@@2@$00@std@@QAEAAV?$_Tree_val@U?$_Tree_simple_types@U?$pair@$$CBW4ItemDefinitionIndexx@@UDefItem_t@@@std@@@std@@@2@XZ 10015210 f i Interfaces.obj
 0001:00014210       ?_Get_first@?$_Compressed_pair@V?$allocator@PAV?$ConfigValue@M@@@std@@V?$_Vector_val@U?$_Simple_types@PAV?$ConfigValue@M@@@std@@@2@$00@std@@QAEAAV?$allocator@PAV?$ConfigValue@M@@@2@XZ 10015210 f i Configuration.obj
 0001:00014210       ?_Get_first@?$_Compressed_pair@V?$allocator@H@std@@V?$_Vector_val@U?$_Simple_types@H@std@@@2@$00@std@@QAEAAV?$allocator@H@2@XZ 10015210 f i Utilities.obj
 0001:00014210       ?_Get_first@?$_Compressed_pair@V?$allocator@PAURecvTable@@@std@@V?$_Vector_val@U?$_Simple_types@PAURecvTable@@@std@@@2@$00@std@@QAEAAV?$allocator@PAURecvTable@@@2@XZ 10015210 f i NetVarManager.obj
 0001:00014210       ?_Get_first@?$_Compressed_pair@V?$allocator@H@std@@V?$_Vector_val@U?$_Simple_types@H@std@@@2@$00@std@@QBEABV?$allocator@H@2@XZ 10015210 f i Utilities.obj
 0001:00014210       ??0?$allocator@PAVIGameEventListener2@@@std@@QAE@XZ 10015210 f i Hooks.obj
 0001:00014210       ?data@?$array@D$09@std@@QAEPADXZ 10015210 f i Hooks.obj
 0001:00014210       ?_Get_second@?$_Compressed_pair@V?$allocator@VVector@@@std@@V?$_Vector_val@U?$_Simple_types@VVector@@@std@@@2@$00@std@@QBEABV?$_Vector_val@U?$_Simple_types@VVector@@@std@@@2@XZ 10015210 f i Hooks.obj
 0001:00014210       ??0?$allocator@PAV?$ConfigValue@H@@@std@@QAE@XZ 10015210 f i Configuration.obj
 0001:00014210       ??0?$allocator@U?$_Tree_node@U?$pair@$$CBW4ItemDefinitionIndexx@@UDefItem_t@@@std@@PAX@std@@@std@@QAE@XZ 10015210 f i Interfaces.obj
 0001:00014210       ?data@?$array@D$0BB@@std@@QAEPADXZ 10015210 f i Hooks.obj
 0001:00014210       ??0?$singleton@Vgrenade_prediction@@@@IAE@XZ 10015210 f i Hooks.obj
 0001:00014210       ?data@?$array@D$0L@@std@@QAEPADXZ 10015210 f i Hooks.obj
 0001:00014210       ?data@?$array@D$0BI@@std@@QAEPADXZ 10015210 f i Hooks.obj
 0001:00014210       ?_Get_first@?$_Compressed_pair@V?$allocator@PAV?$ConfigValue@H@@@std@@V?$_Vector_val@U?$_Simple_types@PAV?$ConfigValue@H@@@std@@@2@$00@std@@QAEAAV?$allocator@PAV?$ConfigValue@H@@@2@XZ 10015210 f i Configuration.obj
 0001:00014210       ?_Get_first@?$_Compressed_pair@U?$less@W4ItemDefinitionIndexx@@@std@@V?$_Compressed_pair@V?$allocator@U?$_Tree_node@U?$pair@$$CBW4ItemDefinitionIndexx@@UDefItem_t@@@std@@PAX@std@@@std@@V?$_Tree_val@U?$_Tree_simple_types@U?$pair@$$CBW4ItemDefinitionIndexx@@UDefItem_t@@@std@@@std@@@2@$00@2@$00@std@@QAEAAU?$less@W4ItemDefinitionIndexx@@@2@XZ 10015210 f i Interfaces.obj
 0001:00014210       ?_Get_second@?$_Compressed_pair@V?$allocator@VVector@@@std@@V?$_Vector_val@U?$_Simple_types@VVector@@@std@@@2@$00@std@@QAEAAV?$_Vector_val@U?$_Simple_types@VVector@@@std@@@2@XZ 10015210 f i Hooks.obj
 0001:00014210       ?_Get_first@?$_Compressed_pair@V?$allocator@U?$_Tree_node@U?$pair@$$CBW4ItemDefinitionIndexx@@UDefItem_t@@@std@@PAX@std@@@std@@V?$_Tree_val@U?$_Tree_simple_types@U?$pair@$$CBW4ItemDefinitionIndexx@@UDefItem_t@@@std@@@std@@@2@$00@std@@QBEABV?$allocator@U?$_Tree_node@U?$pair@$$CBW4ItemDefinitionIndexx@@UDefItem_t@@@std@@PAX@std@@@2@XZ 10015210 f i Interfaces.obj
 0001:00014210       ?data@?$array@D$00@std@@QAEPADXZ 10015210 f i Hooks.obj
 0001:00014210       ?_Get_first@?$_Compressed_pair@V?$allocator@V?$basic_string@DU?$char_traits@D@std@@V?$allocator@D@2@@std@@@std@@V?$_Vector_val@U?$_Simple_types@V?$basic_string@DU?$char_traits@D@std@@V?$allocator@D@2@@std@@@std@@@2@$00@std@@QAEAAV?$allocator@V?$basic_string@DU?$char_traits@D@std@@V?$allocator@D@2@@std@@@2@XZ 10015210 f i ESP.obj
 0001:00014210       ?_Get_first@?$_Compressed_pair@V?$allocator@PAURecvTable@@@std@@V?$_Vector_val@U?$_Simple_types@PAURecvTable@@@std@@@2@$00@std@@QBEABV?$allocator@PAURecvTable@@@2@XZ 10015210 f i NetVarManager.obj
 0001:00014210       ?_Get_first@?$_Compressed_pair@V?$allocator@PAVIGameEventListener2@@@std@@V?$_Vector_val@U?$_Simple_types@PAVIGameEventListener2@@@std@@@2@$00@std@@QAEAAV?$allocator@PAVIGameEventListener2@@@2@XZ 10015210 f i Hooks.obj
 0001:00014210       ?_Get_second@?$_Compressed_pair@V?$allocator@PAURecvTable@@@std@@V?$_Vector_val@U?$_Simple_types@PAURecvTable@@@std@@@2@$00@std@@QBEABV?$_Vector_val@U?$_Simple_types@PAURecvTable@@@std@@@2@XZ 10015210 f i NetVarManager.obj
 0001:00014210       ?_Get_second@?$_Compressed_pair@V?$allocator@PAVIGameEventListener2@@@std@@V?$_Vector_val@U?$_Simple_types@PAVIGameEventListener2@@@std@@@2@$00@std@@QBEABV?$_Vector_val@U?$_Simple_types@PAVIGameEventListener2@@@std@@@2@XZ 10015210 f i Hooks.obj
 0001:00014210       ?data@?$array@D$07@std@@QAEPADXZ 10015210 f i Hooks.obj
 0001:00014210       ??0?$allocator@D@std@@QAE@XZ 10015210 f i Interfaces.obj
 0001:00014210       ?data@?$array@D$08@std@@QAEPADXZ 10015210 f i Hooks.obj
 0001:00014210       ?_Get_second@?$_Compressed_pair@V?$allocator@V?$basic_string@DU?$char_traits@D@std@@V?$allocator@D@2@@std@@@std@@V?$_Vector_val@U?$_Simple_types@V?$basic_string@DU?$char_traits@D@std@@V?$allocator@D@2@@std@@@std@@@2@$00@std@@QBEABV?$_Vector_val@U?$_Simple_types@V?$basic_string@DU?$char_traits@D@std@@V?$allocator@D@2@@std@@@std@@@2@XZ 10015210 f i ESP.obj
 0001:00014210       ??0?$allocator@VVector@@@std@@QAE@XZ 10015210 f i Hooks.obj
 0001:00014210       ?_Get_first@?$_Compressed_pair@V?$allocator@PAV?$ConfigValue@H@@@std@@V?$_Vector_val@U?$_Simple_types@PAV?$ConfigValue@H@@@std@@@2@$00@std@@QBEABV?$allocator@PAV?$ConfigValue@H@@@2@XZ 10015210 f i Configuration.obj
 0001:00014210       ?_Get_second@?$_Compressed_pair@V?$allocator@D@std@@V?$_String_val@U?$_Simple_types@D@std@@@2@$00@std@@QAEAAV?$_String_val@U?$_Simple_types@D@std@@@2@XZ 10015210 f i Interfaces.obj
 0001:00014210       ??0Vector@@QAE@XZ          10015210 f i EnginePrediction.obj
 0001:00014210       ?_Get_second@?$_Compressed_pair@V?$allocator@PAV?$ConfigValue@_N@@@std@@V?$_Vector_val@U?$_Simple_types@PAV?$ConfigValue@_N@@@std@@@2@$00@std@@QBEABV?$_Vector_val@U?$_Simple_types@PAV?$ConfigValue@_N@@@std@@@2@XZ 10015210 f i Configuration.obj
 0001:00014210       ??0?$singleton@Vvisuals@@@@IAE@XZ 10015210 f i ESP.obj
 0001:00014210       ?data@?$array@D$0CL@@std@@QAEPADXZ 10015210 f i Hooks.obj
 0001:00014210       ?_Get_second@?$_Compressed_pair@V?$allocator@E@std@@V?$_Vector_val@U?$_Simple_types@E@std@@@2@$00@std@@QBEABV?$_Vector_val@U?$_Simple_types@E@std@@@2@XZ 10015210 f i Utilities.obj
 0001:00014210       ?_Get_first@?$_Compressed_pair@V?$allocator@PAV?$ConfigValue@_N@@@std@@V?$_Vector_val@U?$_Simple_types@PAV?$ConfigValue@_N@@@std@@@2@$00@std@@QAEAAV?$allocator@PAV?$ConfigValue@_N@@@2@XZ 10015210 f i Configuration.obj
 0001:00014210       ?_Get_second@?$_Compressed_pair@V?$allocator@PAV?$ConfigValue@H@@@std@@V?$_Vector_val@U?$_Simple_types@PAV?$ConfigValue@H@@@std@@@2@$00@std@@QBEABV?$_Vector_val@U?$_Simple_types@PAV?$ConfigValue@H@@@std@@@2@XZ 10015210 f i Configuration.obj
 0001:00014210       ?data@?$array@D$0BA@@std@@QAEPADXZ 10015210 f i Hooks.obj
 0001:00014210       ?_Get_second@?$_Compressed_pair@V?$allocator@PAV?$ConfigValue@H@@@std@@V?$_Vector_val@U?$_Simple_types@PAV?$ConfigValue@H@@@std@@@2@$00@std@@QAEAAV?$_Vector_val@U?$_Simple_types@PAV?$ConfigValue@H@@@std@@@2@XZ 10015210 f i Configuration.obj
 0001:00014220       ??0?$basic_string@DU?$char_traits@D@std@@V?$allocator@D@2@@std@@QAE@QBD@Z 10015220 f i Interfaces.obj
 0001:00014280       ??0ImGuiPlotArrayGetterData@@QAE@PBMH@Z 10015280 f i imgui.obj
 0001:00014280       ??0?$initializer_list@U?$pair@$$CBW4ItemDefinitionIndexx@@UDefItem_t@@@std@@@std@@QAE@PBU?$pair@$$CBW4ItemDefinitionIndexx@@UDefItem_t@@@1@0@Z 10015280 f i Interfaces.obj
 0001:00014280       ??0TextRange@ImGuiTextFilter@@QAE@PBD0@Z 10015280 f i imgui.obj
 0001:00014280       ??0Pair@ImGuiStorage@@QAE@IH@Z 10015280 f i imgui.obj
 0001:00014280       ??0Pair@ImGuiStorage@@QAE@IPAX@Z 10015280 f i imgui.obj
 0001:000142b0       ??0?$map@W4ItemDefinitionIndexx@@UDefItem_t@@U?$less@W4ItemDefinitionIndexx@@@std@@V?$allocator@U?$pair@$$CBW4ItemDefinitionIndexx@@UDefItem_t@@@std@@@4@@std@@QAE@V?$initializer_list@U?$pair@$$CBW4ItemDefinitionIndexx@@UDefItem_t@@@std@@@1@@Z 100152b0 f i Interfaces.obj
 0001:00014310       ??0DefItem_t@@QAE@PBD0000@Z 10015310 f i Interfaces.obj
 0001:00014380       ??0ImVec2@@QAE@MM@Z        10015380 f i Hooks.obj
 0001:00014380       ??0Vector2D@@QAE@MM@Z      10015380 f i Interfaces.obj
 0001:000143b0       ??1?$_Compressed_pair@V?$allocator@D@std@@V?$_String_val@U?$_Simple_types@D@std@@@2@$00@std@@QAE@XZ 100153b0 f i Interfaces.obj
 0001:000143d0       ??1?$_String_alloc@U?$_String_base_types@DV?$allocator@D@std@@@std@@@std@@QAE@XZ 100153d0 f i Interfaces.obj
 0001:000143f0       ??1visuals@@QAE@XZ         100153f0 f i Hooks.obj
 0001:000143f0       ??1misc@@QAE@XZ            100153f0 f i Hooks.obj
 0001:000143f0       ??1?$_String_val@U?$_Simple_types@D@std@@@std@@QAE@XZ 100153f0 f i Interfaces.obj
 0001:00014410       ??1?$_Tree@V?$_Tmap_traits@W4ItemDefinitionIndexx@@UDefItem_t@@U?$less@W4ItemDefinitionIndexx@@@std@@V?$allocator@U?$pair@$$CBW4ItemDefinitionIndexx@@UDefItem_t@@@std@@@4@$0A@@std@@@std@@QAE@XZ 10015410 f i Interfaces.obj
 0001:00014450       ??1?$_Tree_comp_alloc@V?$_Tmap_traits@W4ItemDefinitionIndexx@@UDefItem_t@@U?$less@W4ItemDefinitionIndexx@@@std@@V?$allocator@U?$pair@$$CBW4ItemDefinitionIndexx@@UDefItem_t@@@std@@@4@$0A@@std@@@std@@QAE@XZ 10015450 f i Interfaces.obj
 0001:00014490       ??1?$map@W4ItemDefinitionIndexx@@UDefItem_t@@U?$less@W4ItemDefinitionIndexx@@@std@@V?$allocator@U?$pair@$$CBW4ItemDefinitionIndexx@@UDefItem_t@@@std@@@4@@std@@QAE@XZ 10015490 f i Interfaces.obj
 0001:000144b0       ??1?$singleton@Vvisuals@@@@IAE@XZ 100154b0 f i Hooks.obj
 0001:000144b0       ?_Orphan_all@_Container_base0@std@@QAEXXZ 100154b0 f i Interfaces.obj
 0001:000144b0       ??1ImGuiListClipper@@QAE@XZ 100154b0 f i imgui.obj
 0001:000144b0       ??1_Bxty@?$_String_val@U?$_Simple_types@D@std@@@std@@QAE@XZ 100154b0 f i Interfaces.obj
 0001:000144b0       ??1?$singleton@Vmisc@@@@IAE@XZ 100154b0 f i Hooks.obj
 0001:000144b0       ??1?$singleton@Vgrenade_prediction@@@@IAE@XZ 100154b0 f i Hooks.obj
 0001:000144c0       ??2@YAPAXIPAX@Z            100154c0 f i Interfaces.obj
 0001:000144d0       ??8?$_Tree_const_iterator@V?$_Tree_val@U?$_Tree_simple_types@U?$pair@$$CBW4ItemDefinitionIndexx@@UDefItem_t@@@std@@@std@@@std@@@std@@QBE_NABV01@@Z 100154d0 f i Interfaces.obj
 0001:00014500       ??9?$_Tree_const_iterator@V?$_Tree_val@U?$_Tree_simple_types@U?$pair@$$CBW4ItemDefinitionIndexx@@UDefItem_t@@@std@@@std@@@std@@@std@@QBE_NABV01@@Z 10015500 f i Interfaces.obj
 0001:00014540       ??E?$_Tree_const_iterator@V?$_Tree_val@U?$_Tree_simple_types@U?$pair@$$CBW4ItemDefinitionIndexx@@UDefItem_t@@@std@@@std@@@std@@@std@@QAE?AV01@H@Z 10015540 f i Interfaces.obj
 0001:00014570       ??E?$_Tree_const_iterator@V?$_Tree_val@U?$_Tree_simple_types@U?$pair@$$CBW4ItemDefinitionIndexx@@UDefItem_t@@@std@@@std@@@std@@@std@@QAEAAV01@XZ 10015570 f i Interfaces.obj
 0001:00014590       ??E?$_Tree_unchecked_const_iterator@V?$_Tree_val@U?$_Tree_simple_types@U?$pair@$$CBW4ItemDefinitionIndexx@@UDefItem_t@@@std@@@std@@@std@@U_Iterator_base0@2@@std@@QAEAAV01@XZ 10015590 f i Interfaces.obj
 0001:00014610       ??F?$_Tree_const_iterator@V?$_Tree_val@U?$_Tree_simple_types@U?$pair@$$CBW4ItemDefinitionIndexx@@UDefItem_t@@@std@@@std@@@std@@@std@@QAEAAV01@XZ 10015610 f i Interfaces.obj
 0001:00014630       ??F?$_Tree_iterator@V?$_Tree_val@U?$_Tree_simple_types@U?$pair@$$CBW4ItemDefinitionIndexx@@UDefItem_t@@@std@@@std@@@std@@@std@@QAEAAV01@XZ 10015630 f i Interfaces.obj
 0001:00014650       ??F?$_Tree_unchecked_const_iterator@V?$_Tree_val@U?$_Tree_simple_types@U?$pair@$$CBW4ItemDefinitionIndexx@@UDefItem_t@@@std@@@std@@@std@@U_Iterator_base0@2@@std@@QAEAAV01@XZ 10015650 f i Interfaces.obj
 0001:00014730       ??R?$less@W4ItemDefinitionIndexx@@@std@@QBE_NABW4ItemDefinitionIndexx@@0@Z 10015730 f i Interfaces.obj
 0001:00014760       ?_Adjust_manually_vector_aligned@std@@YAXAAPAXAAI@Z 10015760 f i Interfaces.obj
 0001:000147c0       ?_Swap_all@_Container_base0@std@@QAEXAAU12@@Z 100157c0 f i Utilities.obj
 0001:000147c0       ?_Compat@?$_Vector_const_iterator@V?$_Vector_val@U?$_Simple_types@VVector@@@std@@@std@@@std@@QBEXABV12@@Z 100157c0 f i GrenadePrediction.obj
 0001:000147c0       ?_Adopt@_Iterator_base0@std@@QAEXPBX@Z 100157c0 f i Interfaces.obj
 0001:000147c0       ?_Compat@?$_Vector_const_iterator@V?$_Vector_val@U?$_Simple_types@PAURecvTable@@@std@@@std@@@std@@QBEXABV12@@Z 100157c0 f i NetVarManager.obj
 0001:000147d0       ?_Allocate@_Default_allocate_traits@std@@SAPAXI@Z 100157d0 f i Interfaces.obj
 0001:000147f0       ?_Buyheadnode@?$_Tree_comp_alloc@V?$_Tmap_traits@W4ItemDefinitionIndexx@@UDefItem_t@@U?$less@W4ItemDefinitionIndexx@@@std@@V?$allocator@U?$pair@$$CBW4ItemDefinitionIndexx@@UDefItem_t@@@std@@@4@$0A@@std@@@std@@QAEPAU?$_Tree_node@U?$pair@$$CBW4ItemDefinitionIndexx@@UDefItem_t@@@std@@PAX@2@XZ 100157f0 f i Interfaces.obj
 0001:000148f0       ?_Buynode0@?$_Tree_comp_alloc@V?$_Tmap_traits@W4ItemDefinitionIndexx@@UDefItem_t@@U?$less@W4ItemDefinitionIndexx@@@std@@V?$allocator@U?$pair@$$CBW4ItemDefinitionIndexx@@UDefItem_t@@@std@@@4@$0A@@std@@@std@@QAEPAU?$_Tree_node@U?$pair@$$CBW4ItemDefinitionIndexx@@UDefItem_t@@@std@@PAX@2@XZ 100158f0 f i Interfaces.obj
 0001:000149f0       ?_Calculate_growth@?$basic_string@DU?$char_traits@D@std@@V?$allocator@D@2@@std@@QBEII@Z 100159f0 f i Interfaces.obj
 0001:00014a70       ?_Construct@?$_Tree_comp_alloc@V?$_Tmap_traits@W4ItemDefinitionIndexx@@UDefItem_t@@U?$less@W4ItemDefinitionIndexx@@@std@@V?$allocator@U?$pair@$$CBW4ItemDefinitionIndexx@@UDefItem_t@@@std@@@4@$0A@@std@@@std@@QAEXXZ 10015a70 f i Interfaces.obj
 0001:00014aa0       ?_Destroy_if_node@?$_Tree@V?$_Tmap_traits@W4ItemDefinitionIndexx@@UDefItem_t@@U?$less@W4ItemDefinitionIndexx@@@std@@V?$allocator@U?$pair@$$CBW4ItemDefinitionIndexx@@UDefItem_t@@@std@@@4@$0A@@std@@@std@@IAEXPAU?$_Tree_node@U?$pair@$$CBW4ItemDefinitionIndexx@@UDefItem_t@@@std@@PAX@2@@Z 10015aa0 f i Interfaces.obj
 0001:00014af0       ?_Erase@?$_Tree@V?$_Tmap_traits@W4ItemDefinitionIndexx@@UDefItem_t@@U?$less@W4ItemDefinitionIndexx@@@std@@V?$allocator@U?$pair@$$CBW4ItemDefinitionIndexx@@UDefItem_t@@@std@@@4@$0A@@std@@@std@@IAEXPAU?$_Tree_node@U?$pair@$$CBW4ItemDefinitionIndexx@@UDefItem_t@@@std@@PAX@2@@Z 10015af0 f i Interfaces.obj
 0001:00014b70       ?_Extract@?$_Tree@V?$_Tmap_traits@W4ItemDefinitionIndexx@@UDefItem_t@@U?$less@W4ItemDefinitionIndexx@@@std@@V?$allocator@U?$pair@$$CBW4ItemDefinitionIndexx@@UDefItem_t@@@std@@@4@$0A@@std@@@std@@QAEPAU?$_Tree_node@U?$pair@$$CBW4ItemDefinitionIndexx@@UDefItem_t@@@std@@PAX@2@V?$_Tree_const_iterator@V?$_Tree_val@U?$_Tree_simple_types@U?$pair@$$CBW4ItemDefinitionIndexx@@UDefItem_t@@@std@@@std@@@std@@@2@@Z 10015b70 f i Interfaces.obj
 0001:00014fc0       ?_Freeheadnode@?$_Tree_comp_alloc@V?$_Tmap_traits@W4ItemDefinitionIndexx@@UDefItem_t@@U?$less@W4ItemDefinitionIndexx@@@std@@V?$allocator@U?$pair@$$CBW4ItemDefinitionIndexx@@UDefItem_t@@@std@@@4@$0A@@std@@@std@@QAEXPAU?$_Tree_node@U?$pair@$$CBW4ItemDefinitionIndexx@@UDefItem_t@@@std@@PAX@2@@Z 10015fc0 f i Interfaces.obj
 0001:00014fc0       ?_Freenode0@?$_Tree_comp_alloc@V?$_Tmap_traits@W4ItemDefinitionIndexx@@UDefItem_t@@U?$less@W4ItemDefinitionIndexx@@@std@@V?$allocator@U?$pair@$$CBW4ItemDefinitionIndexx@@UDefItem_t@@@std@@@4@$0A@@std@@@std@@QAEXPAU?$_Tree_node@U?$pair@$$CBW4ItemDefinitionIndexx@@UDefItem_t@@@std@@PAX@2@@Z 10015fc0 f i Interfaces.obj
 0001:00014ff0       ?_Getal@?$_Vector_alloc@U?$_Vec_base_types@VVector@@V?$allocator@VVector@@@std@@@std@@@std@@QAEAAV?$allocator@VVector@@@2@XZ 10015ff0 f i Hooks.obj
 0001:00014ff0       ?_Get_data@?$_Vector_alloc@U?$_Vec_base_types@PAURecvTable@@V?$allocator@PAURecvTable@@@std@@@std@@@std@@QAEAAV?$_Vector_val@U?$_Simple_types@PAURecvTable@@@std@@@2@XZ 10015ff0 f i NetVarManager.obj
 0001:00014ff0       ?_Get_data@?$_Vector_alloc@U?$_Vec_base_types@PAURecvTable@@V?$allocator@PAURecvTable@@@std@@@std@@@std@@QBEABV?$_Vector_val@U?$_Simple_types@PAURecvTable@@@std@@@2@XZ 10015ff0 f i NetVarManager.obj
 0001:00014ff0       ?_Get_data@?$_Vector_alloc@U?$_Vec_base_types@PAV?$ConfigValue@_N@@V?$allocator@PAV?$ConfigValue@_N@@@std@@@std@@@std@@QBEABV?$_Vector_val@U?$_Simple_types@PAV?$ConfigValue@_N@@@std@@@2@XZ 10015ff0 f i Configuration.obj
 0001:00014ff0       ?_Getal@?$_Vector_alloc@U?$_Vec_base_types@VVector@@V?$allocator@VVector@@@std@@@std@@@std@@QBEABV?$allocator@VVector@@@2@XZ 10015ff0 f i GrenadePrediction.obj
 0001:00014ff0       ?_Get_data@?$_Vector_alloc@U?$_Vec_base_types@V?$basic_string@DU?$char_traits@D@std@@V?$allocator@D@2@@std@@V?$allocator@V?$basic_string@DU?$char_traits@D@std@@V?$allocator@D@2@@std@@@2@@std@@@std@@QBEABV?$_Vector_val@U?$_Simple_types@V?$basic_string@DU?$char_traits@D@std@@V?$allocator@D@2@@std@@@std@@@2@XZ 10015ff0 f i ESP.obj
 0001:00014ff0       ?_Get_data@?$_Vector_alloc@U?$_Vec_base_types@PAVIGameEventListener2@@V?$allocator@PAVIGameEventListener2@@@std@@@std@@@std@@QAEAAV?$_Vector_val@U?$_Simple_types@PAVIGameEventListener2@@@std@@@2@XZ 10015ff0 f i Hooks.obj
 0001:00014ff0       ?_Getal@?$_Vector_alloc@U?$_Vec_base_types@PAURecvTable@@V?$allocator@PAURecvTable@@@std@@@std@@@std@@QBEABV?$allocator@PAURecvTable@@@2@XZ 10015ff0 f i NetVarManager.obj
 0001:00014ff0       ?_Getal@?$_String_alloc@U?$_String_base_types@DV?$allocator@D@std@@@std@@@std@@QBEABV?$allocator@D@2@XZ 10015ff0 f i Interfaces.obj
 0001:00014ff0       ?_Get_data@?$_Vector_alloc@U?$_Vec_base_types@PAVIGameEventListener2@@V?$allocator@PAVIGameEventListener2@@@std@@@std@@@std@@QBEABV?$_Vector_val@U?$_Simple_types@PAVIGameEventListener2@@@std@@@2@XZ 10015ff0 f i Hooks.obj
 0001:00014ff0       ?_Getal@?$_Vector_alloc@U?$_Vec_base_types@PAV?$ConfigValue@H@@V?$allocator@PAV?$ConfigValue@H@@@std@@@std@@@std@@QAEAAV?$allocator@PAV?$ConfigValue@H@@@2@XZ 10015ff0 f i Configuration.obj
 0001:00014ff0       ?_Get_data@?$_Vector_alloc@U?$_Vec_base_types@HV?$allocator@H@std@@@std@@@std@@QBEABV?$_Vector_val@U?$_Simple_types@H@std@@@2@XZ 10015ff0 f i Utilities.obj
 0001:00014ff0       ?_Getal@?$_Vector_alloc@U?$_Vec_base_types@PAV?$ConfigValue@M@@V?$allocator@PAV?$ConfigValue@M@@@std@@@std@@@std@@QBEABV?$allocator@PAV?$ConfigValue@M@@@2@XZ 10015ff0 f i Configuration.obj
 0001:00014ff0       ?_Get_data@?$_Vector_alloc@U?$_Vec_base_types@V?$basic_string@DU?$char_traits@D@std@@V?$allocator@D@2@@std@@V?$allocator@V?$basic_string@DU?$char_traits@D@std@@V?$allocator@D@2@@std@@@2@@std@@@std@@QAEAAV?$_Vector_val@U?$_Simple_types@V?$basic_string@DU?$char_traits@D@std@@V?$allocator@D@2@@std@@@std@@@2@XZ 10015ff0 f i ESP.obj
 0001:00014ff0       ?_Getal@?$_Vector_alloc@U?$_Vec_base_types@PAV?$ConfigValue@M@@V?$allocator@PAV?$ConfigValue@M@@@std@@@std@@@std@@QAEAAV?$allocator@PAV?$ConfigValue@M@@@2@XZ 10015ff0 f i Configuration.obj
 0001:00014ff0       ?_Get_data@?$_Vector_alloc@U?$_Vec_base_types@PAV?$ConfigValue@M@@V?$allocator@PAV?$ConfigValue@M@@@std@@@std@@@std@@QBEABV?$_Vector_val@U?$_Simple_types@PAV?$ConfigValue@M@@@std@@@2@XZ 10015ff0 f i Configuration.obj
 0001:00014ff0       ?_Get_data@?$_String_alloc@U?$_String_base_types@DV?$allocator@D@std@@@std@@@std@@QBEABV?$_String_val@U?$_Simple_types@D@std@@@2@XZ 10015ff0 f i Interfaces.obj
 0001:00014ff0       ?_Getal@?$_Vector_alloc@U?$_Vec_base_types@PAV?$ConfigValue@_N@@V?$allocator@PAV?$ConfigValue@_N@@@std@@@std@@@std@@QAEAAV?$allocator@PAV?$ConfigValue@_N@@@2@XZ 10015ff0 f i Configuration.obj
 0001:00014ff0       ?_Getal@?$_Vector_alloc@U?$_Vec_base_types@HV?$allocator@H@std@@@std@@@std@@QAEAAV?$allocator@H@2@XZ 10015ff0 f i Utilities.obj
 0001:00014ff0       ?_Getal@?$_String_alloc@U?$_String_base_types@DV?$allocator@D@std@@@std@@@std@@QAEAAV?$allocator@D@2@XZ 10015ff0 f i Interfaces.obj
 0001:00014ff0       ?_Get_data@?$_Vector_alloc@U?$_Vec_base_types@VVector@@V?$allocator@VVector@@@std@@@std@@@std@@QAEAAV?$_Vector_val@U?$_Simple_types@VVector@@@std@@@2@XZ 10015ff0 f i Hooks.obj
 0001:00014ff0       ?_Get_data@?$_String_alloc@U?$_String_base_types@DV?$allocator@D@std@@@std@@@std@@QAEAAV?$_String_val@U?$_Simple_types@D@std@@@2@XZ 10015ff0 f i Interfaces.obj
 0001:00014ff0       ?_Getal@?$_Vector_alloc@U?$_Vec_base_types@PAURecvTable@@V?$allocator@PAURecvTable@@@std@@@std@@@std@@QAEAAV?$allocator@PAURecvTable@@@2@XZ 10015ff0 f i NetVarManager.obj
 0001:00014ff0       ?_Getal@?$_Vector_alloc@U?$_Vec_base_types@PAVIGameEventListener2@@V?$allocator@PAVIGameEventListener2@@@std@@@std@@@std@@QAEAAV?$allocator@PAVIGameEventListener2@@@2@XZ 10015ff0 f i Hooks.obj
 0001:00014ff0       ?_Getal@?$_Vector_alloc@U?$_Vec_base_types@PAV?$ConfigValue@H@@V?$allocator@PAV?$ConfigValue@H@@@std@@@std@@@std@@QBEABV?$allocator@PAV?$ConfigValue@H@@@2@XZ 10015ff0 f i Configuration.obj
 0001:00014ff0       ?_Get_data@?$_Vector_alloc@U?$_Vec_base_types@PAV?$ConfigValue@H@@V?$allocator@PAV?$ConfigValue@H@@@std@@@std@@@std@@QBEABV?$_Vector_val@U?$_Simple_types@PAV?$ConfigValue@H@@@std@@@2@XZ 10015ff0 f i Configuration.obj
 0001:00014ff0       ?_Getal@?$_Vector_alloc@U?$_Vec_base_types@HV?$allocator@H@std@@@std@@@std@@QBEABV?$allocator@H@2@XZ 10015ff0 f i Utilities.obj
 0001:00014ff0       ?_Getal@?$_Vector_alloc@U?$_Vec_base_types@V?$basic_string@DU?$char_traits@D@std@@V?$allocator@D@2@@std@@V?$allocator@V?$basic_string@DU?$char_traits@D@std@@V?$allocator@D@2@@std@@@2@@std@@@std@@QAEAAV?$allocator@V?$basic_string@DU?$char_traits@D@std@@V?$allocator@D@2@@std@@@2@XZ 10015ff0 f i ESP.obj
 0001:00014ff0       ?_Get_data@?$_Vector_alloc@U?$_Vec_base_types@EV?$allocator@E@std@@@std@@@std@@QAEAAV?$_Vector_val@U?$_Simple_types@E@std@@@2@XZ 10015ff0 f i Utilities.obj
 0001:00014ff0       ?_Get_data@?$_Vector_alloc@U?$_Vec_base_types@VVector@@V?$allocator@VVector@@@std@@@std@@@std@@QBEABV?$_Vector_val@U?$_Simple_types@VVector@@@std@@@2@XZ 10015ff0 f i Hooks.obj
 0001:00014ff0       ?_Getcomp@?$_Tree_comp_alloc@V?$_Tmap_traits@W4ItemDefinitionIndexx@@UDefItem_t@@U?$less@W4ItemDefinitionIndexx@@@std@@V?$allocator@U?$pair@$$CBW4ItemDefinitionIndexx@@UDefItem_t@@@std@@@4@$0A@@std@@@std@@QAEAAU?$less@W4ItemDefinitionIndexx@@@2@XZ 10015ff0 f i Interfaces.obj
 0001:00014ff0       ?_Get_data@?$_Vector_alloc@U?$_Vec_base_types@EV?$allocator@E@std@@@std@@@std@@QBEABV?$_Vector_val@U?$_Simple_types@E@std@@@2@XZ 10015ff0 f i Utilities.obj
 0001:00014ff0       ?_Get_data@?$_Vector_alloc@U?$_Vec_base_types@HV?$allocator@H@std@@@std@@@std@@QAEAAV?$_Vector_val@U?$_Simple_types@H@std@@@2@XZ 10015ff0 f i Utilities.obj
 0001:00014ff0       ?_Getal@?$_Vector_alloc@U?$_Vec_base_types@PAV?$ConfigValue@_N@@V?$allocator@PAV?$ConfigValue@_N@@@std@@@std@@@std@@QBEABV?$allocator@PAV?$ConfigValue@_N@@@2@XZ 10015ff0 f i Configuration.obj
 0001:00014ff0       ?_Get_data@?$_Vector_alloc@U?$_Vec_base_types@PAV?$ConfigValue@_N@@V?$allocator@PAV?$ConfigValue@_N@@@std@@@std@@@std@@QAEAAV?$_Vector_val@U?$_Simple_types@PAV?$ConfigValue@_N@@@std@@@2@XZ 10015ff0 f i Configuration.obj
 0001:00014ff0       ?_Get_data@?$_Vector_alloc@U?$_Vec_base_types@PAV?$ConfigValue@M@@V?$allocator@PAV?$ConfigValue@M@@@std@@@std@@@std@@QAEAAV?$_Vector_val@U?$_Simple_types@PAV?$ConfigValue@M@@@std@@@2@XZ 10015ff0 f i Configuration.obj
 0001:00014ff0       ?_Get_data@?$_Vector_alloc@U?$_Vec_base_types@PAV?$ConfigValue@H@@V?$allocator@PAV?$ConfigValue@H@@@std@@@std@@@std@@QAEAAV?$_Vector_val@U?$_Simple_types@PAV?$ConfigValue@H@@@std@@@2@XZ 10015ff0 f i Configuration.obj
 0001:00015010       ?_Getal@?$_Tree_comp_alloc@V?$_Tmap_traits@W4ItemDefinitionIndexx@@UDefItem_t@@U?$less@W4ItemDefinitionIndexx@@@std@@V?$allocator@U?$pair@$$CBW4ItemDefinitionIndexx@@UDefItem_t@@@std@@@4@$0A@@std@@@std@@QBEABV?$allocator@U?$_Tree_node@U?$pair@$$CBW4ItemDefinitionIndexx@@UDefItem_t@@@std@@PAX@std@@@2@XZ 10016010 f i Interfaces.obj
 0001:00015010       ?_Get_data@?$_Tree_comp_alloc@V?$_Tmap_traits@W4ItemDefinitionIndexx@@UDefItem_t@@U?$less@W4ItemDefinitionIndexx@@@std@@V?$allocator@U?$pair@$$CBW4ItemDefinitionIndexx@@UDefItem_t@@@std@@@4@$0A@@std@@@std@@QBEABV?$_Tree_val@U?$_Tree_simple_types@U?$pair@$$CBW4ItemDefinitionIndexx@@UDefItem_t@@@std@@@std@@@2@XZ 10016010 f i Interfaces.obj
 0001:00015010       ?_Get_data@?$_Tree_comp_alloc@V?$_Tmap_traits@W4ItemDefinitionIndexx@@UDefItem_t@@U?$less@W4ItemDefinitionIndexx@@@std@@V?$allocator@U?$pair@$$CBW4ItemDefinitionIndexx@@UDefItem_t@@@std@@@4@$0A@@std@@@std@@QAEAAV?$_Tree_val@U?$_Tree_simple_types@U?$pair@$$CBW4ItemDefinitionIndexx@@UDefItem_t@@@std@@@std@@@2@XZ 10016010 f i Interfaces.obj
 0001:00015010       ?_Getal@?$_Tree_comp_alloc@V?$_Tmap_traits@W4ItemDefinitionIndexx@@UDefItem_t@@U?$less@W4ItemDefinitionIndexx@@@std@@V?$allocator@U?$pair@$$CBW4ItemDefinitionIndexx@@UDefItem_t@@@std@@@4@$0A@@std@@@std@@QAEAAV?$allocator@U?$_Tree_node@U?$pair@$$CBW4ItemDefinitionIndexx@@UDefItem_t@@@std@@PAX@std@@@2@XZ 10016010 f i Interfaces.obj
 0001:00015030       ?_Key@?$_Tree@V?$_Tmap_traits@W4ItemDefinitionIndexx@@UDefItem_t@@U?$less@W4ItemDefinitionIndexx@@@std@@V?$allocator@U?$pair@$$CBW4ItemDefinitionIndexx@@UDefItem_t@@@std@@@4@$0A@@std@@@std@@IBEABW4ItemDefinitionIndexx@@PAU?$_Tree_node@U?$pair@$$CBW4ItemDefinitionIndexx@@UDefItem_t@@@std@@PAX@2@@Z 10016030 f i Interfaces.obj
 0001:00015050       ?_Kfn@?$_Tree@V?$_Tmap_traits@W4ItemDefinitionIndexx@@UDefItem_t@@U?$less@W4ItemDefinitionIndexx@@@std@@V?$allocator@U?$pair@$$CBW4ItemDefinitionIndexx@@UDefItem_t@@@std@@@4@$0A@@std@@@std@@IBEABW4ItemDefinitionIndexx@@ABU?$pair@$$CBW4ItemDefinitionIndexx@@UDefItem_t@@@2@@Z 10016050 f i Interfaces.obj
 0001:00015070       ?_Large_string_engaged@?$_String_val@U?$_Simple_types@D@std@@@std@@QBE_NXZ 10016070 f i Interfaces.obj
 0001:000150a0       ?_Lmost@?$_Tree@V?$_Tmap_traits@W4ItemDefinitionIndexx@@UDefItem_t@@U?$less@W4ItemDefinitionIndexx@@@std@@V?$allocator@U?$pair@$$CBW4ItemDefinitionIndexx@@UDefItem_t@@@std@@@4@$0A@@std@@@std@@IBEAAPAU?$_Tree_node@U?$pair@$$CBW4ItemDefinitionIndexx@@UDefItem_t@@@std@@PAX@2@XZ 100160a0 f i Interfaces.obj
 0001:000150c0       ?_Lrotate@?$_Tree@V?$_Tmap_traits@W4ItemDefinitionIndexx@@UDefItem_t@@U?$less@W4ItemDefinitionIndexx@@@std@@V?$allocator@U?$pair@$$CBW4ItemDefinitionIndexx@@UDefItem_t@@@std@@@4@$0A@@std@@@std@@IAEXPAU?$_Tree_node@U?$pair@$$CBW4ItemDefinitionIndexx@@UDefItem_t@@@std@@PAX@2@@Z 100160c0 f i Interfaces.obj
 0001:00015160       ?_Max@?$_Tree_comp_alloc@V?$_Tmap_traits@W4ItemDefinitionIndexx@@UDefItem_t@@U?$less@W4ItemDefinitionIndexx@@@std@@V?$allocator@U?$pair@$$CBW4ItemDefinitionIndexx@@UDefItem_t@@@std@@@4@$0A@@std@@@std@@SAPAU?$_Tree_node@U?$pair@$$CBW4ItemDefinitionIndexx@@UDefItem_t@@@std@@PAX@2@PAU32@@Z 10016160 f i Interfaces.obj
 0001:00015180       ?_Max@?$_Tree_val@U?$_Tree_simple_types@U?$pair@$$CBW4ItemDefinitionIndexx@@UDefItem_t@@@std@@@std@@@std@@SAPAU?$_Tree_node@U?$pair@$$CBW4ItemDefinitionIndexx@@UDefItem_t@@@std@@PAX@2@PAU32@@Z 10016180 f i Interfaces.obj
 0001:000151b0       ?_Min@?$_Tree_comp_alloc@V?$_Tmap_traits@W4ItemDefinitionIndexx@@UDefItem_t@@U?$less@W4ItemDefinitionIndexx@@@std@@V?$allocator@U?$pair@$$CBW4ItemDefinitionIndexx@@UDefItem_t@@@std@@@4@$0A@@std@@@std@@SAPAU?$_Tree_node@U?$pair@$$CBW4ItemDefinitionIndexx@@UDefItem_t@@@std@@PAX@2@PAU32@@Z 100161b0 f i Interfaces.obj
 0001:000151d0       ?_Min@?$_Tree_val@U?$_Tree_simple_types@U?$pair@$$CBW4ItemDefinitionIndexx@@UDefItem_t@@@std@@@std@@@std@@SAPAU?$_Tree_node@U?$pair@$$CBW4ItemDefinitionIndexx@@UDefItem_t@@@std@@PAX@2@PAU32@@Z 100161d0 f i Interfaces.obj
 0001:000151f0       ?_Myhead@?$_Tree_comp_alloc@V?$_Tmap_traits@W4ItemDefinitionIndexx@@UDefItem_t@@U?$less@W4ItemDefinitionIndexx@@@std@@V?$allocator@U?$pair@$$CBW4ItemDefinitionIndexx@@UDefItem_t@@@std@@@4@$0A@@std@@@std@@QBEABQAU?$_Tree_node@U?$pair@$$CBW4ItemDefinitionIndexx@@UDefItem_t@@@std@@PAX@2@XZ 100161f0 f i Interfaces.obj
 0001:000151f0       ?_Myhead@?$_Tree_comp_alloc@V?$_Tmap_traits@W4ItemDefinitionIndexx@@UDefItem_t@@U?$less@W4ItemDefinitionIndexx@@@std@@V?$allocator@U?$pair@$$CBW4ItemDefinitionIndexx@@UDefItem_t@@@std@@@4@$0A@@std@@@std@@QAEAAPAU?$_Tree_node@U?$pair@$$CBW4ItemDefinitionIndexx@@UDefItem_t@@@std@@PAX@2@XZ 100161f0 f i Interfaces.obj
 0001:00015210       ?_Myptr@?$_String_val@U?$_Simple_types@D@std@@@std@@QAEPADXZ 10016210 f i Interfaces.obj
 0001:00015210       ?_Myptr@?$_String_val@U?$_Simple_types@D@std@@@std@@QBEPBDXZ 10016210 f i ESP.obj
 0001:00015250       ?_Mysize@?$_Tree_comp_alloc@V?$_Tmap_traits@W4ItemDefinitionIndexx@@UDefItem_t@@U?$less@W4ItemDefinitionIndexx@@@std@@V?$allocator@U?$pair@$$CBW4ItemDefinitionIndexx@@UDefItem_t@@@std@@@4@$0A@@std@@@std@@QBEABIXZ 10016250 f i Interfaces.obj
 0001:00015250       ?_Mysize@?$_Tree_comp_alloc@V?$_Tmap_traits@W4ItemDefinitionIndexx@@UDefItem_t@@U?$less@W4ItemDefinitionIndexx@@@std@@V?$allocator@U?$pair@$$CBW4ItemDefinitionIndexx@@UDefItem_t@@@std@@@4@$0A@@std@@@std@@QAEAAIXZ 10016250 f i Interfaces.obj
 0001:00015270       ?_Rmost@?$_Tree@V?$_Tmap_traits@W4ItemDefinitionIndexx@@UDefItem_t@@U?$less@W4ItemDefinitionIndexx@@@std@@V?$allocator@U?$pair@$$CBW4ItemDefinitionIndexx@@UDefItem_t@@@std@@@4@$0A@@std@@@std@@IBEAAPAU?$_Tree_node@U?$pair@$$CBW4ItemDefinitionIndexx@@UDefItem_t@@@std@@PAX@2@XZ 10016270 f i Interfaces.obj
 0001:00015290       ?_Root@?$_Tree@V?$_Tmap_traits@W4ItemDefinitionIndexx@@UDefItem_t@@U?$less@W4ItemDefinitionIndexx@@@std@@V?$allocator@U?$pair@$$CBW4ItemDefinitionIndexx@@UDefItem_t@@@std@@@4@$0A@@std@@@std@@IBEAAPAU?$_Tree_node@U?$pair@$$CBW4ItemDefinitionIndexx@@UDefItem_t@@@std@@PAX@2@XZ 10016290 f i Interfaces.obj
 0001:000152b0       ?_Rrotate@?$_Tree@V?$_Tmap_traits@W4ItemDefinitionIndexx@@UDefItem_t@@U?$less@W4ItemDefinitionIndexx@@@std@@V?$allocator@U?$pair@$$CBW4ItemDefinitionIndexx@@UDefItem_t@@@std@@@4@$0A@@std@@@std@@IAEXPAU?$_Tree_node@U?$pair@$$CBW4ItemDefinitionIndexx@@UDefItem_t@@@std@@PAX@2@@Z 100162b0 f i Interfaces.obj
 0001:00015350       ?_Tidy@?$_Tree@V?$_Tmap_traits@W4ItemDefinitionIndexx@@UDefItem_t@@U?$less@W4ItemDefinitionIndexx@@@std@@V?$allocator@U?$pair@$$CBW4ItemDefinitionIndexx@@UDefItem_t@@@std@@@4@$0A@@std@@@std@@IAEXXZ 10016350 f i Interfaces.obj
 0001:000153a0       ?_Tidy_init@?$basic_string@DU?$char_traits@D@std@@V?$allocator@D@2@@std@@QAEXXZ 100163a0 f i Interfaces.obj
 0001:000153f0       ?_Xlen@?$basic_string@DU?$char_traits@D@std@@V?$allocator@D@2@@std@@SAXXZ 100163f0 f i Interfaces.obj
 0001:00015400       ?allocate@?$allocator@D@std@@QAEPADI@Z 10016400 f i Interfaces.obj
 0001:00015430       ?allocate@?$allocator@U?$_Tree_node@U?$pair@$$CBW4ItemDefinitionIndexx@@UDefItem_t@@@std@@PAX@std@@@std@@QAEPAU?$_Tree_node@U?$pair@$$CBW4ItemDefinitionIndexx@@UDefItem_t@@@std@@PAX@2@I@Z 10016430 f i Interfaces.obj
 0001:00015460       ?assign@?$basic_string@DU?$char_traits@D@std@@V?$allocator@D@2@@std@@QAEAAV12@QBD@Z 10016460 f i Interfaces.obj
 0001:00015490       ?assign@?$basic_string@DU?$char_traits@D@std@@V?$allocator@D@2@@std@@QAEAAV12@QBDI@Z 10016490 f i Interfaces.obj
 0001:00015520       ?assign@?$char_traits@D@std@@SAXAADABD@Z 10016520 f i Interfaces.obj
 0001:00015530       ?begin@?$_Tree@V?$_Tmap_traits@W4ItemDefinitionIndexx@@UDefItem_t@@U?$less@W4ItemDefinitionIndexx@@@std@@V?$allocator@U?$pair@$$CBW4ItemDefinitionIndexx@@UDefItem_t@@@std@@@4@$0A@@std@@@std@@QAE?AV?$_Tree_iterator@V?$_Tree_val@U?$_Tree_simple_types@U?$pair@$$CBW4ItemDefinitionIndexx@@UDefItem_t@@@std@@@std@@@std@@@2@XZ 10016530 f i Interfaces.obj
 0001:00015590       ??D?$_String_const_iterator@V?$_String_val@U?$_Simple_types@D@std@@@std@@@std@@QBEABDXZ 10016590 f i Utilities.obj
 0001:00015590       ?begin@TextRange@ImGuiTextFilter@@QBEPBDXZ 10016590 f i imgui.obj
 0001:00015590       ?begin@?$initializer_list@U?$pair@$$CBW4ItemDefinitionIndexx@@UDefItem_t@@@std@@@std@@QBEPBU?$pair@$$CBW4ItemDefinitionIndexx@@UDefItem_t@@@2@XZ 10016590 f i Interfaces.obj
 0001:00015590       ?getEnt@GlowObjectDefinition_t@CGlowObjectManager@@QAEPAVC_BaseEntity@@XZ 10016590 f i Hooks.obj
 0001:00015590       ??D?$_Vector_const_iterator@V?$_Vector_val@U?$_Simple_types@PAURecvTable@@@std@@@std@@@std@@QBEABQAURecvTable@@XZ 10016590 f i NetVarManager.obj
 0001:00015590       ??D?$_Vector_const_iterator@V?$_Vector_val@U?$_Simple_types@VVector@@@std@@@std@@@std@@QBEABVVector@@XZ 10016590 f i GrenadePrediction.obj
 0001:000155a0       ?clear@?$_Tree@V?$_Tmap_traits@W4ItemDefinitionIndexx@@UDefItem_t@@U?$less@W4ItemDefinitionIndexx@@@std@@V?$allocator@U?$pair@$$CBW4ItemDefinitionIndexx@@UDefItem_t@@@std@@@4@$0A@@std@@@std@@QAEXXZ 100165a0 f i Interfaces.obj
 0001:00015630       ?copy@?$char_traits@D@std@@SAPADQADQBDI@Z 10016630 f i Interfaces.obj
 0001:00015650       ?deallocate@?$_Default_allocator_traits@V?$allocator@U?$_Tree_node@U?$pair@$$CBW4ItemDefinitionIndexx@@UDefItem_t@@@std@@PAX@std@@@std@@@std@@SAXAAV?$allocator@U?$_Tree_node@U?$pair@$$CBW4ItemDefinitionIndexx@@UDefItem_t@@@std@@PAX@std@@@2@QAU?$_Tree_node@U?$pair@$$CBW4ItemDefinitionIndexx@@UDefItem_t@@@std@@PAX@2@I@Z 10016650 f i Interfaces.obj
 0001:00015670       ?deallocate@?$allocator@D@std@@QAEXQADI@Z 10016670 f i Interfaces.obj
 0001:00015690       ?deallocate@?$allocator@U?$_Tree_node@U?$pair@$$CBW4ItemDefinitionIndexx@@UDefItem_t@@@std@@PAX@std@@@std@@QAEXQAU?$_Tree_node@U?$pair@$$CBW4ItemDefinitionIndexx@@UDefItem_t@@@std@@PAX@2@I@Z 10016690 f i Interfaces.obj
 0001:000156b0       ?end@?$_Tree@V?$_Tmap_traits@W4ItemDefinitionIndexx@@UDefItem_t@@U?$less@W4ItemDefinitionIndexx@@@std@@V?$allocator@U?$pair@$$CBW4ItemDefinitionIndexx@@UDefItem_t@@@std@@@4@$0A@@std@@@std@@QAE?AV?$_Tree_iterator@V?$_Tree_val@U?$_Tree_simple_types@U?$pair@$$CBW4ItemDefinitionIndexx@@UDefItem_t@@@std@@@std@@@std@@@2@XZ 100166b0 f i Interfaces.obj
 0001:00015710       ?end@TextRange@ImGuiTextFilter@@QBEPBDXZ 10016710 f i imgui.obj
 0001:00015710       ?end@?$initializer_list@U?$pair@$$CBW4ItemDefinitionIndexx@@UDefItem_t@@@std@@@std@@QBEPBU?$pair@$$CBW4ItemDefinitionIndexx@@UDefItem_t@@@2@XZ 10016710 f i Interfaces.obj
 0001:00015730       ?erase@?$_Tree@V?$_Tmap_traits@W4ItemDefinitionIndexx@@UDefItem_t@@U?$less@W4ItemDefinitionIndexx@@@std@@V?$allocator@U?$pair@$$CBW4ItemDefinitionIndexx@@UDefItem_t@@@std@@@4@$0A@@std@@@std@@QAE?AV?$_Tree_iterator@V?$_Tree_val@U?$_Tree_simple_types@U?$pair@$$CBW4ItemDefinitionIndexx@@UDefItem_t@@@std@@@std@@@std@@@2@V?$_Tree_const_iterator@V?$_Tree_val@U?$_Tree_simple_types@U?$pair@$$CBW4ItemDefinitionIndexx@@UDefItem_t@@@std@@@std@@@std@@@2@0@Z 10016730 f i Interfaces.obj
 0001:000157f0       ?erase@?$_Tree@V?$_Tmap_traits@W4ItemDefinitionIndexx@@UDefItem_t@@U?$less@W4ItemDefinitionIndexx@@@std@@V?$allocator@U?$pair@$$CBW4ItemDefinitionIndexx@@UDefItem_t@@@std@@@4@$0A@@std@@@std@@QAE?AV?$_Tree_iterator@V?$_Tree_val@U?$_Tree_simple_types@U?$pair@$$CBW4ItemDefinitionIndexx@@UDefItem_t@@@std@@@std@@@std@@@2@V?$_Tree_const_iterator@V?$_Tree_val@U?$_Tree_simple_types@U?$pair@$$CBW4ItemDefinitionIndexx@@UDefItem_t@@@std@@@std@@@std@@@2@@Z 100167f0 f i Interfaces.obj
 0001:00015880       ?get_module_factory@@YAP6APAXPBDPAH@ZPAUHINSTANCE__@@@Z 10016880 f i Interfaces.obj
 0001:000158a0       ?insert@?$_Tree@V?$_Tmap_traits@W4ItemDefinitionIndexx@@UDefItem_t@@U?$less@W4ItemDefinitionIndexx@@@std@@V?$allocator@U?$pair@$$CBW4ItemDefinitionIndexx@@UDefItem_t@@@std@@@4@$0A@@std@@@std@@QAEXV?$initializer_list@U?$pair@$$CBW4ItemDefinitionIndexx@@UDefItem_t@@@std@@@2@@Z 100168a0 f i Interfaces.obj
 0001:000158d0       ?length@?$char_traits@D@std@@SAIQBD@Z 100168d0 f i Interfaces.obj
 0001:000158f0       ?max@?$numeric_limits@H@std@@SAHXZ 100168f0 f i Interfaces.obj
 0001:00015900       ?eof@?$char_traits@D@std@@SAHXZ 10016900 f i Utilities.obj
 0001:00015900       ?max_size@?$_Default_allocator_traits@V?$allocator@D@std@@@std@@SAIABV?$allocator@D@2@@Z 10016900 f i Interfaces.obj
 0001:00015910       ?max_size@?$_Default_allocator_traits@V?$allocator@U?$_Tree_node@U?$pair@$$CBW4ItemDefinitionIndexx@@UDefItem_t@@@std@@PAX@std@@@std@@@std@@SAIABV?$allocator@U?$_Tree_node@U?$pair@$$CBW4ItemDefinitionIndexx@@UDefItem_t@@@std@@PAX@std@@@2@@Z 10016910 f i Interfaces.obj
 0001:00015920       ?max_size@?$_Tree@V?$_Tmap_traits@W4ItemDefinitionIndexx@@UDefItem_t@@U?$less@W4ItemDefinitionIndexx@@@std@@V?$allocator@U?$pair@$$CBW4ItemDefinitionIndexx@@UDefItem_t@@@std@@@4@$0A@@std@@@std@@QBEIXZ 10016920 f i Interfaces.obj
 0001:00015940       ?max_size@?$basic_string@DU?$char_traits@D@std@@V?$allocator@D@2@@std@@QBEIXZ 10016940 f i Interfaces.obj
 0001:000159a0       ?move@?$char_traits@D@std@@SAPADQADQBDI@Z 100169a0 f i Interfaces.obj
 0001:000159c0       ?size@?$_Tree@V?$_Tmap_traits@W4ItemDefinitionIndexx@@UDefItem_t@@U?$less@W4ItemDefinitionIndexx@@@std@@V?$allocator@U?$pair@$$CBW4ItemDefinitionIndexx@@UDefItem_t@@@std@@@4@$0A@@std@@@std@@QBEIXZ 100169c0 f i Interfaces.obj
 0001:000159e0       _DetourCopyInstructionX64@20 100169e0 f   disolx64.obj
 0001:00015a10       _DetourSetCodeModuleX64@8  10016a10 f   disolx64.obj
 0001:00015a60       ??0CDetourDisX64@@QAE@PAPAEPAJ@Z 10016a60 f   disolx64.obj
 0001:00015b10       ?CopyInstruction@CDetourDisX64@@QAEPAEPAE0@Z 10016b10 f   disolx64.obj
 0001:00015b70       ?SanityCheckSystem@CDetourDisX64@@SAHXZ 10016b70 f   disolx64.obj
 0001:00015c30       ?SetCodeModule@CDetourDisX64@@SAHPAE0H@Z 10016c30 f   disolx64.obj
 0001:00015c60       ?CopyBytes@CDetourDisX64@@IAEPAEPBUCOPYENTRY@1@PAE1@Z 10016c60 f   disolx64.obj
 0001:00015eb0       ?CopyBytesPrefix@CDetourDisX64@@IAEPAEPBUCOPYENTRY@1@PAE1@Z 10016eb0 f   disolx64.obj
 0001:00015f20       ?CopyBytesSegment@CDetourDisX64@@IAEPAEPBUCOPYENTRY@1@PAE1@Z 10016f20 f   disolx64.obj
 0001:00015f60       ?CopyBytesRax@CDetourDisX64@@IAEPAEPBUCOPYENTRY@1@PAE1@Z 10016f60 f   disolx64.obj
 0001:00015fa0       ?CopyBytesJump@CDetourDisX64@@IAEPAEPBUCOPYENTRY@1@PAE1@Z 10016fa0 f   disolx64.obj
 0001:000160c0       ?Invalid@CDetourDisX64@@IAEPAEPBUCOPYENTRY@1@PAE1@Z 100170c0 f   disolx64.obj
 0001:000160e0       ?AdjustTarget@CDetourDisX64@@IAEPAEPAE0III@Z 100170e0 f   disolx64.obj
 0001:000162a0       ?Copy0F@CDetourDisX64@@IAEPAEPBUCOPYENTRY@1@PAE1@Z 100172a0 f   disolx64.obj
 0001:00016310       ?Copy0F00@CDetourDisX64@@IAEPAEPBUCOPYENTRY@1@PAE1@Z 10017310 f   disolx64.obj
 0001:00016370       ?Copy0F78@CDetourDisX64@@IAEPAEPBUCOPYENTRY@1@PAE1@Z 10017370 f   disolx64.obj
 0001:000163c0       ?Copy0FB8@CDetourDisX64@@IAEPAEPBUCOPYENTRY@1@PAE1@Z 100173c0 f   disolx64.obj
 0001:00016410       ?Copy66@CDetourDisX64@@IAEPAEPBUCOPYENTRY@1@PAE1@Z 10017410 f   disolx64.obj
 0001:00016440       ?Copy67@CDetourDisX64@@IAEPAEPBUCOPYENTRY@1@PAE1@Z 10017440 f   disolx64.obj
 0001:00016470       ?CopyF2@CDetourDisX64@@IAEPAEPBUCOPYENTRY@1@PAE1@Z 10017470 f   disolx64.obj
 0001:000164a0       ?CopyF3@CDetourDisX64@@IAEPAEPBUCOPYENTRY@1@PAE1@Z 100174a0 f   disolx64.obj
 0001:000164d0       ?CopyF6@CDetourDisX64@@IAEPAEPBUCOPYENTRY@1@PAE1@Z 100174d0 f   disolx64.obj
 0001:00016520       ?CopyF7@CDetourDisX64@@IAEPAEPBUCOPYENTRY@1@PAE1@Z 10017520 f   disolx64.obj
 0001:00016570       ?CopyFF@CDetourDisX64@@IAEPAEPBUCOPYENTRY@1@PAE1@Z 10017570 f   disolx64.obj
 0001:00016670       ?CopyVex2@CDetourDisX64@@IAEPAEPBUCOPYENTRY@1@PAE1@Z 10017670 f   disolx64.obj
 0001:000166d0       ?CopyVex3@CDetourDisX64@@IAEPAEPBUCOPYENTRY@1@PAE1@Z 100176d0 f   disolx64.obj
 0001:00016790       ?CopyVexCommon@CDetourDisX64@@IAEPAEEPAE0@Z 10017790 f   disolx64.obj
 0001:00016860       _DetourTransactionBegin@0  10017860 f   detours.obj
 0001:000168c0       _DetourTransactionAbort@0  100178c0 f   detours.obj
 0001:000169d0       _DetourTransactionCommit@0 100179d0 f   detours.obj
 0001:000169e0       _DetourTransactionCommitEx@4 100179e0 f   detours.obj
 0001:00016d50       _DetourUpdateThread@4      10017d50 f   detours.obj
 0001:00016e20       _DetourAttach@8            10017e20 f   detours.obj
 0001:00016e40       _DetourAttachEx@20         10017e40 f   detours.obj
 0001:00017270       _DetourDetach@8            10018270 f   detours.obj
 0001:00017450       _DetourSetIgnoreTooSmall@4 10018450 f   detours.obj
 0001:00017470       _DetourSetRetainRegions@4  10018470 f   detours.obj
 0001:00017490       _DetourSetSystemRegionLowerBound@4 10018490 f   detours.obj
 0001:000174b0       _DetourSetSystemRegionUpperBound@4 100184b0 f   detours.obj
 0001:000174d0       _DetourCodeFromPointer@8   100184d0 f   detours.obj
 0001:000174f0       _DetourVirtualProtectSameExecuteEx@20 100184f0 f   detours.obj
 0001:00017550       _DetourVirtualProtectSameExecute@16 10018550 f   detours.obj
 0001:00017e00       ?detour_2gb_above@@YAKK@Z  10018e00 f i detours.obj
 0001:00017e30       ?detour_2gb_below@@YAKK@Z  10018e30 f i detours.obj
 0001:00017e60       ?detour_does_code_end_function@@YAHPAE@Z 10018e60 f i detours.obj
 0001:00018020       ?detour_find_jmp_bounds@@YAXPAEPAPAU_DETOUR_TRAMPOLINE@@1@Z 10019020 f i detours.obj
 0001:000180b0       ?detour_gen_brk@@YAPAEPAE0@Z 100190b0 f i detours.obj
 0001:000180e0       ?detour_gen_jmp_immediate@@YAPAEPAE0@Z 100190e0 f i detours.obj
 0001:00018120       ?detour_is_code_filler@@YAKPAE@Z 10019120 f i detours.obj
 0001:00018700       ?detour_skip_jmp@@YAPAEPAEPAPAX@Z 10019700 f i detours.obj
 0001:00018860       ?InitKeyValues@@YAXPAVKeyValues@@PBD@Z 10019860 f   Chams.obj
 0001:00018910       ?LoadFromBuffer@@YAXPAVKeyValues@@PBD1@Z 10019910 f   Chams.obj
 0001:000189a0       ?ForceMaterial@@YAXVColor@@PAVIMaterial@@_N2@Z 100199a0 f   Chams.obj
 0001:00018ac0       ?CreateMaterial@@YAPAVIMaterial@@_N00@Z 10019ac0 f   Chams.obj
 0001:00018bd0       ??$call_vfunc@P6EXPAXPAVIMaterial@@W4OverrideType_t@@H@Z@@YAP6EXPAXPAVIMaterial@@W4OverrideType_t@@H@Z0K@Z 10019bd0 f i Chams.obj
 0001:00018bd0       ??$call_vfunc@P6EXPAXPBM@Z@@YAP6EXPAXPBM@Z0K@Z 10019bd0 f i Chams.obj
 0001:00018bd0       ??$call_vfunc@P6EXPAX@Z@@YAP6EXPAX@Z0K@Z 10019bd0 f i Chams.obj
 0001:00018bd0       ??$call_vfunc@P6EXPAXHPBEHH@Z@@YAP6EXPAXHPBEHH@Z0K@Z 10019bd0 f i Render.obj
 0001:00018bd0       ??$call_vfunc@P6EXPAXABURay_t@@IPAVITraceFilter@@PAVCGameTrace@@@Z@@YAP6EXPAXABURay_t@@IPAVITraceFilter@@PAVCGameTrace@@@Z0K@Z 10019bd0 f i MiscFunctions.obj
 0001:00018bd0       ??$call_vfunc@P6EPBDPAXPBX@Z@@YAP6EPBDPAXPBX@Z0K@Z 10019bd0 f i Hooks.obj
 0001:00018bd0       ??$call_vfunc@P6E_NPAX@Z@@YAP6E_NPAX@Z0K@Z 10019bd0 f i Hooks.obj
 0001:00018bd0       ??$call_vfunc@P6EXPAXPBDD@Z@@YAP6EXPAXPBDD@Z0K@Z 10019bd0 f i MiscFunctions.obj
 0001:00018bd0       ??$call_vfunc@P6EHPAX@Z@@YAP6EHPAX@Z0K@Z 10019bd0 f i EnginePrediction.obj
 0001:00018bd0       ??$call_vfunc@P6EHPAXPBDH@Z@@YAP6EHPAXPBDH@Z0K@Z 10019bd0 f i Hooks.obj
 0001:00018bd0       ??$call_vfunc@P6EXPAXKPB_WAAH2@Z@@YAP6EXPAXKPB_WAAH2@Z0K@Z 10019bd0 f i Render.obj
 0001:00018bd0       ??$call_vfunc@P6EHPAXH@Z@@YAP6EHPAXH@Z0K@Z 10019bd0 f i Hooks.obj
 0001:00018bd0       ??$call_vfunc@P6EXPAXPB_WHH@Z@@YAP6EXPAXPB_WHH@Z0K@Z 10019bd0 f i Render.obj
 0001:00018bd0       ??$call_vfunc@P6EPBDPAXPBDH@Z@@YAP6EPBDPAXPBDH@Z0K@Z 10019bd0 f i Hooks.obj
 0001:00018bd0       ??$call_vfunc@P6EPAVIMaterial@@PAXG@Z@@YAP6EPAVIMaterial@@PAXG@Z0K@Z 10019bd0 f i ESP.obj
 0001:00018bd0       ??$call_vfunc@P6EPBDPAXI@Z@@YAP6EPBDPAXI@Z0K@Z 10019bd0 f i Hooks.obj
 0001:00018bd0       ??$call_vfunc@P6EXPAXABURay_t@@IPAVC_BaseEntity@@PAVCGameTrace@@@Z@@YAP6EXPAXABURay_t@@IPAVC_BaseEntity@@PAVCGameTrace@@@Z0K@Z 10019bd0 f i MiscFunctions.obj
 0001:00018bd0       ??$call_vfunc@P6EXPAXHPAUVertex_t@@_N@Z@@YAP6EXPAXHPAUVertex_t@@_N@Z0K@Z 10019bd0 f i Render.obj
 0001:00018bd0       ??$call_vfunc@P6EPBDPAX@Z@@YAP6EPBDPAX@Z0K@Z 10019bd0 f i Hooks.obj
 0001:00018bd0       ??$call_vfunc@P6EXPAXVColor@@@Z@@YAP6EXPAXVColor@@@Z0K@Z 10019bd0 f i Render.obj
 0001:00018bd0       ??$call_vfunc@P6EXPAXAAVVector@@@Z@@YAP6EXPAXAAVVector@@@Z0K@Z 10019bd0 f i GrenadePrediction.obj
 0001:00018bd0       ??$call_vfunc@P6EXPAXKPBDHHHHHHH@Z@@YAP6EXPAXKPBDHHHHHHH@Z0K@Z 10019bd0 f i Render.obj
 0001:00018bd0       ??$call_vfunc@P6EMPAX@Z@@YAP6EMPAX@Z0K@Z 10019bd0 f i SpoofedConvar.obj
 0001:00018bd0       ??$call_vfunc@P6EIPAX@Z@@YAP6EIPAX@Z0K@Z 10019bd0 f i Render.obj
 0001:00018bd0       ??$call_vfunc@P6EXPAXH@Z@@YAP6EXPAXH@Z0K@Z 10019bd0 f i ESP.obj
 0001:00018bd0       ??$call_vfunc@P6EXPAXMMM@Z@@YAP6EXPAXMMM@Z0K@Z 10019bd0 f i ESP.obj
 0001:00018bd0       ??$call_vfunc@P6GPAUstudiohdr_t@@PBUmodel_t@@@Z@@YAP6GPAUstudiohdr_t@@PBUmodel_t@@@ZPAXK@Z 10019bd0 f i MiscFunctions.obj
 0001:00018bd0       ??$call_vfunc@P6EXPAXHHHH@Z@@YAP6EXPAXHHHH@Z0K@Z 10019bd0 f i Render.obj
 0001:00018bd0       ??$call_vfunc@P6EXPAXM@Z@@YAP6EXPAXM@Z0K@Z 10019bd0 f i Chams.obj
 0001:00018bd0       ??$call_vfunc@P6EXPAXK@Z@@YAP6EXPAXK@Z0K@Z 10019bd0 f i Render.obj
 0001:00018bd0       ??$call_vfunc@P6EHPAX_N@Z@@YAP6EHPAX_N@Z0K@Z 10019bd0 f i Render.obj
 0001:00018bd0       ??$call_vfunc@P6EPAVIMaterial@@PAXPBDPAVKeyValues@@@Z@@YAP6EPAVIMaterial@@PAXPBDPAVKeyValues@@@Z0K@Z 10019bd0 f i Chams.obj
 0001:00018bd0       ??$call_vfunc@P6EHPAXABVVector@@AAV1@@Z@@YAP6EHPAXABVVector@@AAV0@@Z0K@Z 10019bd0 f i ESP.obj
 0001:00018bd0       ??$call_vfunc@P6EGPAXG@Z@@YAP6EGPAXG@Z0K@Z 10019bd0 f i ESP.obj
 0001:00018bd0       ??$call_vfunc@P6EXPAXHH@Z@@YAP6EXPAXHH@Z0K@Z 10019bd0 f i Render.obj
 0001:00018bd0       ??$call_vfunc@P6EXPAXW4MaterialVarFlags_t@@_N@Z@@YAP6EXPAXW4MaterialVarFlags_t@@_N@Z0K@Z 10019bd0 f i ESP.obj
 0001:00018bd0       ??$call_vfunc@P6EXPAXPBD@Z@@YAP6EXPAXPBD@Z0K@Z 10019bd0 f i ESP.obj
 0001:00018bd0       ??$call_vfunc@P6EAAY123$$CBMPAX@Z@@YAP6EAAY123$$CBMPAX@Z0K@Z 10019bd0 f i Render.obj
 0001:00018bd0       ??$call_vfunc@P6E_NPAXPAY123MHHM@Z@@YAP6E_NPAXPAY123MHHM@Z0K@Z 10019bd0 f i MiscFunctions.obj
 0001:00018bd0       ??$call_vfunc@P6EXPAXAAH1@Z@@YAP6EXPAXAAH1@Z0K@Z 10019bd0 f i ESP.obj
 0001:00018bd0       ??$call_vfunc@P6EXPAXPAH1H@Z@@YAP6EXPAXPAH1H@Z0K@Z 10019bd0 f i Render.obj
 0001:00018bd0       ??$call_vfunc@P6E_NPAXHPAUplayer_info_s@@@Z@@YAP6E_NPAXHPAUplayer_info_s@@@Z0K@Z 10019bd0 f i ESP.obj
 0001:00018bd0       ??$call_vfunc@P6EGPAX@Z@@YAP6EGPAX@Z0K@Z 10019bd0 f i ESP.obj
 0001:00018bd0       ??$call_vfunc@P6EPAVIMaterial@@PAXPBD1_N1@Z@@YAP6EPAVIMaterial@@PAXPBD1_N1@Z0K@Z 10019bd0 f i Hooks.obj
 0001:00018c00       ?CreateMaterial@CMaterialSystem@@QAEPAVIMaterial@@PBDPAVKeyValues@@@Z 10019c00 f i Chams.obj
 0001:00018c30       ?ForcedMaterialOverride@IVModelRender@@QAEXPAVIMaterial@@W4OverrideType_t@@H@Z 10019c30 f i Chams.obj
 0001:00018c60       ?IncrementReferenceCount@IMaterial@@QAEXXZ 10019c60 f i Chams.obj
 0001:00018c80       ?SetBlend@CVRenderView@@QAEXM@Z 10019c80 f i Chams.obj
 0001:00018cb0       ?SetColorModulation@CVRenderView@@QAEXPBM@Z 10019cb0 f i Chams.obj
 0001:00018ce0       ?a@Color@@QBEHXZ           10019ce0 f i Chams.obj
 0001:00018d00       ?b@Color@@QBEHXZ           10019d00 f i Chams.obj
 0001:00018d20       ?g@Color@@QBEHXZ           10019d20 f i Chams.obj
 0001:00018d40       ?r@Color@@QBEHXZ           10019d40 f i Chams.obj
 0001:00018d60       ___local_stdio_printf_options 10019d60 f i Chams.obj
 0001:00018d70       __vsprintf_s_l             10019d70 f i Chams.obj
 0001:00018dc0       _sprintf_s                 10019dc0 f i Chams.obj
 0001:00018e00       _DetourCopyInstructionARM64@20 10019e00 f   disolarm64.obj
 0001:00018e30       _DetourSetCodeModuleARM64@8 10019e30 f   disolarm64.obj
 0001:00018e40       ??0CDetourDisARM64@@QAE@XZ 10019e40 f   disolarm64.obj
 0001:00018e60       ?CopyInstruction@CDetourDisARM64@@QAEPAEPAE0PAPAEPAJ@Z 10019e60 f   disolarm64.obj
 0001:00018fe0       ?PureCopy32@CDetourDisARM64@@IAEEPAE0@Z 10019fe0 f   disolarm64.obj
 0001:00019000       ?EmitMovImmediate@CDetourDisARM64@@IAEEAAPAKE_K@Z 1001a000 f   disolarm64.obj
 0001:00019320       ?CopyAdr@CDetourDisARM64@@IAEEPAE0K@Z 1001a320 f   disolarm64.obj
 0001:00019500       ?CopyBcc@CDetourDisARM64@@IAEEPAE0K@Z 1001a500 f   disolarm64.obj
 0001:00019650       ?CopyB@CDetourDisARM64@@IAEEPAE0K@Z 1001a650 f   disolarm64.obj
 0001:00019700       ?CopyCbz@CDetourDisARM64@@IAEEPAE0K@Z 1001a700 f   disolarm64.obj
 0001:000198a0       ?CopyTbz@CDetourDisARM64@@IAEEPAE0K@Z 1001a8a0 f   disolarm64.obj
 0001:00019a60       ?CopyLdrLiteral@CDetourDisARM64@@IAEEPAE0K@Z 1001aa60 f   disolarm64.obj
 0001:00019bc0       ?Assemble@AddImm12@CDetourDisARM64@@SAKKKKKK@Z 1001abc0 f i disolarm64.obj
 0001:00019c60       ?Assemble@Adr19@CDetourDisARM64@@SAKKKJ@Z 1001ac60 f i disolarm64.obj
 0001:00019ce0       ?Assemble@Branch26@CDetourDisARM64@@SAKKJ@Z 1001ace0 f i disolarm64.obj
 0001:00019d30       ?Assemble@Cbz19@CDetourDisARM64@@SAKKKKJ@Z 1001ad30 f i disolarm64.obj
 0001:00019db0       ?Assemble@LdrFpNeonImm9@CDetourDisARM64@@SAKKKKK@Z 1001adb0 f i disolarm64.obj
 0001:00019e50       ?Assemble@LdrLit19@CDetourDisARM64@@SAKKKKJ@Z 1001ae50 f i disolarm64.obj
 0001:00019ee0       ?Assemble@Mov16@CDetourDisARM64@@SAKKKKKK@Z 1001aee0 f i disolarm64.obj
 0001:00019f70       ?Assemble@Tbz14@CDetourDisARM64@@SAKKKKKJ@Z 1001af70 f i disolarm64.obj
 0001:0001a000       ?AssembleAdd32@AddImm12@CDetourDisARM64@@SAKKKKK@Z 1001b000 f i disolarm64.obj
 0001:0001a020       ?AssembleAdr@Adr19@CDetourDisARM64@@SAKKJ@Z 1001b020 f i disolarm64.obj
 0001:0001a040       ?AssembleAdrp@Adr19@CDetourDisARM64@@SAKKJ@Z 1001b040 f i disolarm64.obj
 0001:0001a060       ?AssembleB@Branch26@CDetourDisARM64@@SAKJ@Z 1001b060 f i disolarm64.obj
 0001:0001a080       ?AssembleBcc@Bcc19@CDetourDisARM64@@SAKKJ@Z 1001b080 f i disolarm64.obj
 0001:0001a0e0       ?AssembleBr@Br@CDetourDisARM64@@SAKK@Z 1001b0e0 f i disolarm64.obj
 0001:0001a120       ?AssembleMovk64@Mov16@CDetourDisARM64@@SAKKKK@Z 1001b120 f i disolarm64.obj
 0001:0001a140       ?AssembleMovn32@Mov16@CDetourDisARM64@@SAKKKK@Z 1001b140 f i disolarm64.obj
 0001:0001a160       ?AssembleMovn64@Mov16@CDetourDisARM64@@SAKKKK@Z 1001b160 f i disolarm64.obj
 0001:0001a180       ?AssembleMovz64@Mov16@CDetourDisARM64@@SAKKKK@Z 1001b180 f i disolarm64.obj
 0001:0001a1a0       ?EmitInstruction@CDetourDisARM64@@IAEEAAPAKK@Z 1001b1a0 f i disolarm64.obj
 0001:0001a1d0       ?GetInstruction@CDetourDisARM64@@IAEKPAE@Z 1001b1d0 f i disolarm64.obj
 0001:0001a1f0       ?Imm@Adr19@CDetourDisARM64@@QBEJXZ 1001b1f0 f i disolarm64.obj
 0001:0001a230       ?Imm@Bcc19@CDetourDisARM64@@QBEJXZ 1001b230 f i disolarm64.obj
 0001:0001a230       ?Imm@Cbz19@CDetourDisARM64@@QBEJXZ 1001b230 f i disolarm64.obj
 0001:0001a230       ?Imm@LdrLit19@CDetourDisARM64@@QBEJXZ 1001b230 f i disolarm64.obj
 0001:0001a250       ?Imm@Branch26@CDetourDisARM64@@QBEJXZ 1001b250 f i disolarm64.obj
 0001:0001a270       ?Imm@Tbz14@CDetourDisARM64@@QBEJXZ 1001b270 f i disolarm64.obj
 0001:0001a290       ?StartPrediction@@YAXPAVCUserCmd@CInput@@@Z 1001b290 f   EnginePrediction.obj
 0001:0001a410       ?EndPrediction@@YAXPAVCUserCmd@CInput@@@Z 1001b410 f   EnginePrediction.obj
 0001:0001a4a0       ??0CMoveData@@QAE@XZ       1001b4a0 f i EnginePrediction.obj
 0001:0001a530       ?GetFloat@ConVar@@QAEMXZ   1001b530 f i SpoofedConvar.obj
 0001:0001a530       ?GetLocalPlayer@IVEngineClient@@QAEHXZ 1001b530 f i EnginePrediction.obj
 0001:0001a550       ?GetTickBase@C_BaseEntity@@QAEHXZ 1001b550 f i EnginePrediction.obj
 0001:0001a570       _DetourCopyInstructionX86@20 1001b570 f   disolx86.obj
 0001:0001a5a0       _DetourSetCodeModuleX86@8  1001b5a0 f   disolx86.obj
 0001:0001a5f0       ??0CDetourDisX86@@QAE@PAPAEPAJ@Z 1001b5f0 f   disolx86.obj
 0001:0001a6a0       ?CopyInstruction@CDetourDisX86@@QAEPAEPAE0@Z 1001b6a0 f   disolx86.obj
 0001:0001a700       ?SanityCheckSystem@CDetourDisX86@@SAHXZ 1001b700 f   disolx86.obj
 0001:0001a7c0       ?SetCodeModule@CDetourDisX86@@SAHPAE0H@Z 1001b7c0 f   disolx86.obj
 0001:0001a7f0       ?CopyBytes@CDetourDisX86@@IAEPAEPBUCOPYENTRY@1@PAE1@Z 1001b7f0 f   disolx86.obj
 0001:0001a9b0       ?CopyBytesPrefix@CDetourDisX86@@IAEPAEPBUCOPYENTRY@1@PAE1@Z 1001b9b0 f   disolx86.obj
 0001:0001aa20       ?CopyBytesSegment@CDetourDisX86@@IAEPAEPBUCOPYENTRY@1@PAE1@Z 1001ba20 f   disolx86.obj
 0001:0001aa60       ?CopyBytesRax@CDetourDisX86@@IAEPAEPBUCOPYENTRY@1@PAE1@Z 1001ba60 f   disolx86.obj
 0001:0001aaa0       ?CopyBytesJump@CDetourDisX86@@IAEPAEPBUCOPYENTRY@1@PAE1@Z 1001baa0 f   disolx86.obj
 0001:0001abc0       ?Invalid@CDetourDisX86@@IAEPAEPBUCOPYENTRY@1@PAE1@Z 1001bbc0 f   disolx86.obj
 0001:0001abe0       ?AdjustTarget@CDetourDisX86@@IAEPAEPAE0III@Z 1001bbe0 f   disolx86.obj
 0001:0001acf0       ?Copy0F@CDetourDisX86@@IAEPAEPBUCOPYENTRY@1@PAE1@Z 1001bcf0 f   disolx86.obj
 0001:0001ad60       ?Copy0F00@CDetourDisX86@@IAEPAEPBUCOPYENTRY@1@PAE1@Z 1001bd60 f   disolx86.obj
 0001:0001adc0       ?Copy0F78@CDetourDisX86@@IAEPAEPBUCOPYENTRY@1@PAE1@Z 1001bdc0 f   disolx86.obj
 0001:0001ae10       ?Copy0FB8@CDetourDisX86@@IAEPAEPBUCOPYENTRY@1@PAE1@Z 1001be10 f   disolx86.obj
 0001:0001ae60       ?Copy66@CDetourDisX86@@IAEPAEPBUCOPYENTRY@1@PAE1@Z 1001be60 f   disolx86.obj
 0001:0001ae90       ?Copy67@CDetourDisX86@@IAEPAEPBUCOPYENTRY@1@PAE1@Z 1001be90 f   disolx86.obj
 0001:0001aec0       ?CopyF2@CDetourDisX86@@IAEPAEPBUCOPYENTRY@1@PAE1@Z 1001bec0 f   disolx86.obj
 0001:0001aef0       ?CopyF3@CDetourDisX86@@IAEPAEPBUCOPYENTRY@1@PAE1@Z 1001bef0 f   disolx86.obj
 0001:0001af20       ?CopyF6@CDetourDisX86@@IAEPAEPBUCOPYENTRY@1@PAE1@Z 1001bf20 f   disolx86.obj
 0001:0001af70       ?CopyF7@CDetourDisX86@@IAEPAEPBUCOPYENTRY@1@PAE1@Z 1001bf70 f   disolx86.obj
 0001:0001afc0       ?CopyFF@CDetourDisX86@@IAEPAEPBUCOPYENTRY@1@PAE1@Z 1001bfc0 f   disolx86.obj
 0001:0001b0b0       ?CopyVex2@CDetourDisX86@@IAEPAEPBUCOPYENTRY@1@PAE1@Z 1001c0b0 f   disolx86.obj
 0001:0001b150       ?CopyVex3@CDetourDisX86@@IAEPAEPBUCOPYENTRY@1@PAE1@Z 1001c150 f   disolx86.obj
 0001:0001b220       ?CopyVexCommon@CDetourDisX86@@IAEPAEEPAE0@Z 1001c220 f   disolx86.obj
 0001:0001b5c0       _utf8_printf               1001c5c0 f   shell.obj
 0001:0001c580       _windirent_getenv          1001d580 f   shell.obj
 0001:0001c5e0       _opendir                   1001d5e0 f   shell.obj
 0001:0001c760       _readdir                   1001d760 f   shell.obj
 0001:0001c870       _readdir_r                 1001d870 f   shell.obj
 0001:0001c9d0       _closedir                  1001d9d0 f   shell.obj
 0001:00020e50       _sqlite3_shathree_init     10021e50 f   shell.obj
 0001:00022130       _sqlite3_fileio_init       10023130 f   shell.obj
 0001:00022ac0       _sqlite3CompletionVtabInit 10023ac0 f   shell.obj
 0001:00022af0       _sqlite3_completion_init   10023af0 f   shell.obj
 0001:000236b0       _sqlite3_appendvfs_init    100246b0 f   shell.obj
 0001:00023720       _sqlite3_expert_new        10024720 f   shell.obj
 0001:00023880       _sqlite3_expert_config     10024880 f   shell.obj
 0001:000238f0       _sqlite3_expert_sql        100248f0 f   shell.obj
 0001:00023a90       _sqlite3_expert_analyze    10024a90 f   shell.obj
 0001:00023b80       _sqlite3_expert_count      10024b80 f   shell.obj
 0001:00023bb0       _sqlite3_expert_report     10024bb0 f   shell.obj
 0001:00023c70       _sqlite3_expert_destroy    10024c70 f   shell.obj
 0001:000254f0       _idxFindIndexes            100264f0 f   shell.obj
 0001:0002de50       _shellDeleteFile           1002ee50 f   shell.obj
 0001:00035330       _wmain                     10036330 f   shell.obj
 0001:00036470       __snprintf                 10037470 f i shell.obj
 0001:000364b0       __vfprintf_l               100374b0 f i shell.obj
 0001:000364e0       __vsnprintf                100374e0 f i shell.obj
 0001:00036500       __vsnprintf_l              10037500 f i shell.obj
 0001:00036560       _fprintf                   10037560 f i shell.obj
 0001:000365a0       _printf                    100375a0 f i shell.obj
 0001:000365e0       _vfprintf                  100375e0 f i shell.obj
 0001:00036600       _DetourCopyInstruction@20  10037600 f   disasm.obj
 0001:00036630       _DetourSetCodeModule@8     10037630 f   disasm.obj
 0001:00036680       ??0CDetourDis@@QAE@PAPAEPAJ@Z 10037680 f   disasm.obj
 0001:00036730       ?CopyInstruction@CDetourDis@@QAEPAEPAE0@Z 10037730 f   disasm.obj
 0001:00036790       ?SanityCheckSystem@CDetourDis@@SAHXZ 10037790 f   disasm.obj
 0001:00036850       ?SetCodeModule@CDetourDis@@SAHPAE0H@Z 10037850 f   disasm.obj
 0001:00036880       ?CopyBytes@CDetourDis@@IAEPAEPBUCOPYENTRY@1@PAE1@Z 10037880 f   disasm.obj
 0001:00036a40       ?CopyBytesPrefix@CDetourDis@@IAEPAEPBUCOPYENTRY@1@PAE1@Z 10037a40 f   disasm.obj
 0001:00036ab0       ?CopyBytesSegment@CDetourDis@@IAEPAEPBUCOPYENTRY@1@PAE1@Z 10037ab0 f   disasm.obj
 0001:00036af0       ?CopyBytesRax@CDetourDis@@IAEPAEPBUCOPYENTRY@1@PAE1@Z 10037af0 f   disasm.obj
 0001:00036b30       ?CopyBytesJump@CDetourDis@@IAEPAEPBUCOPYENTRY@1@PAE1@Z 10037b30 f   disasm.obj
 0001:00036c50       ?Invalid@CDetourDis@@IAEPAEPBUCOPYENTRY@1@PAE1@Z 10037c50 f   disasm.obj
 0001:00036c70       ?AdjustTarget@CDetourDis@@IAEPAEPAE0III@Z 10037c70 f   disasm.obj
 0001:00036d80       ?Copy0F@CDetourDis@@IAEPAEPBUCOPYENTRY@1@PAE1@Z 10037d80 f   disasm.obj
 0001:00036df0       ?Copy0F00@CDetourDis@@IAEPAEPBUCOPYENTRY@1@PAE1@Z 10037df0 f   disasm.obj
 0001:00036e50       ?Copy0F78@CDetourDis@@IAEPAEPBUCOPYENTRY@1@PAE1@Z 10037e50 f   disasm.obj
 0001:00036ea0       ?Copy0FB8@CDetourDis@@IAEPAEPBUCOPYENTRY@1@PAE1@Z 10037ea0 f   disasm.obj
 0001:00036ef0       ?Copy66@CDetourDis@@IAEPAEPBUCOPYENTRY@1@PAE1@Z 10037ef0 f   disasm.obj
 0001:00036f20       ?Copy67@CDetourDis@@IAEPAEPBUCOPYENTRY@1@PAE1@Z 10037f20 f   disasm.obj
 0001:00036f50       ?CopyF2@CDetourDis@@IAEPAEPBUCOPYENTRY@1@PAE1@Z 10037f50 f   disasm.obj
 0001:00036f80       ?CopyF3@CDetourDis@@IAEPAEPBUCOPYENTRY@1@PAE1@Z 10037f80 f   disasm.obj
 0001:00036fb0       ?CopyF6@CDetourDis@@IAEPAEPBUCOPYENTRY@1@PAE1@Z 10037fb0 f   disasm.obj
 0001:00037000       ?CopyF7@CDetourDis@@IAEPAEPBUCOPYENTRY@1@PAE1@Z 10038000 f   disasm.obj
 0001:00037050       ?CopyFF@CDetourDis@@IAEPAEPBUCOPYENTRY@1@PAE1@Z 10038050 f   disasm.obj
 0001:00037140       ?CopyVex2@CDetourDis@@IAEPAEPBUCOPYENTRY@1@PAE1@Z 10038140 f   disasm.obj
 0001:000371e0       ?CopyVex3@CDetourDis@@IAEPAEPBUCOPYENTRY@1@PAE1@Z 100381e0 f   disasm.obj
 0001:000372b0       ?CopyVexCommon@CDetourDis@@IAEPAEEPAE0@Z 100382b0 f   disasm.obj
 0001:00037380       ?NormaliseViewAngle@MiscFunctions@@YAXAAVVector@@@Z 10038380 f   MiscFunctions.obj
 0001:000374c0       ?IsVisible@MiscFunctions@@YA_NPAVC_BaseEntity@@0H@Z 100384c0 f   MiscFunctions.obj
 0001:00037570       ?IsVisiblePoint@MiscFunctions@@YA_NPAVC_BaseEntity@@VVector@@@Z 10038570 f   MiscFunctions.obj
 0001:000375e0       ?IsKnife@MiscFunctions@@YA_NPAX@Z 100385e0 f   MiscFunctions.obj
 0001:00037640       ?IsPistol@MiscFunctions@@YA_NPAX@Z 10038640 f   MiscFunctions.obj
 0001:000376f0       ?IsSniper@MiscFunctions@@YA_NPAX@Z 100386f0 f   MiscFunctions.obj
 0001:00037760       ?IsGrenade@MiscFunctions@@YA_NPAX@Z 10038760 f   MiscFunctions.obj
 0001:000377e0       ?IsRifle@MiscFunctions@@YA_NPAX@Z 100387e0 f   MiscFunctions.obj
 0001:00037870       ?IsSmg@MiscFunctions@@YA_NPAX@Z 10038870 f   MiscFunctions.obj
 0001:000378f0       ?IsHeavy@MiscFunctions@@YA_NPAX@Z 100388f0 f   MiscFunctions.obj
 0001:00037970       ?UTIL_TraceLine@@YAXABVVector@@0IPAVC_BaseEntity@@HPAVCGameTrace@@@Z 10038970 f   MiscFunctions.obj
 0001:000379c0       ?UTIL_ClipTraceToPlayers@@YAXPAVC_BaseEntity@@VVector@@1IPAVITraceFilter@@PAVCGameTrace@@@Z 100389c0 f   MiscFunctions.obj
 0001:00037aa0       ?IsBreakableEntity@@YA_NPAVC_BaseEntity@@@Z 10038aa0 f   MiscFunctions.obj
 0001:00037af0       ?TraceToExit@@YA_NAAVVector@@AAVCGameTrace@@V1@2PAV2@@Z 10038af0 f   MiscFunctions.obj
 0001:00037c10       ?SayInChat@@YAXPBD@Z       10038c10 f   MiscFunctions.obj
 0001:00037c50       ?GetHitboxPosition@@YA?AVVector@@PAVC_BaseEntity@@H@Z 10038c50 f   MiscFunctions.obj
 0001:00037e00       ?GetHitboxPositionFromMatrix@@YA?AVVector@@PAVC_BaseEntity@@QAY123MH@Z 10038e00 f   MiscFunctions.obj
 0001:00037f50       ?DidHitNonWorldEntity@@YA_NPAVC_BaseEntity@@@Z 10038f50 f   MiscFunctions.obj
 0001:00037f90       ?GenerateRandomFloat@@YAMMM@Z 10038f90 f   MiscFunctions.obj
 0001:00037fd0       ??$sprintf_s@$0PK@@@YAHAAY0PK@DPBDZZ 10038fd0 f i MiscFunctions.obj
 0001:00038000       ??0CBaseTrace@@QAE@XZ      10039000 f i MiscFunctions.obj
 0001:00038030       ??0CGameTrace@@QAE@XZ      10039030 f i MiscFunctions.obj
 0001:00038050       ??0CTraceFilter@@QAE@XZ    10039050 f i MiscFunctions.obj
 0001:00038070       ??0ITraceFilter@@QAE@XZ    10039070 f i MiscFunctions.obj
 0001:00038090       ??0Ray_t@@QAE@XZ           10039090 f i MiscFunctions.obj
 0001:000380e0       ??0Vector@@QAE@MMM@Z       100390e0 f i MiscFunctions.obj
 0001:00038120       ??0VectorAligned@@QAE@ABVVector@@@Z 10039120 f i MiscFunctions.obj
 0001:00038160       ??0VectorAligned@@QAE@XZ   10039160 f i MiscFunctions.obj
 0001:000381a0       ??0cplane_t@@QAE@XZ        100391a0 f i MiscFunctions.obj
 0001:000381a0       ??0misc@@QAE@XZ            100391a0 f i Hooks.obj
 0001:000381c0       ??4CBaseTrace@@QAEAAV0@ABV0@@Z 100391c0 f i MiscFunctions.obj
 0001:00038240       ??4CGameTrace@@QAEAAV0@ABV0@@Z 10039240 f i MiscFunctions.obj
 0001:000382f0       ??4Vector@@QAEAAV0@ABV0@@Z 100392f0 f i MiscFunctions.obj
 0001:00038330       ??4VectorAligned@@QAEAAV0@$$QAV0@@Z 10039330 f i MiscFunctions.obj
 0001:00038360       ??4cplane_t@@QAEAAU0@ABU0@@Z 10039360 f i MiscFunctions.obj
 0001:000383d0       ??DVector@@QBE?AV0@M@Z     100393d0 f i MiscFunctions.obj
 0001:00038420       ??GVector@@QBE?AV0@ABV0@@Z 10039420 f i MiscFunctions.obj
 0001:00038470       ??HVector@@QBE?AV0@ABV0@@Z 10039470 f i MiscFunctions.obj
 0001:000384c0       ?ClientCmd_Unrestricted@IVEngineClient@@QAEXPBD@Z 100394c0 f i MiscFunctions.obj
 0001:000384f0       ?ClipRayToEntity@IEngineTrace@@QAEXABURay_t@@IPAVC_BaseEntity@@PAVCGameTrace@@@Z 100394f0 f i MiscFunctions.obj
 0001:00038520       ?GetHealth@C_BaseEntity@@QAEHXZ 10039520 f i MiscFunctions.obj
 0001:00038540       ?GetHitbox@mstudiohitboxset_t@@QBEPAUmstudiobbox_t@@H@Z 10039540 f i MiscFunctions.obj
 0001:00038560       ?GetHitboxSet@studiohdr_t@@QBEPAUmstudiohitboxset_t@@H@Z 10039560 f i MiscFunctions.obj
 0001:00038590       ?GetLifeState@C_BaseEntity@@QAEEXZ 10039590 f i MiscFunctions.obj
 0001:000385b0       ?GetOrigin@C_BaseEntity@@QAE?AVVector@@XZ 100395b0 f i MiscFunctions.obj
 0001:000385e0       ?GetSimulationTime@C_BaseEntity@@QAEMXZ 100395e0 f i MiscFunctions.obj
 0001:00038600       ?GetStudiomodel@CModelInfo@@QAEPAUstudiohdr_t@@PBUmodel_t@@@Z 10039600 f i MiscFunctions.obj
 0001:00038630       ?GetTraceType@CTraceFilter@@UBE?AW4TraceType_t@@XZ 10039630 f i MiscFunctions.obj
 0001:00038630       ?GetTraceType@CTraceFilterWorldAndPropsOnly@@UBE?AW4TraceType_t@@XZ 10039630 f i GrenadePrediction.obj
 0001:00038640       ?GetViewOffset@C_BaseEntity@@QAE?AVVector@@XZ 10039640 f i MiscFunctions.obj
 0001:00038670       ?Init@Ray_t@@QAEXABVVector@@0@Z 10039670 f i MiscFunctions.obj
 0001:00038750       ?IsAlive@C_BaseEntity@@QAE_NXZ 10039750 f i MiscFunctions.obj
 0001:00038790       ?LengthSqr@Vector@@QBEMXZ  10039790 f i MiscFunctions.obj
 0001:000387e0       ?SetupBones@IClientRenderable@@QAE_NPAY123MHHM@Z 100397e0 f i MiscFunctions.obj
 0001:00038820       ?ShouldHitEntity@CTraceFilter@@UAE_NPAVC_BaseEntity@@H@Z 10039820 f i MiscFunctions.obj
 0001:00038850       ?TraceRay@IEngineTrace@@QAEXABURay_t@@IPAVITraceFilter@@PAVCGameTrace@@@Z 10039850 f i MiscFunctions.obj
 0001:00038880       ?VectorAdd@@YAXABVVector@@0AAV1@@Z 10039880 f i MiscFunctions.obj
 0001:000388d0       ?VectorMultiply@@YAXABVVector@@MAAV1@@Z 100398d0 f i MiscFunctions.obj
 0001:00038920       ?VectorSubtract@@YAXABVVector@@0AAV1@@Z 10039920 f i MiscFunctions.obj
 0001:00038970       _vsprintf_s                10039970 f i MiscFunctions.obj
 0001:000389b0       ?RenderInterface@@YAXXZ    100399b0 f   Hooks.obj
 0001:00038e10       ?initialize@hooks@@YAXXZ   10039e10 f   Hooks.obj
 0001:00039030       ?cleanup@hooks@@YAXXZ      1003a030 f   Hooks.obj
 0001:000390c0       ?CHLCreateMove@@YGXHM_NAA_N@Z 1003a0c0 f   Hooks.obj
 0001:00039480       ?hkCreateMove@@YGXHM_N@Z   1003a480 f   Hooks.obj
 0001:000394a0       ?hkFrameStageNotify@@YGXW4ClientFrameStage_t@@@Z 1003a4a0 f   Hooks.obj
 0001:00039620       ?GetCurrentMaterial@@YAPAVIMaterial@@H@Z 1003a620 f   Hooks.obj
 0001:00039640       ?GetCurrentZMaterial@@YAPAVIMaterial@@H@Z 1003a640 f   Hooks.obj
 0001:00039660       ?hkDrawModelExecute@@YIXPAXH00ABUModelRenderInfo_t@@PAY123M@Z 1003a660 f   Hooks.obj
 0001:00039ef0       ?hkPaintTraverse@@YIXPAXHI_N1@Z 1003aef0 f   Hooks.obj
 0001:0003a180       ?hkInPrediction@@YG_NXZ    1003b180 f   Hooks.obj
 0001:0003a2f0       ?hkGetViewModelFOV@@YIMPAX0@Z 1003b2f0 f   Hooks.obj
 0001:0003a390       ?hkOverrideView@@YIXPAX0PAUCViewSetup@@@Z 1003b390 f   Hooks.obj
 0001:0003a4b0       ?OnScreenSizeChanged@@YGXHH@Z 1003b4b0 f   Hooks.obj
 0001:0003a4e0       ?hkFireEventClientSide@@YI_NPAX0PAVIGameEvent@@@Z 1003b4e0 f   Hooks.obj
 0001:0003a580       ?hkSvCheatsGetBool@@YI_NPAX0@Z 1003b580 f   Hooks.obj
 0001:0003a640       ?RenderDefault@@YAXPAUIDirect3DDevice9@@@Z 1003b640 f   Hooks.obj
 0001:0003b510       ?hkReset@@YGJPAUIDirect3DDevice9@@PAU_D3DPRESENT_PARAMETERS_@@@Z 1003c510 f   Hooks.obj
 0001:0003b5a0       ?hkPresent@@YGJPAUIDirect3DDevice9@@PAUtagRECT@@1PAUHWND__@@PAU_RGNDATA@@@Z 1003c5a0 f   Hooks.obj
 0001:0003b6b0       ?hkPlaySound@@YGXPBD@Z     1003c6b0 f   Hooks.obj
 0001:0003b7f0       ?hkDoPostScreenSpaceEffects@@YI_NPAX0PAUCViewSetup@@@Z 1003c7f0 f   Hooks.obj
 0001:0003b980       ?hkFindMDL@@YIGPAX0PBD@Z   1003c980 f   Hooks.obj
 0001:0003ba30       ?hkIsHltv@@YI_NPAX0@Z      1003ca30 f   Hooks.obj
 0001:0003bb80       ?IsConnected@@YG_NXZ       1003cb80 f   Hooks.obj
 0001:0003bc50       ??$?0$$V@?$_Compressed_pair@V?$allocator@PAV?$ConfigValue@H@@@std@@V?$_Vector_val@U?$_Simple_types@PAV?$ConfigValue@H@@@std@@@2@$00@std@@QAE@U_Zero_then_variadic_args_t@1@@Z 1003cc50 f i Configuration.obj
 0001:0003bc50       ??$?0$$V@?$_Compressed_pair@V?$allocator@PAV?$ConfigValue@M@@@std@@V?$_Vector_val@U?$_Simple_types@PAV?$ConfigValue@M@@@std@@@2@$00@std@@QAE@U_Zero_then_variadic_args_t@1@@Z 1003cc50 f i Configuration.obj
 0001:0003bc50       ??$?0$$V@?$_Compressed_pair@V?$allocator@V?$basic_string@DU?$char_traits@D@std@@V?$allocator@D@2@@std@@@std@@V?$_Vector_val@U?$_Simple_types@V?$basic_string@DU?$char_traits@D@std@@V?$allocator@D@2@@std@@@std@@@2@$00@std@@QAE@U_Zero_then_variadic_args_t@1@@Z 1003cc50 f i ESP.obj
 0001:0003bc50       ??$?0$$V@?$_Compressed_pair@V?$allocator@PAURecvTable@@@std@@V?$_Vector_val@U?$_Simple_types@PAURecvTable@@@std@@@2@$00@std@@QAE@U_Zero_then_variadic_args_t@1@@Z 1003cc50 f i NetVarManager.obj
 0001:0003bc50       ??$?0$$V@?$_Compressed_pair@V?$allocator@PAVIGameEventListener2@@@std@@V?$_Vector_val@U?$_Simple_types@PAVIGameEventListener2@@@std@@@2@$00@std@@QAE@U_Zero_then_variadic_args_t@1@@Z 1003cc50 f i Hooks.obj
 0001:0003bc50       ??$?0$$V@?$_Compressed_pair@V?$allocator@H@std@@V?$_Vector_val@U?$_Simple_types@H@std@@@2@$00@std@@QAE@U_Zero_then_variadic_args_t@1@@Z 1003cc50 f i Utilities.obj
 0001:0003bc50       ??$?0$$V@?$_Compressed_pair@V?$allocator@PAV?$ConfigValue@_N@@@std@@V?$_Vector_val@U?$_Simple_types@PAV?$ConfigValue@_N@@@std@@@2@$00@std@@QAE@U_Zero_then_variadic_args_t@1@@Z 1003cc50 f i Configuration.obj
 0001:0003bc50       ??$?0$$V@?$_Compressed_pair@V?$allocator@VVector@@@std@@V?$_Vector_val@U?$_Simple_types@VVector@@@std@@@2@$00@std@@QAE@U_Zero_then_variadic_args_t@1@@Z 1003cc50 f i Hooks.obj
 0001:0003bc70       ??$?0$0A@$00$01$02$03$04$05$06$07$08$09$0L@$0M@$0N@$0O@$0P@$0BA@$0BB@$0BC@$0BD@$0BE@$0BF@$0BG@$0BH@$0BI@$0BJ@$0BK@$0BL@$0BM@$0BN@$0BO@$0BP@$0CA@$0CB@$0CC@$0CD@$0CE@$0CF@$0CG@$0CH@$0CI@$0CJ@@?$XorString@$0CK@$0BA@@XorCompileTime@@QAE@PBDU?$integer_sequence@I$0A@$00$01$02$03$04$05$06$07$08$09$0L@$0M@$0N@$0O@$0P@$0BA@$0BB@$0BC@$0BD@$0BE@$0BF@$0BG@$0BH@$0BI@$0BJ@$0BK@$0BL@$0BM@$0BN@$0BO@$0BP@$0CA@$0CB@$0CC@$0CD@$0CE@$0CF@$0CG@$0CH@$0CI@$0CJ@@std@@@Z 1003cc70 f i Hooks.obj
 0001:0003c180       ??$?0$0A@$00$01$02$03$04$05$06$07$08$09$0L@$0M@$0N@$0O@$0P@$0BA@$0BB@$0BC@$0BD@$0BE@$0BF@$0BG@$0BH@$0BI@$0BJ@$0BK@$0BL@$0BM@$0BN@$0BO@$0BP@$0CA@$0CB@$0CC@$0CD@$0CE@$0CF@$0CG@$0CH@@?$XorString@$0CI@$0O@@XorCompileTime@@QAE@PBDU?$integer_sequence@I$0A@$00$01$02$03$04$05$06$07$08$09$0L@$0M@$0N@$0O@$0P@$0BA@$0BB@$0BC@$0BD@$0BE@$0BF@$0BG@$0BH@$0BI@$0BJ@$0BK@$0BL@$0BM@$0BN@$0BO@$0BP@$0CA@$0CB@$0CC@$0CD@$0CE@$0CF@$0CG@$0CH@@std@@@Z 1003d180 f i Hooks.obj
 0001:0003c650       ??$?0$0A@$00$01$02$03$04$05$06$07$08$09$0L@$0M@$0N@$0O@$0P@$0BA@$0BB@$0BC@$0BD@$0BE@$0BF@$0BG@@?$XorString@$0BH@$0N@@XorCompileTime@@QAE@PBDU?$integer_sequence@I$0A@$00$01$02$03$04$05$06$07$08$09$0L@$0M@$0N@$0O@$0P@$0BA@$0BB@$0BC@$0BD@$0BE@$0BF@$0BG@@std@@@Z 1003d650 f i Hooks.obj
 0001:0003c930       ??$?0$0A@$00$01$02$03$04$05$06$07$08$09$0L@$0M@$0N@$0O@$0P@$0BA@$0BB@$0BC@$0BD@$0BE@$0BF@$0BG@@?$XorString@$0BH@$0P@@XorCompileTime@@QAE@PBDU?$integer_sequence@I$0A@$00$01$02$03$04$05$06$07$08$09$0L@$0M@$0N@$0O@$0P@$0BA@$0BB@$0BC@$0BD@$0BE@$0BF@$0BG@@std@@@Z 1003d930 f i Hooks.obj
 0001:0003cc10       ??$?0$0A@$00$01$02$03$04$05$06$07$08$09$0L@$0M@$0N@$0O@$0P@@?$XorString@$0BA@$0M@@XorCompileTime@@QAE@PBDU?$integer_sequence@I$0A@$00$01$02$03$04$05$06$07$08$09$0L@$0M@$0N@$0O@$0P@@std@@@Z 1003dc10 f i Hooks.obj
 0001:0003ce10       ??$?0$0A@$00$01$02$03$04$05$06$07$08$09$0L@$0M@$0N@$0O@@?$XorString@$0P@$06@XorCompileTime@@QAE@PBDU?$integer_sequence@I$0A@$00$01$02$03$04$05$06$07$08$09$0L@$0M@$0N@$0O@@std@@@Z 1003de10 f i Hooks.obj
 0001:0003d000       ??$?0$0A@$00$01$02$03$04$05$06$07$08$09$0L@@?$XorString@$0M@$04@XorCompileTime@@QAE@PBDU?$integer_sequence@I$0A@$00$01$02$03$04$05$06$07$08$09$0L@@std@@@Z 1003e000 f i Hooks.obj
 0001:0003d190       ??$?0$0A@$00$01$02$03$04$05$06$07$08$09@?$XorString@$0L@$08@XorCompileTime@@QAE@PBDU?$integer_sequence@I$0A@$00$01$02$03$04$05$06$07$08$09@std@@@Z 1003e190 f i Hooks.obj
 0001:0003d300       ??$?0$0A@$00$01$02$03$04$05$06$07$08$09@?$XorString@$0L@$09@XorCompileTime@@QAE@PBDU?$integer_sequence@I$0A@$00$01$02$03$04$05$06$07$08$09@std@@@Z 1003e300 f i Hooks.obj
 0001:0003d470       ??$?0$0A@$00$01$02$03$04$05$06$07$08@?$XorString@$09$07@XorCompileTime@@QAE@PBDU?$integer_sequence@I$0A@$00$01$02$03$04$05$06$07$08@std@@@Z 1003e470 f i Hooks.obj
 0001:0003d5c0       ??$?0$0A@$00$01$02$03$04$05$06$07@?$XorString@$08$00@XorCompileTime@@QAE@PBDU?$integer_sequence@I$0A@$00$01$02$03$04$05$06$07@std@@@Z 1003e5c0 f i Hooks.obj
 0001:0003d6f0       ??$?0$0A@$00$01$02$03$04$05$06$07@?$XorString@$08$0L@@XorCompileTime@@QAE@PBDU?$integer_sequence@I$0A@$00$01$02$03$04$05$06$07@std@@@Z 1003e6f0 f i Hooks.obj
 0001:0003d820       ??$?0$0A@$00$01$02$03$04$05$06@?$XorString@$07$02@XorCompileTime@@QAE@PBDU?$integer_sequence@I$0A@$00$01$02$03$04$05$06@std@@@Z 1003e820 f i Hooks.obj
 0001:0003d930       ??$?0$0A@$00$01$02$03$04$05$06@?$XorString@$07$05@XorCompileTime@@QAE@PBDU?$integer_sequence@I$0A@$00$01$02$03$04$05$06@std@@@Z 1003e930 f i Hooks.obj
 0001:0003da40       ??$?0$0A@$00$01$02$03$04$05@?$XorString@$06$0A@@XorCompileTime@@QAE@PBDU?$integer_sequence@I$0A@$00$01$02$03$04$05@std@@@Z 1003ea40 f i Hooks.obj
 0001:0003db40       ??$?0$0A@$00$01$02$03@?$XorString@$04$03@XorCompileTime@@QAE@PBDU?$integer_sequence@I$0A@$00$01$02$03@std@@@Z 1003eb40 f i Hooks.obj
 0001:0003dc00       ??$?0$S@?$XorString@$0A@$01@XorCompileTime@@QAE@PBDU?$integer_sequence@I$S@std@@@Z 1003ec00 f i Hooks.obj
 0001:0003dc20       ??$GetVirtualFunction@P6EPAVCUserCmd@CInput@@PAXHH@Z@@YAP6EPAVCUserCmd@CInput@@PAXHH@Z0K@Z 1003ec20 f i Hooks.obj
 0001:0003dc30       ??$_Destroy_range@V?$allocator@PAV?$ConfigValue@_N@@@std@@@std@@YAXPAPAV?$ConfigValue@_N@@0AAV?$allocator@PAV?$ConfigValue@_N@@@0@@Z 1003ec30 f i Configuration.obj
 0001:0003dc30       ??$_Destroy_range@V?$allocator@VVector@@@std@@@std@@YAXPAVVector@@0AAV?$allocator@VVector@@@0@@Z 1003ec30 f i Hooks.obj
 0001:0003dc30       ??$_Destroy_range@V?$allocator@H@std@@@std@@YAXPAH0AAV?$allocator@H@0@@Z 1003ec30 f i Utilities.obj
 0001:0003dc30       ??$_Destroy_range@V?$allocator@PAVIGameEventListener2@@@std@@@std@@YAXPAPAVIGameEventListener2@@0AAV?$allocator@PAVIGameEventListener2@@@0@@Z 1003ec30 f i Hooks.obj
 0001:0003dc30       ??$_Destroy_range@V?$allocator@PAV?$ConfigValue@M@@@std@@@std@@YAXPAPAV?$ConfigValue@M@@0AAV?$allocator@PAV?$ConfigValue@M@@@0@@Z 1003ec30 f i Configuration.obj
 0001:0003dc30       ??$_Destroy_range@V?$allocator@PAV?$ConfigValue@H@@@std@@@std@@YAXPAPAV?$ConfigValue@H@@0AAV?$allocator@PAV?$ConfigValue@H@@@0@@Z 1003ec30 f i Configuration.obj
 0001:0003dc30       ??$_Destroy_range@V?$allocator@PAURecvTable@@@std@@@std@@YAXPAPAURecvTable@@0AAV?$allocator@PAURecvTable@@@0@@Z 1003ec30 f i NetVarManager.obj
 0001:0003dc60       ??$get_original@P6E_NPAXPAUCViewSetup@@@Z@vfunc_hook@@QAEP6E_NPAXPAUCViewSetup@@@ZH@Z 1003ec60 f i Hooks.obj
 0001:0003dc60       ??$get_original@P6EXPAX00ABUModelRenderInfo_t@@PAY123M@Z@vfunc_hook@@QAEP6EXPAX00ABUModelRenderInfo_t@@PAY123M@ZH@Z 1003ec60 f i Hooks.obj
 0001:0003dc60       ??$get_original@P6EXPAVIBaseClientDLL@@HM_N@Z@vfunc_hook@@QAEP6EXPAVIBaseClientDLL@@HM_N@ZH@Z 1003ec60 f i Hooks.obj
 0001:0003dc60       ??$get_original@P6EMPAX@Z@vfunc_hook@@QAEP6EMPAX@ZH@Z 1003ec60 f i Hooks.obj
 0001:0003dc60       ??$get_original@P6E_NPAX@Z@vfunc_hook@@QAEP6E_NPAX@ZH@Z 1003ec60 f i Hooks.obj
 0001:0003dc60       ??$get_original@P6GXW4ClientFrameStage_t@@@Z@vfunc_hook@@QAEP6GXW4ClientFrameStage_t@@@ZH@Z 1003ec60 f i Hooks.obj
 0001:0003dc60       ??$get_original@P6E_NPAVIVEngineClient@@@Z@vfunc_hook@@QAEP6E_NPAVIVEngineClient@@@ZH@Z 1003ec60 f i Hooks.obj
 0001:0003dc60       ??$get_original@P6EXPAXI_N1@Z@vfunc_hook@@QAEP6EXPAXI_N1@ZH@Z 1003ec60 f i Hooks.obj
 0001:0003dc60       ??$get_original@P6EXPAXPBD@Z@vfunc_hook@@QAEP6EXPAXPBD@ZH@Z 1003ec60 f i Hooks.obj
 0001:0003dc60       ??$get_original@P6EXPAXPAUCViewSetup@@@Z@vfunc_hook@@QAEP6EXPAXPAUCViewSetup@@@ZH@Z 1003ec60 f i Hooks.obj
 0001:0003dc80       ??$hook_index@P6I_NPAX0PAUCViewSetup@@@Z@vfunc_hook@@QAEXHP6I_NPAX0PAUCViewSetup@@@Z@Z 1003ec80 f i Hooks.obj
 0001:0003dc80       ??$hook_index@P6IXPAXHI_N1@Z@vfunc_hook@@QAEXHP6IXPAXHI_N1@Z@Z 1003ec80 f i Hooks.obj
 0001:0003dc80       ??$hook_index@P6GXW4ClientFrameStage_t@@@Z@vfunc_hook@@QAEXHP6GXW4ClientFrameStage_t@@@Z@Z 1003ec80 f i Hooks.obj
 0001:0003dc80       ??$hook_index@P6GXPBD@Z@vfunc_hook@@QAEXHP6GXPBD@Z@Z 1003ec80 f i Hooks.obj
 0001:0003dc80       ??$hook_index@P6IXPAXH00ABUModelRenderInfo_t@@PAY123M@Z@vfunc_hook@@QAEXHP6IXPAXH00ABUModelRenderInfo_t@@PAY123M@Z@Z 1003ec80 f i Hooks.obj
 0001:0003dc80       ??$hook_index@P6G_NXZ@vfunc_hook@@QAEXHP6G_NXZ@Z 1003ec80 f i Hooks.obj
 0001:0003dc80       ??$hook_index@P6GXHM_N@Z@vfunc_hook@@QAEXHP6GXHM_N@Z@Z 1003ec80 f i Hooks.obj
 0001:0003dc80       ??$hook_index@P6IMPAX0@Z@vfunc_hook@@QAEXHP6IMPAX0@Z@Z 1003ec80 f i Hooks.obj
 0001:0003dc80       ??$hook_index@P6IXPAX0PAUCViewSetup@@@Z@vfunc_hook@@QAEXHP6IXPAX0PAUCViewSetup@@@Z@Z 1003ec80 f i Hooks.obj
 0001:0003dc80       ??$hook_index@P6I_NPAX0@Z@vfunc_hook@@QAEXHP6I_NPAX0@Z@Z 1003ec80 f i Hooks.obj
 0001:0003dca0       ??0?$_Vector_alloc@U?$_Vec_base_types@V?$basic_string@DU?$char_traits@D@std@@V?$allocator@D@2@@std@@V?$allocator@V?$basic_string@DU?$char_traits@D@std@@V?$allocator@D@2@@std@@@2@@std@@@std@@QAE@XZ 1003eca0 f i ESP.obj
 0001:0003dca0       ??0?$_Vector_alloc@U?$_Vec_base_types@PAV?$ConfigValue@M@@V?$allocator@PAV?$ConfigValue@M@@@std@@@std@@@std@@QAE@XZ 1003eca0 f i Configuration.obj
 0001:0003dca0       ??0?$_Vector_alloc@U?$_Vec_base_types@PAVIGameEventListener2@@V?$allocator@PAVIGameEventListener2@@@std@@@std@@@std@@QAE@XZ 1003eca0 f i Hooks.obj
 0001:0003dca0       ??0?$_Vector_alloc@U?$_Vec_base_types@PAV?$ConfigValue@H@@V?$allocator@PAV?$ConfigValue@H@@@std@@@std@@@std@@QAE@XZ 1003eca0 f i Configuration.obj
 0001:0003dca0       ??0?$_Vector_alloc@U?$_Vec_base_types@PAV?$ConfigValue@_N@@V?$allocator@PAV?$ConfigValue@_N@@@std@@@std@@@std@@QAE@XZ 1003eca0 f i Configuration.obj
 0001:0003dca0       ??0?$_Vector_alloc@U?$_Vec_base_types@PAURecvTable@@V?$allocator@PAURecvTable@@@std@@@std@@@std@@QAE@XZ 1003eca0 f i NetVarManager.obj
 0001:0003dca0       ??0?$_Vector_alloc@U?$_Vec_base_types@VVector@@V?$allocator@VVector@@@std@@@std@@@std@@QAE@XZ 1003eca0 f i Hooks.obj
 0001:0003dca0       ??0?$_Vector_alloc@U?$_Vec_base_types@HV?$allocator@H@std@@@std@@@std@@QAE@XZ 1003eca0 f i Utilities.obj
 0001:0003dcc0       ??0?$_Vector_val@U?$_Simple_types@V?$basic_string@DU?$char_traits@D@std@@V?$allocator@D@2@@std@@@std@@@std@@QAE@XZ 1003ecc0 f i ESP.obj
 0001:0003dcc0       ??0?$_Vector_val@U?$_Simple_types@VVector@@@std@@@std@@QAE@XZ 1003ecc0 f i Hooks.obj
 0001:0003dcc0       ??0?$_Vector_val@U?$_Simple_types@PAV?$ConfigValue@M@@@std@@@std@@QAE@XZ 1003ecc0 f i Configuration.obj
 0001:0003dcc0       ??0?$_Vector_val@U?$_Simple_types@PAURecvTable@@@std@@@std@@QAE@XZ 1003ecc0 f i NetVarManager.obj
 0001:0003dcc0       ??0?$_Vector_val@U?$_Simple_types@PAVIGameEventListener2@@@std@@@std@@QAE@XZ 1003ecc0 f i Hooks.obj
 0001:0003dcc0       ??0?$_Vector_val@U?$_Simple_types@H@std@@@std@@QAE@XZ 1003ecc0 f i Utilities.obj
 0001:0003dcc0       ??0?$_Vector_val@U?$_Simple_types@PAV?$ConfigValue@_N@@@std@@@std@@QAE@XZ 1003ecc0 f i Configuration.obj
 0001:0003dcc0       ??0?$_Vector_val@U?$_Simple_types@PAV?$ConfigValue@H@@@std@@@std@@QAE@XZ 1003ecc0 f i Configuration.obj
 0001:0003dcf0       ??0?$vector@PAV?$ConfigValue@M@@V?$allocator@PAV?$ConfigValue@M@@@std@@@std@@QAE@XZ 1003ecf0 f i Configuration.obj
 0001:0003dcf0       ??0?$vector@VVector@@V?$allocator@VVector@@@std@@@std@@QAE@XZ 1003ecf0 f i Hooks.obj
 0001:0003dcf0       ??0?$vector@PAURecvTable@@V?$allocator@PAURecvTable@@@std@@@std@@QAE@XZ 1003ecf0 f i NetVarManager.obj
 0001:0003dcf0       ??0?$vector@PAV?$ConfigValue@_N@@V?$allocator@PAV?$ConfigValue@_N@@@std@@@std@@QAE@XZ 1003ecf0 f i Configuration.obj
 0001:0003dcf0       ??0?$vector@PAVIGameEventListener2@@V?$allocator@PAVIGameEventListener2@@@std@@@std@@QAE@XZ 1003ecf0 f i Hooks.obj
 0001:0003dcf0       ??0?$vector@HV?$allocator@H@std@@@std@@QAE@XZ 1003ecf0 f i Utilities.obj
 0001:0003dcf0       ??0?$vector@PAV?$ConfigValue@H@@V?$allocator@PAV?$ConfigValue@H@@@std@@@std@@QAE@XZ 1003ecf0 f i Configuration.obj
 0001:0003dcf0       ??0?$vector@V?$basic_string@DU?$char_traits@D@std@@V?$allocator@D@2@@std@@V?$allocator@V?$basic_string@DU?$char_traits@D@std@@V?$allocator@D@2@@std@@@2@@std@@QAE@XZ 1003ecf0 f i ESP.obj
 0001:0003dd30       ??0ImVec4@@QAE@MMMM@Z      1003ed30 f i Hooks.obj
 0001:0003dd80       ??0exception@std@@QAE@ABV01@@Z 1003ed80 f i Hooks.obj
 0001:0003ddc0       ??0exception@std@@QAE@QBD@Z 1003edc0 f i Hooks.obj
 0001:0003de10       ??0grenade_prediction@@QAE@XZ 1003ee10 f i Hooks.obj
 0001:0003de50       ??0protect_guard@detail@@QAE@PAXII@Z 1003ee50 f i Hooks.obj
 0001:0003deb0       ??0runtime_error@std@@QAE@ABV01@@Z 1003eeb0 f i Hooks.obj
 0001:0003dee0       ??0runtime_error@std@@QAE@PBD@Z 1003eee0 f i Hooks.obj
 0001:0003df10       ??1?$vector@PAV?$ConfigValue@_N@@V?$allocator@PAV?$ConfigValue@_N@@@std@@@std@@QAE@XZ 1003ef10 f i Configuration.obj
 0001:0003df10       ??1?$vector@PAVIGameEventListener2@@V?$allocator@PAVIGameEventListener2@@@std@@@std@@QAE@XZ 1003ef10 f i Hooks.obj
 0001:0003df10       ??1?$vector@PAV?$ConfigValue@M@@V?$allocator@PAV?$ConfigValue@M@@@std@@@std@@QAE@XZ 1003ef10 f i Configuration.obj
 0001:0003df10       ??1?$vector@HV?$allocator@H@std@@@std@@QAE@XZ 1003ef10 f i Utilities.obj
 0001:0003df10       ??1?$vector@PAV?$ConfigValue@H@@V?$allocator@PAV?$ConfigValue@H@@@std@@@std@@QAE@XZ 1003ef10 f i Configuration.obj
 0001:0003df50       ??1?$vector@VVector@@V?$allocator@VVector@@@std@@@std@@QAE@XZ 1003ef50 f i Hooks.obj
 0001:0003df90       ??1exception@std@@UAE@XZ   1003ef90 f i Hooks.obj
 0001:0003dfc0       ??1grenade_prediction@@QAE@XZ 1003efc0 f i Hooks.obj
 0001:0003dfe0       ??1protect_guard@detail@@QAE@XZ 1003efe0 f i Hooks.obj
 0001:0003e010       ??1bad_cast@std@@UAE@XZ    1003f010 f i Utilities.obj
 0001:0003e010       ??1runtime_error@std@@UAE@XZ 1003f010 f i Hooks.obj
 0001:0003e030       ??4CUserCmd@CInput@@QAEAAV01@ABV01@@Z 1003f030 f i Hooks.obj
 0001:0003e160       ??A?$CUtlMemory@VGlowObjectDefinition_t@CGlowObjectManager@@H@@QAEAAVGlowObjectDefinition_t@CGlowObjectManager@@H@Z 1003f160 f i Hooks.obj
 0001:0003e180       ??A?$CUtlVector@VGlowObjectDefinition_t@CGlowObjectManager@@V?$CUtlMemory@VGlowObjectDefinition_t@CGlowObjectManager@@H@@@@QAEAAVGlowObjectDefinition_t@CGlowObjectManager@@H@Z 1003f180 f i Hooks.obj
 0001:0003e1a0       ??A?$array@D$05@std@@QAEAADI@Z 1003f1a0 f i Hooks.obj
 0001:0003e1a0       ??A?$array@D$09@std@@QAEAADI@Z 1003f1a0 f i Hooks.obj
 0001:0003e1a0       ??A?$array@D$0L@@std@@QAEAADI@Z 1003f1a0 f i Hooks.obj
 0001:0003e1a0       ??A?$array@D$0CJ@@std@@QAEAADI@Z 1003f1a0 f i Hooks.obj
 0001:0003e1a0       ??A?$array@D$0BB@@std@@QAEAADI@Z 1003f1a0 f i Hooks.obj
 0001:0003e1a0       ??A?$array@D$0CL@@std@@QAEAADI@Z 1003f1a0 f i Hooks.obj
 0001:0003e1a0       ??A?$array@D$08@std@@QAEAADI@Z 1003f1a0 f i Hooks.obj
 0001:0003e1a0       ??A?$array@D$0N@@std@@QAEAADI@Z 1003f1a0 f i Hooks.obj
 0001:0003e1a0       ??A?$array@D$0BI@@std@@QAEAADI@Z 1003f1a0 f i Hooks.obj
 0001:0003e1a0       ??A?$array@D$07@std@@QAEAADI@Z 1003f1a0 f i Hooks.obj
 0001:0003e1a0       ??A?$array@D$00@std@@QAEAADI@Z 1003f1a0 f i Hooks.obj
 0001:0003e1a0       ??A?$array@D$0M@@std@@QAEAADI@Z 1003f1a0 f i Hooks.obj
 0001:0003e1a0       ??A?$array@D$0BA@@std@@QAEAADI@Z 1003f1a0 f i Hooks.obj
 0001:0003e1c0       ??_GRenderer@@QAEPAXI@Z    1003f1c0 f i Hooks.obj
 0001:0003e1f0       ??_Eexception@std@@UAEPAXI@Z 1003f1f0 f i Hooks.obj
 0001:0003e1f0       ??_Gexception@std@@UAEPAXI@Z 1003f1f0 f i Hooks.obj
 0001:0003e220       ??_Gbad_cast@std@@UAEPAXI@Z 1003f220 f i Utilities.obj
 0001:0003e220       ??_Ebad_cast@std@@UAEPAXI@Z 1003f220 f i Utilities.obj
 0001:0003e220       ??_Gruntime_error@std@@UAEPAXI@Z 1003f220 f i Hooks.obj
 0001:0003e220       ??_Eruntime_error@std@@UAEPAXI@Z 1003f220 f i Hooks.obj
 0001:0003e250       ?CRC32_Final@@YAXPAK@Z     1003f250 f i Hooks.obj
 0001:0003e270       ?CRC32_Init@@YAXPAK@Z      1003f270 f i Hooks.obj
 0001:0003e280       ?CRC32_ProcessBuffer@@YAXPAKPBXH@Z 1003f280 f i Hooks.obj
 0001:0003e5c0       ?Count@?$CUtlVector@VGlowObjectDefinition_t@CGlowObjectManager@@V?$CUtlMemory@VGlowObjectDefinition_t@CGlowObjectManager@@H@@@@QBEHXZ 1003f5c0 f i Hooks.obj
 0001:0003e5e0       ?FindMaterial@CMaterialSystem@@QAEPAVIMaterial@@PBD0_N0@Z 1003f5e0 f i Hooks.obj
 0001:0003e620       ?GetActiveWeaponHandle@C_BaseEntity@@QAEPAXXZ 1003f620 f i Hooks.obj
 0001:0003e640       ?GetChecksum@CUserCmd@CInput@@QBEKXZ 1003f640 f i Hooks.obj
 0001:0003e790       ?GetInt@IGameEvent@@QAEHPBDH@Z 1003f790 f i Hooks.obj
 0001:0003e7c0       ?GetModelName@CModelInfo@@QAEPBDPBX@Z 1003f7c0 f i Hooks.obj
 0001:0003e7f0       ?GetTextureGroupName@IMaterial@@QAEPBDXZ 1003f7f0 f i ESP.obj
 0001:0003e7f0       ?GetName@IGameEvent@@QAEPBDXZ 1003f7f0 f i Hooks.obj
 0001:0003e810       ?GetName@IPanel@@QAEPBDI@Z 1003f810 f i Hooks.obj
 0001:0003e840       ?GetPlayerForUserID@IVEngineClient@@QAEHH@Z 1003f840 f i Hooks.obj
 0001:0003e870       ?GetString@IGameEvent@@QAEPBDPBD@Z 1003f870 f i Hooks.obj
 0001:0003e8a0       ?GetTeamNum@C_BaseEntity@@QAEHXZ 1003f8a0 f i Hooks.obj
 0001:0003e8c0       ?GetUserCmd@CInput@@QAEPAVCUserCmd@1@HH@Z 1003f8c0 f i Hooks.obj
 0001:0003e8f0       ?GetVelocity@C_BaseEntity@@QAE?AVVector@@XZ 1003f8f0 f i Hooks.obj
 0001:0003e920       ?HasGunGameImmunity@C_BaseEntity@@QAE_NXZ 1003f920 f i Hooks.obj
 0001:0003e940       ?IsConnected@IVEngineClient@@QAE_NXZ 1003f940 f i Hooks.obj
 0001:0003e960       ?IsInGame@IVEngineClient@@QAE_NXZ 1003f960 f i Hooks.obj
 0001:0003e980       ?IsScoped@C_BaseEntity@@QAE_NXZ 1003f980 f i Hooks.obj
 0001:0003e9a0       ?IsUnused@GlowObjectDefinition_t@CGlowObjectManager@@QBE_NXZ 1003f9a0 f i Hooks.obj
 0001:0003e9d0       ?Length2D@Vector@@QBEMXZ   1003f9d0 f i Hooks.obj
 0001:0003ea10       ?RankReveal@@YAXPAVCUserCmd@CInput@@@Z 1003fa10 f i Hooks.obj
 0001:0003eae0       ?_Destroy@?$vector@PAVIGameEventListener2@@V?$allocator@PAVIGameEventListener2@@@std@@@std@@AAEXPAPAVIGameEventListener2@@0@Z 1003fae0 f i Hooks.obj
 0001:0003eae0       ?_Destroy@?$vector@HV?$allocator@H@std@@@std@@AAEXPAH0@Z 1003fae0 f i Utilities.obj
 0001:0003eae0       ?_Destroy@?$vector@PAV?$ConfigValue@M@@V?$allocator@PAV?$ConfigValue@M@@@std@@@std@@AAEXPAPAV?$ConfigValue@M@@0@Z 1003fae0 f i Configuration.obj
 0001:0003eae0       ?_Destroy@?$vector@VVector@@V?$allocator@VVector@@@std@@@std@@AAEXPAVVector@@0@Z 1003fae0 f i Hooks.obj
 0001:0003eae0       ?_Destroy@?$vector@PAV?$ConfigValue@_N@@V?$allocator@PAV?$ConfigValue@_N@@@std@@@std@@AAEXPAPAV?$ConfigValue@_N@@0@Z 1003fae0 f i Configuration.obj
 0001:0003eae0       ?_Destroy@?$vector@PAURecvTable@@V?$allocator@PAURecvTable@@@std@@@std@@AAEXPAPAURecvTable@@0@Z 1003fae0 f i NetVarManager.obj
 0001:0003eae0       ?_Destroy@?$vector@PAV?$ConfigValue@H@@V?$allocator@PAV?$ConfigValue@H@@@std@@@std@@AAEXPAPAV?$ConfigValue@H@@0@Z 1003fae0 f i Configuration.obj
 0001:0003eb10       ?_Myend@?$_Vector_alloc@U?$_Vec_base_types@PAV?$ConfigValue@M@@V?$allocator@PAV?$ConfigValue@M@@@std@@@std@@@std@@QAEAAPAPAV?$ConfigValue@M@@XZ 1003fb10 f i Configuration.obj
 0001:0003eb10       ?_Myend@?$_Vector_alloc@U?$_Vec_base_types@PAV?$ConfigValue@H@@V?$allocator@PAV?$ConfigValue@H@@@std@@@std@@@std@@QBEABQAPAV?$ConfigValue@H@@XZ 1003fb10 f i Configuration.obj
 0001:0003eb10       ?_Myend@?$_Vector_alloc@U?$_Vec_base_types@VVector@@V?$allocator@VVector@@@std@@@std@@@std@@QBEABQAVVector@@XZ 1003fb10 f i Hooks.obj
 0001:0003eb10       ?_Myend@?$_Vector_alloc@U?$_Vec_base_types@PAURecvTable@@V?$allocator@PAURecvTable@@@std@@@std@@@std@@QBEABQAPAURecvTable@@XZ 1003fb10 f i NetVarManager.obj
 0001:0003eb10       ?_Myend@?$_Vector_alloc@U?$_Vec_base_types@PAV?$ConfigValue@_N@@V?$allocator@PAV?$ConfigValue@_N@@@std@@@std@@@std@@QBEABQAPAV?$ConfigValue@_N@@XZ 1003fb10 f i Configuration.obj
 0001:0003eb10       ?_Myend@?$_Vector_alloc@U?$_Vec_base_types@PAURecvTable@@V?$allocator@PAURecvTable@@@std@@@std@@@std@@QAEAAPAPAURecvTable@@XZ 1003fb10 f i NetVarManager.obj
 0001:0003eb10       ?_Myend@?$_Vector_alloc@U?$_Vec_base_types@PAVIGameEventListener2@@V?$allocator@PAVIGameEventListener2@@@std@@@std@@@std@@QAEAAPAPAVIGameEventListener2@@XZ 1003fb10 f i Hooks.obj
 0001:0003eb10       ?_Myend@?$_Vector_alloc@U?$_Vec_base_types@V?$basic_string@DU?$char_traits@D@std@@V?$allocator@D@2@@std@@V?$allocator@V?$basic_string@DU?$char_traits@D@std@@V?$allocator@D@2@@std@@@2@@std@@@std@@QAEAAPAV?$basic_string@DU?$char_traits@D@std@@V?$allocator@D@2@@2@XZ 1003fb10 f i ESP.obj
 0001:0003eb10       ?_Myend@?$_Vector_alloc@U?$_Vec_base_types@HV?$allocator@H@std@@@std@@@std@@QBEABQAHXZ 1003fb10 f i Utilities.obj
 0001:0003eb10       ?_Myend@?$_Vector_alloc@U?$_Vec_base_types@PAV?$ConfigValue@_N@@V?$allocator@PAV?$ConfigValue@_N@@@std@@@std@@@std@@QAEAAPAPAV?$ConfigValue@_N@@XZ 1003fb10 f i Configuration.obj
 0001:0003eb10       ?_Myend@?$_Vector_alloc@U?$_Vec_base_types@PAV?$ConfigValue@H@@V?$allocator@PAV?$ConfigValue@H@@@std@@@std@@@std@@QAEAAPAPAV?$ConfigValue@H@@XZ 1003fb10 f i Configuration.obj
 0001:0003eb10       ?_Myend@?$_Vector_alloc@U?$_Vec_base_types@VVector@@V?$allocator@VVector@@@std@@@std@@@std@@QAEAAPAVVector@@XZ 1003fb10 f i Hooks.obj
 0001:0003eb10       ?_Myend@?$_Vector_alloc@U?$_Vec_base_types@HV?$allocator@H@std@@@std@@@std@@QAEAAPAHXZ 1003fb10 f i Utilities.obj
 0001:0003eb10       ?_Myend@?$_Vector_alloc@U?$_Vec_base_types@V?$basic_string@DU?$char_traits@D@std@@V?$allocator@D@2@@std@@V?$allocator@V?$basic_string@DU?$char_traits@D@std@@V?$allocator@D@2@@std@@@2@@std@@@std@@QBEABQAV?$basic_string@DU?$char_traits@D@std@@V?$allocator@D@2@@2@XZ 1003fb10 f i ESP.obj
 0001:0003eb10       ?_Myend@?$_Vector_alloc@U?$_Vec_base_types@PAV?$ConfigValue@M@@V?$allocator@PAV?$ConfigValue@M@@@std@@@std@@@std@@QBEABQAPAV?$ConfigValue@M@@XZ 1003fb10 f i Configuration.obj
 0001:0003eb10       ?_Myend@?$_Vector_alloc@U?$_Vec_base_types@PAVIGameEventListener2@@V?$allocator@PAVIGameEventListener2@@@std@@@std@@@std@@QBEABQAPAVIGameEventListener2@@XZ 1003fb10 f i Hooks.obj
 0001:0003eb30       ?_Myfirst@?$_Vector_alloc@U?$_Vec_base_types@V?$basic_string@DU?$char_traits@D@std@@V?$allocator@D@2@@std@@V?$allocator@V?$basic_string@DU?$char_traits@D@std@@V?$allocator@D@2@@std@@@2@@std@@@std@@QAEAAPAV?$basic_string@DU?$char_traits@D@std@@V?$allocator@D@2@@2@XZ 1003fb30 f i ESP.obj
 0001:0003eb30       ?_Myfirst@?$_Vector_alloc@U?$_Vec_base_types@VVector@@V?$allocator@VVector@@@std@@@std@@@std@@QBEABQAVVector@@XZ 1003fb30 f i Hooks.obj
 0001:0003eb30       ?_Myfirst@?$_Vector_alloc@U?$_Vec_base_types@HV?$allocator@H@std@@@std@@@std@@QBEABQAHXZ 1003fb30 f i Utilities.obj
 0001:0003eb30       ?_Myfirst@?$_Vector_alloc@U?$_Vec_base_types@VVector@@V?$allocator@VVector@@@std@@@std@@@std@@QAEAAPAVVector@@XZ 1003fb30 f i Hooks.obj
 0001:0003eb30       ?_Myfirst@?$_Vector_alloc@U?$_Vec_base_types@EV?$allocator@E@std@@@std@@@std@@QAEAAPAEXZ 1003fb30 f i Utilities.obj
 0001:0003eb30       ?_Myfirst@?$_Vector_alloc@U?$_Vec_base_types@PAV?$ConfigValue@H@@V?$allocator@PAV?$ConfigValue@H@@@std@@@std@@@std@@QAEAAPAPAV?$ConfigValue@H@@XZ 1003fb30 f i Configuration.obj
 0001:0003eb30       ?_Myfirst@?$_Vector_alloc@U?$_Vec_base_types@PAV?$ConfigValue@_N@@V?$allocator@PAV?$ConfigValue@_N@@@std@@@std@@@std@@QBEABQAPAV?$ConfigValue@_N@@XZ 1003fb30 f i Configuration.obj
 0001:0003eb30       ?_Myfirst@?$_Vector_alloc@U?$_Vec_base_types@PAVIGameEventListener2@@V?$allocator@PAVIGameEventListener2@@@std@@@std@@@std@@QAEAAPAPAVIGameEventListener2@@XZ 1003fb30 f i Hooks.obj
 0001:0003eb30       ?_Myfirst@?$_Vector_alloc@U?$_Vec_base_types@V?$basic_string@DU?$char_traits@D@std@@V?$allocator@D@2@@std@@V?$allocator@V?$basic_string@DU?$char_traits@D@std@@V?$allocator@D@2@@std@@@2@@std@@@std@@QBEABQAV?$basic_string@DU?$char_traits@D@std@@V?$allocator@D@2@@2@XZ 1003fb30 f i ESP.obj
 0001:0003eb30       ?_Myfirst@?$_Vector_alloc@U?$_Vec_base_types@PAV?$ConfigValue@_N@@V?$allocator@PAV?$ConfigValue@_N@@@std@@@std@@@std@@QAEAAPAPAV?$ConfigValue@_N@@XZ 1003fb30 f i Configuration.obj
 0001:0003eb30       ?_Myfirst@?$_Vector_alloc@U?$_Vec_base_types@PAURecvTable@@V?$allocator@PAURecvTable@@@std@@@std@@@std@@QBEABQAPAURecvTable@@XZ 1003fb30 f i NetVarManager.obj
 0001:0003eb30       ?_Myfirst@?$_Vector_alloc@U?$_Vec_base_types@PAVIGameEventListener2@@V?$allocator@PAVIGameEventListener2@@@std@@@std@@@std@@QBEABQAPAVIGameEventListener2@@XZ 1003fb30 f i Hooks.obj
 0001:0003eb30       ?_Myfirst@?$_Vector_alloc@U?$_Vec_base_types@HV?$allocator@H@std@@@std@@@std@@QAEAAPAHXZ 1003fb30 f i Utilities.obj
 0001:0003eb30       ?_Myfirst@?$_Vector_alloc@U?$_Vec_base_types@PAURecvTable@@V?$allocator@PAURecvTable@@@std@@@std@@@std@@QAEAAPAPAURecvTable@@XZ 1003fb30 f i NetVarManager.obj
 0001:0003eb30       ?_Myfirst@?$_Vector_alloc@U?$_Vec_base_types@PAV?$ConfigValue@H@@V?$allocator@PAV?$ConfigValue@H@@@std@@@std@@@std@@QBEABQAPAV?$ConfigValue@H@@XZ 1003fb30 f i Configuration.obj
 0001:0003eb30       ?_Myfirst@?$_Vector_alloc@U?$_Vec_base_types@PAV?$ConfigValue@M@@V?$allocator@PAV?$ConfigValue@M@@@std@@@std@@@std@@QAEAAPAPAV?$ConfigValue@M@@XZ 1003fb30 f i Configuration.obj
 0001:0003eb30       ?_Myfirst@?$_Vector_alloc@U?$_Vec_base_types@PAV?$ConfigValue@M@@V?$allocator@PAV?$ConfigValue@M@@@std@@@std@@@std@@QBEABQAPAV?$ConfigValue@M@@XZ 1003fb30 f i Configuration.obj
 0001:0003eb30       ?_Myfirst@?$_Vector_alloc@U?$_Vec_base_types@EV?$allocator@E@std@@@std@@@std@@QBEABQAEXZ 1003fb30 f i Utilities.obj
 0001:0003eb50       ?_Mylast@?$_Vector_alloc@U?$_Vec_base_types@EV?$allocator@E@std@@@std@@@std@@QBEABQAEXZ 1003fb50 f i Utilities.obj
 0001:0003eb50       ?_Mylast@?$_Vector_alloc@U?$_Vec_base_types@PAV?$ConfigValue@H@@V?$allocator@PAV?$ConfigValue@H@@@std@@@std@@@std@@QBEABQAPAV?$ConfigValue@H@@XZ 1003fb50 f i Configuration.obj
 0001:0003eb50       ?_Mylast@?$_Vector_alloc@U?$_Vec_base_types@HV?$allocator@H@std@@@std@@@std@@QBEABQAHXZ 1003fb50 f i Utilities.obj
 0001:0003eb50       ?_Mylast@?$_Vector_alloc@U?$_Vec_base_types@PAVIGameEventListener2@@V?$allocator@PAVIGameEventListener2@@@std@@@std@@@std@@QAEAAPAPAVIGameEventListener2@@XZ 1003fb50 f i Hooks.obj
 0001:0003eb50       ?_Mylast@?$_Vector_alloc@U?$_Vec_base_types@PAV?$ConfigValue@_N@@V?$allocator@PAV?$ConfigValue@_N@@@std@@@std@@@std@@QAEAAPAPAV?$ConfigValue@_N@@XZ 1003fb50 f i Configuration.obj
 0001:0003eb50       ?_Mylast@?$_Vector_alloc@U?$_Vec_base_types@PAV?$ConfigValue@H@@V?$allocator@PAV?$ConfigValue@H@@@std@@@std@@@std@@QAEAAPAPAV?$ConfigValue@H@@XZ 1003fb50 f i Configuration.obj
 0001:0003eb50       ?_Mylast@?$_Vector_alloc@U?$_Vec_base_types@V?$basic_string@DU?$char_traits@D@std@@V?$allocator@D@2@@std@@V?$allocator@V?$basic_string@DU?$char_traits@D@std@@V?$allocator@D@2@@std@@@2@@std@@@std@@QAEAAPAV?$basic_string@DU?$char_traits@D@std@@V?$allocator@D@2@@2@XZ 1003fb50 f i ESP.obj
 0001:0003eb50       ?_Mylast@?$_Vector_alloc@U?$_Vec_base_types@PAV?$ConfigValue@M@@V?$allocator@PAV?$ConfigValue@M@@@std@@@std@@@std@@QBEABQAPAV?$ConfigValue@M@@XZ 1003fb50 f i Configuration.obj
 0001:0003eb50       ?_Mylast@?$_Vector_alloc@U?$_Vec_base_types@PAV?$ConfigValue@M@@V?$allocator@PAV?$ConfigValue@M@@@std@@@std@@@std@@QAEAAPAPAV?$ConfigValue@M@@XZ 1003fb50 f i Configuration.obj
 0001:0003eb50       ?_Mylast@?$_Vector_alloc@U?$_Vec_base_types@PAURecvTable@@V?$allocator@PAURecvTable@@@std@@@std@@@std@@QAEAAPAPAURecvTable@@XZ 1003fb50 f i NetVarManager.obj
 0001:0003eb50       ?_Mylast@?$_Vector_alloc@U?$_Vec_base_types@VVector@@V?$allocator@VVector@@@std@@@std@@@std@@QBEABQAVVector@@XZ 1003fb50 f i GrenadePrediction.obj
 0001:0003eb50       ?_Mylast@?$_Vector_alloc@U?$_Vec_base_types@PAURecvTable@@V?$allocator@PAURecvTable@@@std@@@std@@@std@@QBEABQAPAURecvTable@@XZ 1003fb50 f i NetVarManager.obj
 0001:0003eb50       ?_Mylast@?$_Vector_alloc@U?$_Vec_base_types@VVector@@V?$allocator@VVector@@@std@@@std@@@std@@QAEAAPAVVector@@XZ 1003fb50 f i Hooks.obj
 0001:0003eb50       ?_Mylast@?$_Vector_alloc@U?$_Vec_base_types@PAV?$ConfigValue@_N@@V?$allocator@PAV?$ConfigValue@_N@@@std@@@std@@@std@@QBEABQAPAV?$ConfigValue@_N@@XZ 1003fb50 f i Configuration.obj
 0001:0003eb50       ?_Mylast@?$_Vector_alloc@U?$_Vec_base_types@HV?$allocator@H@std@@@std@@@std@@QAEAAPAHXZ 1003fb50 f i Utilities.obj
 0001:0003eb70       ?_Orphan_all@?$_Vector_alloc@U?$_Vec_base_types@PAV?$ConfigValue@M@@V?$allocator@PAV?$ConfigValue@M@@@std@@@std@@@std@@QAEXXZ 1003fb70 f i Configuration.obj
 0001:0003eb70       ?_Orphan_all@?$_Vector_alloc@U?$_Vec_base_types@VVector@@V?$allocator@VVector@@@std@@@std@@@std@@QAEXXZ 1003fb70 f i Hooks.obj
 0001:0003eb70       ?_Orphan_all@?$_Vector_alloc@U?$_Vec_base_types@PAV?$ConfigValue@H@@V?$allocator@PAV?$ConfigValue@H@@@std@@@std@@@std@@QAEXXZ 1003fb70 f i Configuration.obj
 0001:0003eb70       ?_Orphan_all@?$_Vector_alloc@U?$_Vec_base_types@PAV?$ConfigValue@_N@@V?$allocator@PAV?$ConfigValue@_N@@@std@@@std@@@std@@QAEXXZ 1003fb70 f i Configuration.obj
 0001:0003eb70       ?_Orphan_all@?$_Vector_alloc@U?$_Vec_base_types@V?$basic_string@DU?$char_traits@D@std@@V?$allocator@D@2@@std@@V?$allocator@V?$basic_string@DU?$char_traits@D@std@@V?$allocator@D@2@@std@@@2@@std@@@std@@QAEXXZ 1003fb70 f i ESP.obj
 0001:0003eb70       ?_Orphan_all@?$_Vector_alloc@U?$_Vec_base_types@PAURecvTable@@V?$allocator@PAURecvTable@@@std@@@std@@@std@@QAEXXZ 1003fb70 f i NetVarManager.obj
 0001:0003eb70       ?_Orphan_all@?$_Vector_alloc@U?$_Vec_base_types@HV?$allocator@H@std@@@std@@@std@@QAEXXZ 1003fb70 f i Utilities.obj
 0001:0003eb70       ?_Orphan_all@?$_String_alloc@U?$_String_base_types@DV?$allocator@D@std@@@std@@@std@@QAEXXZ 1003fb70 f i ESP.obj
 0001:0003eb70       ?_Orphan_all@?$_Vector_alloc@U?$_Vec_base_types@PAVIGameEventListener2@@V?$allocator@PAVIGameEventListener2@@@std@@@std@@@std@@QAEXXZ 1003fb70 f i Hooks.obj
 0001:0003eb90       ?_Tidy@?$vector@PAV?$ConfigValue@M@@V?$allocator@PAV?$ConfigValue@M@@@std@@@std@@AAEXXZ 1003fb90 f i Configuration.obj
 0001:0003eb90       ?_Tidy@?$vector@HV?$allocator@H@std@@@std@@AAEXXZ 1003fb90 f i Utilities.obj
 0001:0003eb90       ?_Tidy@?$vector@PAVIGameEventListener2@@V?$allocator@PAVIGameEventListener2@@@std@@@std@@AAEXXZ 1003fb90 f i Hooks.obj
 0001:0003eb90       ?_Tidy@?$vector@PAV?$ConfigValue@H@@V?$allocator@PAV?$ConfigValue@H@@@std@@@std@@AAEXXZ 1003fb90 f i Configuration.obj
 0001:0003eb90       ?_Tidy@?$vector@PAV?$ConfigValue@_N@@V?$allocator@PAV?$ConfigValue@_N@@@std@@@std@@AAEXXZ 1003fb90 f i Configuration.obj
 0001:0003ec20       ?_Tidy@?$vector@VVector@@V?$allocator@VVector@@@std@@@std@@AAEXXZ 1003fc20 f i Hooks.obj
 0001:0003ecb0       ?capacity@?$vector@PAV?$ConfigValue@M@@V?$allocator@PAV?$ConfigValue@M@@@std@@@std@@QBEIXZ 1003fcb0 f i Configuration.obj
 0001:0003ecb0       ?capacity@?$vector@PAV?$ConfigValue@_N@@V?$allocator@PAV?$ConfigValue@_N@@@std@@@std@@QBEIXZ 1003fcb0 f i Configuration.obj
 0001:0003ecb0       ?capacity@?$vector@PAV?$ConfigValue@H@@V?$allocator@PAV?$ConfigValue@H@@@std@@@std@@QBEIXZ 1003fcb0 f i Configuration.obj
 0001:0003ecb0       ?capacity@?$vector@PAURecvTable@@V?$allocator@PAURecvTable@@@std@@@std@@QBEIXZ 1003fcb0 f i NetVarManager.obj
 0001:0003ecb0       ?capacity@?$vector@HV?$allocator@H@std@@@std@@QBEIXZ 1003fcb0 f i Utilities.obj
 0001:0003ecb0       ?capacity@?$vector@PAVIGameEventListener2@@V?$allocator@PAVIGameEventListener2@@@std@@@std@@QBEIXZ 1003fcb0 f i Hooks.obj
 0001:0003ece0       ?capacity@?$vector@VVector@@V?$allocator@VVector@@@std@@@std@@QBEIXZ 1003fce0 f i Hooks.obj
 0001:0003ed10       ?deallocate@?$allocator@H@std@@QAEXQAHI@Z 1003fd10 f i Utilities.obj
 0001:0003ed10       ?deallocate@?$allocator@PAV?$ConfigValue@_N@@@std@@QAEXQAPAV?$ConfigValue@_N@@I@Z 1003fd10 f i Configuration.obj
 0001:0003ed10       ?deallocate@?$allocator@PAV?$ConfigValue@M@@@std@@QAEXQAPAV?$ConfigValue@M@@I@Z 1003fd10 f i Configuration.obj
 0001:0003ed10       ?deallocate@?$allocator@PAVIGameEventListener2@@@std@@QAEXQAPAVIGameEventListener2@@I@Z 1003fd10 f i Hooks.obj
 0001:0003ed10       ?deallocate@?$allocator@PAV?$ConfigValue@H@@@std@@QAEXQAPAV?$ConfigValue@H@@I@Z 1003fd10 f i Configuration.obj
 0001:0003ed10       ?deallocate@?$allocator@PAURecvTable@@@std@@QAEXQAPAURecvTable@@I@Z 1003fd10 f i NetVarManager.obj
 0001:0003ed30       ?deallocate@?$allocator@VVector@@@std@@QAEXQAVVector@@I@Z 1003fd30 f i Hooks.obj
 0001:0003ed50       ?enc@?$XorString@$0M@$04@XorCompileTime@@ABEDD@Z 1003fd50 f i Hooks.obj
 0001:0003ed50       ?enc@?$XorString@$07$05@XorCompileTime@@ABEDD@Z 1003fd50 f i Hooks.obj
 0001:0003ed50       ?enc@?$XorString@$0CI@$0O@@XorCompileTime@@ABEDD@Z 1003fd50 f i Hooks.obj
 0001:0003ed50       ?dec@?$XorString@$0M@$04@XorCompileTime@@ABEDD@Z 1003fd50 f i Hooks.obj
 0001:0003ed50       ?dec@?$XorString@$08$00@XorCompileTime@@ABEDD@Z 1003fd50 f i Hooks.obj
 0001:0003ed50       ?dec@?$XorString@$0L@$08@XorCompileTime@@ABEDD@Z 1003fd50 f i Hooks.obj
 0001:0003ed50       ?enc@?$XorString@$0CK@$0BA@@XorCompileTime@@ABEDD@Z 1003fd50 f i Hooks.obj
 0001:0003ed50       ?dec@?$XorString@$0A@$01@XorCompileTime@@ABEDD@Z 1003fd50 f i Hooks.obj
 0001:0003ed50       ?dec@?$XorString@$07$05@XorCompileTime@@ABEDD@Z 1003fd50 f i Hooks.obj
 0001:0003ed50       ?dec@?$XorString@$08$0L@@XorCompileTime@@ABEDD@Z 1003fd50 f i Hooks.obj
 0001:0003ed50       ?dec@?$XorString@$09$07@XorCompileTime@@ABEDD@Z 1003fd50 f i Hooks.obj
 0001:0003ed50       ?dec@?$XorString@$06$0A@@XorCompileTime@@ABEDD@Z 1003fd50 f i Hooks.obj
 0001:0003ed50       ?enc@?$XorString@$0BA@$0M@@XorCompileTime@@ABEDD@Z 1003fd50 f i Hooks.obj
 0001:0003ed50       ?dec@?$XorString@$0BA@$0M@@XorCompileTime@@ABEDD@Z 1003fd50 f i Hooks.obj
 0001:0003ed50       ?enc@?$XorString@$06$0A@@XorCompileTime@@ABEDD@Z 1003fd50 f i Hooks.obj
 0001:0003ed50       ?dec@?$XorString@$04$03@XorCompileTime@@ABEDD@Z 1003fd50 f i Hooks.obj
 0001:0003ed50       ?dec@?$XorString@$0P@$06@XorCompileTime@@ABEDD@Z 1003fd50 f i Hooks.obj
 0001:0003ed50       ?enc@?$XorString@$0BH@$0P@@XorCompileTime@@ABEDD@Z 1003fd50 f i Hooks.obj
 0001:0003ed50       ?dec@?$XorString@$0CK@$0BA@@XorCompileTime@@ABEDD@Z 1003fd50 f i Hooks.obj
 0001:0003ed50       ?enc@?$XorString@$07$02@XorCompileTime@@ABEDD@Z 1003fd50 f i Hooks.obj
 0001:0003ed50       ?enc@?$XorString@$09$07@XorCompileTime@@ABEDD@Z 1003fd50 f i Hooks.obj
 0001:0003ed50       ?enc@?$XorString@$0L@$09@XorCompileTime@@ABEDD@Z 1003fd50 f i Hooks.obj
 0001:0003ed50       ?dec@?$XorString@$0BH@$0N@@XorCompileTime@@ABEDD@Z 1003fd50 f i Hooks.obj
 0001:0003ed50       ?dec@?$XorString@$0CI@$0O@@XorCompileTime@@ABEDD@Z 1003fd50 f i Hooks.obj
 0001:0003ed50       ?enc@?$XorString@$08$0L@@XorCompileTime@@ABEDD@Z 1003fd50 f i Hooks.obj
 0001:0003ed50       ?enc@?$XorString@$08$00@XorCompileTime@@ABEDD@Z 1003fd50 f i Hooks.obj
 0001:0003ed50       ?dec@?$XorString@$0L@$09@XorCompileTime@@ABEDD@Z 1003fd50 f i Hooks.obj
 0001:0003ed50       ?enc@?$XorString@$0BH@$0N@@XorCompileTime@@ABEDD@Z 1003fd50 f i Hooks.obj
 0001:0003ed50       ?enc@?$XorString@$04$03@XorCompileTime@@ABEDD@Z 1003fd50 f i Hooks.obj
 0001:0003ed50       ?dec@?$XorString@$0BH@$0P@@XorCompileTime@@ABEDD@Z 1003fd50 f i Hooks.obj
 0001:0003ed50       ?enc@?$XorString@$0L@$08@XorCompileTime@@ABEDD@Z 1003fd50 f i Hooks.obj
 0001:0003ed50       ?dec@?$XorString@$07$02@XorCompileTime@@ABEDD@Z 1003fd50 f i Hooks.obj
 0001:0003ed50       ?enc@?$XorString@$0P@$06@XorCompileTime@@ABEDD@Z 1003fd50 f i Hooks.obj
 0001:0003ed70       ?decrypt@?$XorString@$04$03@XorCompileTime@@QAEPADXZ 1003fd70 f i Hooks.obj
 0001:0003edf0       ?decrypt@?$XorString@$06$0A@@XorCompileTime@@QAEPADXZ 1003fdf0 f i Hooks.obj
 0001:0003ee70       ?decrypt@?$XorString@$07$02@XorCompileTime@@QAEPADXZ 1003fe70 f i Hooks.obj
 0001:0003ee70       ?decrypt@?$XorString@$07$05@XorCompileTime@@QAEPADXZ 1003fe70 f i Hooks.obj
 0001:0003eef0       ?decrypt@?$XorString@$08$0L@@XorCompileTime@@QAEPADXZ 1003fef0 f i Hooks.obj
 0001:0003eef0       ?decrypt@?$XorString@$08$00@XorCompileTime@@QAEPADXZ 1003fef0 f i Hooks.obj
 0001:0003ef70       ?decrypt@?$XorString@$09$07@XorCompileTime@@QAEPADXZ 1003ff70 f i Hooks.obj
 0001:0003eff0       ?decrypt@?$XorString@$0A@$01@XorCompileTime@@QAEPADXZ 1003fff0 f i Hooks.obj
 0001:0003f070       ?decrypt@?$XorString@$0BA@$0M@@XorCompileTime@@QAEPADXZ 10040070 f i Hooks.obj
 0001:0003f0f0       ?decrypt@?$XorString@$0BH@$0P@@XorCompileTime@@QAEPADXZ 100400f0 f i Hooks.obj
 0001:0003f0f0       ?decrypt@?$XorString@$0BH@$0N@@XorCompileTime@@QAEPADXZ 100400f0 f i Hooks.obj
 0001:0003f170       ?decrypt@?$XorString@$0CI@$0O@@XorCompileTime@@QAEPADXZ 10040170 f i Hooks.obj
 0001:0003f1f0       ?decrypt@?$XorString@$0CK@$0BA@@XorCompileTime@@QAEPADXZ 100401f0 f i Hooks.obj
 0001:0003f270       ?decrypt@?$XorString@$0L@$08@XorCompileTime@@QAEPADXZ 10040270 f i Hooks.obj
 0001:0003f270       ?decrypt@?$XorString@$0L@$09@XorCompileTime@@QAEPADXZ 10040270 f i Hooks.obj
 0001:0003f2f0       ?decrypt@?$XorString@$0M@$04@XorCompileTime@@QAEPADXZ 100402f0 f i Hooks.obj
 0001:0003f370       ?decrypt@?$XorString@$0P@$06@XorCompileTime@@QAEPADXZ 10040370 f i Hooks.obj
 0001:0003f3f0       ?instance@?$singleton@Vgrenade_prediction@@@@SAAAVgrenade_prediction@@XZ 100403f0 f i Hooks.obj
 0001:0003f4a0       ?instance@?$singleton@Vmisc@@@@SAAAVmisc@@XZ 100404a0 f i Hooks.obj
 0001:0003f530       ?instance@?$singleton@Vvisuals@@@@SAAAVvisuals@@XZ 10040530 f i Hooks.obj
 0001:0003f5c0       ?strstr@@YAPADQADQBD@Z     100405c0 f i Hooks.obj
 0001:0003f5e0       ?unhook_all@vfunc_hook@@QAEXXZ 100405e0 f i Hooks.obj
 0001:0003f670       ?what@exception@std@@UBEPBDXZ 10040670 f i Hooks.obj
 0001:0003f6a0       _sqrtf                     100406a0 f i Hooks.obj
 0001:0003f6d0       ??0visuals@@QAE@XZ         100406d0 f   ESP.obj
 0001:0003f6f0       ?OnPaintTraverse@visuals@@QAEXPAVC_BaseEntity@@@Z 100406f0 f   ESP.obj
 0001:0003ffb0       ?DrawPlayer@visuals@@QAEXPAVC_BaseEntity@@Uplayer_info_s@@0@Z 10040fb0 f   ESP.obj
 0001:00040140       ?DrawInfo@visuals@@AAEXUtagRECT@@PAVC_BaseEntity@@1@Z 10041140 f   ESP.obj
 0001:00040ba0       ?Skeleton@visuals@@AAEXPAVC_BaseEntity@@VColor@@@Z 10041ba0 f   ESP.obj
 0001:00040d10       ?DrawDrop@visuals@@AAEXPAVC_BaseEntity@@@Z 10041d10 f   ESP.obj
 0001:00040e20       ?SpecList@visuals@@AAEXPAVC_BaseEntity@@@Z 10041e20 f   ESP.obj
 0001:00041050       ?NightMode@visuals@@AAEXXZ 10042050 f   ESP.obj
 0001:000414f0       ??$?0U?$integral_constant@_N$00@std@@@_Unused_parameter@std@@QAE@$$QAU?$integral_constant@_N$00@1@@Z 100424f0 f i ESP.obj
 0001:00041500       ??$?0ABV?$allocator@D@std@@$$V@?$_Compressed_pair@V?$allocator@D@std@@V?$_String_val@U?$_Simple_types@D@std@@@2@$00@std@@QAE@U_One_then_variadic_args_t@1@ABV?$allocator@D@1@@Z 10042500 f i Configuration.obj
 0001:00041500       ??$?0V?$allocator@D@std@@$$V@?$_Compressed_pair@V?$allocator@D@std@@V?$_String_val@U?$_Simple_types@D@std@@@2@$00@std@@QAE@U_One_then_variadic_args_t@1@$$QAV?$allocator@D@1@@Z 10042500 f i ESP.obj
 0001:00041530       ??$?0V?$allocator@D@std@@X@?$_String_alloc@U?$_String_base_types@DV?$allocator@D@std@@@std@@@std@@QAE@$$QAV?$allocator@D@1@@Z 10042530 f i ESP.obj
 0001:00041530       ??$?0ABV?$allocator@D@std@@X@?$_String_alloc@U?$_String_base_types@DV?$allocator@D@std@@@std@@@std@@QAE@ABV?$allocator@D@1@@Z 10042530 f i Configuration.obj
 0001:00041560       ??$?HDU?$char_traits@D@std@@V?$allocator@D@1@@std@@YA?AV?$basic_string@DU?$char_traits@D@std@@V?$allocator@D@2@@0@ABV10@QBD@Z 10042560 f i ESP.obj
 0001:00041610       ??$_Destroy_range1@V?$allocator@V?$basic_string@DU?$char_traits@D@std@@V?$allocator@D@2@@std@@@std@@@std@@YAXPAV?$basic_string@DU?$char_traits@D@std@@V?$allocator@D@2@@0@0AAV?$allocator@V?$basic_string@DU?$char_traits@D@std@@V?$allocator@D@2@@std@@@0@U?$integral_constant@_N$0A@@0@@Z 10042610 f i ESP.obj
 0001:00041690       ??$_Destroy_range@V?$allocator@V?$basic_string@DU?$char_traits@D@std@@V?$allocator@D@2@@std@@@std@@@std@@YAXPAV?$basic_string@DU?$char_traits@D@std@@V?$allocator@D@2@@0@0AAV?$allocator@V?$basic_string@DU?$char_traits@D@std@@V?$allocator@D@2@@std@@@0@@Z 10042690 f i ESP.obj
 0001:00041770       ??$_Get_size_of_n@$0CE@@std@@YAII@Z 10042770 f i ESP.obj
 0001:000417a0       ??$_Is_checked@V?$_String_iterator@V?$_String_val@U?$_Simple_types@D@std@@@std@@@std@@@std@@YA?AU?$integral_constant@_N$00@0@V?$_String_iterator@V?$_String_val@U?$_Simple_types@D@std@@@std@@@0@@Z 100427a0 f   DLLMain.obj
 0001:000417a0       ??$_Idl_distance@V?$_String_iterator@V?$_String_val@U?$_Simple_types@D@std@@@std@@@std@@PAD@std@@YA?AU_Distance_unknown@0@ABQAD0@Z 100427a0 f   DLLMain.obj
 0001:000417a0       ??$_Ptr_move_cat@VVector@@V1@@std@@YA?AU_General_ptr_iterator_tag@0@ABQAVVector@@0@Z 100427a0 f   GrenadePrediction.obj
 0001:00041a00       ??$_Rechecked@PAHPAH@std@@YAAAPAHAAPAHQAH@Z 10042a00 f   Utilities.obj
 0001:00041a00       ??$_Rechecked@PAPAV?$ConfigValue@H@@PAPAV1@@std@@YAAAPAPAV?$ConfigValue@H@@AAPAPAV1@QAPAV1@@Z 10042a00 f   Configuration.obj
 0001:00041a00       ??$_Rechecked@PAPAV?$ConfigValue@_N@@PAPAV1@@std@@YAAAPAPAV?$ConfigValue@_N@@AAPAPAV1@QAPAV1@@Z 10042a00 f   Configuration.obj
 0001:00041a00       ??$_Rechecked@V?$_String_val@U?$_Simple_types@D@std@@@std@@@std@@YAAAV?$_String_iterator@V?$_String_val@U?$_Simple_types@D@std@@@std@@@0@AAV10@QAD@Z 10042a00 f   DLLMain.obj
 0001:00041a00       ??$_Rechecked@PAVVector@@PAV1@@std@@YAAAPAVVector@@AAPAV1@QAV1@@Z 10042a00 f   GrenadePrediction.obj
 0001:00041a00       ??$_Rechecked@PAPAV?$ConfigValue@M@@PAPAV1@@std@@YAAAPAPAV?$ConfigValue@M@@AAPAPAV1@QAPAV1@@Z 10042a00 f   Configuration.obj
 0001:00041a00       ??$_Rechecked@PAPAURecvTable@@PAPAU1@@std@@YAAAPAPAURecvTable@@AAPAPAU1@QAPAU1@@Z 10042a00 f   NetVarManager.obj
 0001:00041ba0       ??$destroy@V?$basic_string@DU?$char_traits@D@std@@V?$allocator@D@2@@std@@@?$_Default_allocator_traits@V?$allocator@V?$basic_string@DU?$char_traits@D@std@@V?$allocator@D@2@@std@@@std@@@std@@SAXAAV?$allocator@V?$basic_string@DU?$char_traits@D@std@@V?$allocator@D@2@@std@@@1@QAV?$basic_string@DU?$char_traits@D@std@@V?$allocator@D@2@@1@@Z 10042ba0 f i ESP.obj
 0001:00041d50       ??$max@H@std@@YAABHABH0@Z  10042d50 f i ESP.obj
 0001:00041d80       ??$sprintf_s@$0EA@@@YAHAAY0EA@DPBDZZ 10042d80 f i ESP.obj
 0001:00041dd0       ??0?$basic_string@DU?$char_traits@D@std@@V?$allocator@D@2@@std@@QAE@$$QAV01@@Z 10042dd0 f i ESP.obj
 0001:00041e40       ??0?$basic_string@DU?$char_traits@D@std@@V?$allocator@D@2@@std@@QAE@ABV01@@Z 10042e40 f i ESP.obj
 0001:00041eb0       ??0?$basic_string@DU?$char_traits@D@std@@V?$allocator@D@2@@std@@QAE@XZ 10042eb0 f i ESP.obj
 0001:00041f30       ??0Color@@QAE@HHHH@Z       10042f30 f i ESP.obj
 0001:00042050       ??1?$basic_string@DU?$char_traits@D@std@@V?$allocator@D@2@@std@@QAE@XZ 10043050 f i ESP.obj
 0001:00042090       ??1?$vector@V?$basic_string@DU?$char_traits@D@std@@V?$allocator@D@2@@std@@V?$allocator@V?$basic_string@DU?$char_traits@D@std@@V?$allocator@D@2@@std@@@2@@std@@QAE@XZ 10043090 f i ESP.obj
 0001:00042130       ??AVector@@QAEAAMH@Z       10043130 f i ESP.obj
 0001:000421e0       ??Y?$basic_string@DU?$char_traits@D@std@@V?$allocator@D@2@@std@@QAEAAV01@ABV01@@Z 100431e0 f i ESP.obj
 0001:00042200       ??Y?$basic_string@DU?$char_traits@D@std@@V?$allocator@D@2@@std@@QAEAAV01@QBD@Z 10043200 f i ESP.obj
 0001:00042220       ??_G?$basic_string@DU?$char_traits@D@std@@V?$allocator@D@2@@std@@QAEPAXI@Z 10043220 f i ESP.obj
 0001:00042250       ??_GText@?1??DrawInfo@visuals@@AAEXUtagRECT@@PAVC_BaseEntity@@1@Z@QAEPAXI@Z 10043250 f i ESP.obj
 0001:00042280       ?ArmorValue@C_BaseEntity@@QAEHXZ 10043280 f i ESP.obj
 0001:000422a0       ?CSGO_Armor@@YAMMH@Z       100432a0 f i ESP.obj
 0001:00042340       ?ColorModulate@IMaterial@@QAEXMMM@Z 10043340 f i ESP.obj
 0001:00042390       ?DistTo@Vector@@QBEMABV1@@Z 10043390 f i ESP.obj
 0001:000423d0       ?FirstMaterial@CMaterialSystem@@QAEGXZ 100433d0 f i ESP.obj
 0001:000423f0       ?GetAbsOrigin2@C_BaseEntity@@QAE?AVVector@@XZ 100433f0 f i ESP.obj
 0001:00042420       ?GetBombDefuser@CCSBomb@@QAEHXZ 10043420 f i ESP.obj
 0001:00042440       ?GetBone@studiohdr_t@@QBEPAUmstudiobone_t@@H@Z 10043440 f i ESP.obj
 0001:00042470       ?GetBonePos@C_BaseEntity@@QAE?AVVector@@H@Z 10043470 f i ESP.obj
 0001:00042570       ?GetC4BlowTime@CCSBomb@@QAEMXZ 10043570 f i ESP.obj
 0001:00042590       ?GetC4DefuseCountDown@CCSBomb@@QAEMXZ 10043590 f i ESP.obj
 0001:000425b0       ?GetCollideable@IClientUnknown@@QAEPAVICollideable@@XZ 100435b0 f i ESP.obj
 0001:000425d0       ?GetEyePosition@C_BaseEntity@@QAE?AVVector@@XZ 100435d0 f i ESP.obj
 0001:00042630       ?GetGunName@CBaseCombatWeapon@@QAEPADXZ 10043630 f i ESP.obj
 0001:000429a0       ?GetItemDefinitionIndex@CBaseAttributableItem@@QAEHXZ 100439a0 f i ESP.obj
 0001:000429c0       ?GetMaterial@CMaterialSystem@@QAEPAVIMaterial@@G@Z 100439c0 f i ESP.obj
 0001:000429f0       ?GetName@IMaterial@@QAEPBDXZ 100439f0 f i ESP.obj
 0001:00042a10       ?GetObserverTargetHandle@C_BaseEntity@@QAEPAXXZ 10043a10 f i ESP.obj
 0001:00042a30       ?GetOwnerHandle@CBaseCombatWeapon@@QAEHXZ 10043a30 f i ESP.obj
 0001:00042a50       ?GetPlayerInfo@IVEngineClient@@QAE_NHPAUplayer_info_s@@@Z 10043a50 f i ESP.obj
 0001:00042a80       ?GetScreenSize@IVEngineClient@@QAEXAAH0@Z 10043a80 f i ESP.obj
 0001:00042ab0       ?InvalidMaterial@CMaterialSystem@@QAEGXZ 10043ab0 f i ESP.obj
 0001:00042ad0       ?IsBombDefused@CCSBomb@@QAE_NXZ 10043ad0 f i ESP.obj
 0001:00042af0       ?IsKnife@CBaseCombatWeapon@@QAE_NXZ 10043af0 f i ESP.obj
 0001:00042b80       ?IsSpotted@C_BaseEntity@@QAEPA_NXZ 10043b80 f i ESP.obj
 0001:00042ba0       ?ItemDefinitionIndexToString@@YAPBDH@Z 10043ba0 f i ESP.obj
 0001:00042bd0       ?Length@Vector@@QBEMXZ     10043bd0 f i ESP.obj
 0001:00042bf0       ?NextMaterial@CMaterialSystem@@QAEGG@Z 10043bf0 f i ESP.obj
 0001:00042c20       ?ScreenPosition@IVDebugOverlay@@QAEHABVVector@@AAV2@@Z 10043c20 f i ESP.obj
 0001:00042c50       ?SetColor@Color@@QAEXHHHH@Z 10043c50 f i ESP.obj
 0001:00042ca0       ?SetMaterialVarFlag@IMaterial@@QAEXW4MaterialVarFlags_t@@_N@Z 10043ca0 f i ESP.obj
 0001:00042cd0       ?SetValue@ConVar@@QAEXH@Z  10043cd0 f i ESP.obj
 0001:00042d00       ?SetValue@ConVar@@QAEXPBD@Z 10043d00 f i ESP.obj
 0001:00042d00       ?DrawSetColor@ISurface@@QAEXVColor@@@Z 10043d00 f i Render.obj
 0001:00042d30       ?VectorLength@@YAMABVVector@@@Z 10043d30 f i ESP.obj
 0001:00042d80       ?_Assign_rv_contents_with_alloc_always_equal@?$basic_string@DU?$char_traits@D@std@@V?$allocator@D@2@@std@@QAEX$$QAV12@U?$integral_constant@_N$00@2@@Z 10043d80 f i ESP.obj
 0001:00042e00       ?_Become_small@?$basic_string@DU?$char_traits@D@std@@V?$allocator@D@2@@std@@QAEXXZ 10043e00 f i ESP.obj
 0001:00042f80       ?_Construct_lv_contents@?$basic_string@DU?$char_traits@D@std@@V?$allocator@D@2@@std@@QAEXABV12@@Z 10043f80 f i ESP.obj
 0001:00043080       ?_Destroy@?$vector@V?$basic_string@DU?$char_traits@D@std@@V?$allocator@D@2@@std@@V?$allocator@V?$basic_string@DU?$char_traits@D@std@@V?$allocator@D@2@@std@@@2@@std@@AAEXPAV?$basic_string@DU?$char_traits@D@std@@V?$allocator@D@2@@2@0@Z 10044080 f i ESP.obj
 0001:000431c0       ?_Orphan_range@?$vector@HV?$allocator@H@std@@@std@@ABEXPAH0@Z 100441c0 f   Utilities.obj
 0001:000431c0       ?_Orphan_range@?$vector@PAV?$ConfigValue@H@@V?$allocator@PAV?$ConfigValue@H@@@std@@@std@@ABEXPAPAV?$ConfigValue@H@@0@Z 100441c0 f   Configuration.obj
 0001:000431c0       ?_Orphan_range@?$vector@PAURecvTable@@V?$allocator@PAURecvTable@@@std@@@std@@ABEXPAPAURecvTable@@0@Z 100441c0 f   NetVarManager.obj
 0001:000431c0       ?_Orphan_range@?$vector@PAV?$ConfigValue@_N@@V?$allocator@PAV?$ConfigValue@_N@@@std@@@std@@ABEXPAPAV?$ConfigValue@_N@@0@Z 100441c0 f   Configuration.obj
 0001:000431c0       ?_Orphan_range@?$vector@VVector@@V?$allocator@VVector@@@std@@@std@@ABEXPAVVector@@0@Z 100441c0 f   GrenadePrediction.obj
 0001:000431c0       ?_Orphan_range@?$vector@PAV?$ConfigValue@M@@V?$allocator@PAV?$ConfigValue@M@@@std@@@std@@ABEXPAPAV?$ConfigValue@M@@0@Z 100441c0 f   Configuration.obj
 0001:000431d0       ?_Tidy@?$vector@V?$basic_string@DU?$char_traits@D@std@@V?$allocator@D@2@@std@@V?$allocator@V?$basic_string@DU?$char_traits@D@std@@V?$allocator@D@2@@std@@@2@@std@@AAEXXZ 100441d0 f i ESP.obj
 0001:000432f0       ?_Tidy_deallocate@?$basic_string@DU?$char_traits@D@std@@V?$allocator@D@2@@std@@QAEXXZ 100442f0 f i ESP.obj
 0001:00043440       ?_Xlength@?$vector@PAV?$ConfigValue@M@@V?$allocator@PAV?$ConfigValue@M@@@std@@@std@@CAXXZ 10044440 f   Configuration.obj
 0001:00043440       ?_Xlength@?$vector@PAURecvTable@@V?$allocator@PAURecvTable@@@std@@@std@@CAXXZ 10044440 f   NetVarManager.obj
 0001:00043440       ?_Xlength@?$vector@HV?$allocator@H@std@@@std@@CAXXZ 10044440 f   Utilities.obj
 0001:00043440       ?_Xlength@?$vector@PAV?$ConfigValue@_N@@V?$allocator@PAV?$ConfigValue@_N@@@std@@@std@@CAXXZ 10044440 f   Configuration.obj
 0001:00043440       ?_Xlength@?$vector@PAV?$ConfigValue@H@@V?$allocator@PAV?$ConfigValue@H@@@std@@@std@@CAXXZ 10044440 f   Configuration.obj
 0001:00043440       ?_Xlength@?$vector@VVector@@V?$allocator@VVector@@@std@@@std@@CAXXZ 10044440 f   GrenadePrediction.obj
 0001:00043480       ?append@?$basic_string@DU?$char_traits@D@std@@V?$allocator@D@2@@std@@QAEAAV12@ABV12@@Z 10044480 f i ESP.obj
 0001:000434c0       ?append@?$basic_string@DU?$char_traits@D@std@@V?$allocator@D@2@@std@@QAEAAV12@QBD@Z 100444c0 f i ESP.obj
 0001:000434f0       ?append@?$basic_string@DU?$char_traits@D@std@@V?$allocator@D@2@@std@@QAEAAV12@QBDI@Z 100444f0 f i ESP.obj
 0001:00043590       ?c_str@?$basic_string@DU?$char_traits@D@std@@V?$allocator@D@2@@std@@QBEPBDXZ 10044590 f i ESP.obj
 0001:000435d0       ?capacity@?$vector@V?$basic_string@DU?$char_traits@D@std@@V?$allocator@D@2@@std@@V?$allocator@V?$basic_string@DU?$char_traits@D@std@@V?$allocator@D@2@@std@@@2@@std@@QBEIXZ 100445d0 f i ESP.obj
 0001:00043630       ?deallocate@?$allocator@V?$basic_string@DU?$char_traits@D@std@@V?$allocator@D@2@@std@@@std@@QAEXQAV?$basic_string@DU?$char_traits@D@std@@V?$allocator@D@2@@2@I@Z 10044630 f i ESP.obj
 0001:00043670       ?exp@@YAMM@Z               10044670 f i ESP.obj
 0001:00043690       ?m_AttributeManager@CBaseCombatWeapon@@QAEPAVAttributeContainer@@XZ 10044690 f i ESP.obj
 0001:000436b0       ?m_Item@AttributeContainer@@QAEPAVCBaseAttributableItem@@XZ 100446b0 f i ESP.obj
 0001:00043750       ?reserve@?$basic_string@DU?$char_traits@D@std@@V?$allocator@D@2@@std@@QAEXI@Z 10044750 f i ESP.obj
 0001:000437e0       ?size@?$basic_string@DU?$char_traits@D@std@@V?$allocator@D@2@@std@@QBEIXZ 100447e0 f i ESP.obj
 0001:00043830       ?sqrt@@YAMM@Z              10044830 f i ESP.obj
 0001:00043850       __vsprintf_l               10044850 f i ESP.obj
 0001:00043870       _ceilf                     10044870 f i ESP.obj
 0001:000438a0       _expf                      100448a0 f i ESP.obj
 0001:000438d0       _sprintf                   100448d0 f i ESP.obj
 0001:00043da0       _DetourCreateProcessWithDllA@48 10044da0 f   creatwth.obj
 0001:00043e80       _DetourCreateProcessWithDllW@48 10044e80 f   creatwth.obj
 0001:00043f50       _DetourCreateProcessWithDllExA@48 10044f50 f   creatwth.obj
 0001:00044060       _DetourCreateProcessWithDllExW@48 10045060 f   creatwth.obj
 0001:00044170       _DetourCreateProcessWithDllsA@52 10045170 f   creatwth.obj
 0001:00044280       _DetourCreateProcessWithDllsW@52 10045280 f   creatwth.obj
 0001:00044390       _DetourProcessViaHelperA@12 10045390 f   creatwth.obj
 0001:000443b0       _DetourProcessViaHelperW@12 100453b0 f   creatwth.obj
 0001:000443d0       _DetourProcessViaHelperDllsA@16 100453d0 f   creatwth.obj
 0001:000445c0       _DetourProcessViaHelperDllsW@16 100455c0 f   creatwth.obj
 0001:000447c0       _DetourUpdateProcessWithDll@12 100457c0 f   creatwth.obj
 0001:000448d0       _DetourUpdateProcessWithDllEx@20 100458d0 f   creatwth.obj
 0001:00044a30       _DetourCopyPayloadToProcess@16 10045a30 f   creatwth.obj
 0001:00044cf0       _DetourIsHelperProcess@0   10045cf0 f   creatwth.obj
 0001:00044d80       _DetourFinishHelperProcess@16 10045d80 f   creatwth.obj
 0001:00045530       ?StringCchCatA@@YGJPADIPBD@Z 10046530 f i creatwth.obj
 0001:00045580       ?StringCchCatW@@YGJPA_WIPB_W@Z 10046580 f i creatwth.obj
 0001:000455e0       ?StringCchCopyA@@YGJPADIPBD@Z 100465e0 f i creatwth.obj
 0001:00045640       ?StringCchLengthA@@YGJPBDIPAI@Z 10046640 f i creatwth.obj
 0001:00045690       ?StringCchPrintfA@@YAJPADIPBDZZ 10046690 f i creatwth.obj
 0001:00045700       ?StringCchPrintfW@@YAJPA_WIPB_WZZ 10046700 f i creatwth.obj
 0001:00045770       __vsnwprintf               10046770 f i creatwth.obj
 0001:00045790       __vsnwprintf_l             10046790 f i creatwth.obj
 0001:000457f0       ?GetNetvars@Offsetz@@QAEXXZ 100467f0 f   Offsets.obj
 0001:00046d70       _sqlite3_libversion        10047d70 f   sqlite3.obj
 0001:00046d80       _sqlite3_sourceid          10047d80 f   sqlite3.obj
 0001:00046d90       _sqlite3_libversion_number 10047d90 f   sqlite3.obj
 0001:00046da0       _sqlite3_compileoption_used 10047da0 f   sqlite3.obj
 0001:00046e50       _sqlite3_compileoption_get 10047e50 f   sqlite3.obj
 0001:00046e90       _sqlite3_threadsafe        10047e90 f   sqlite3.obj
 0001:00046ea0       _sqlite3_close             10047ea0 f   sqlite3.obj
 0001:00046ec0       _sqlite3_close_v2          10047ec0 f   sqlite3.obj
 0001:00046ee0       _sqlite3_exec              10047ee0 f   sqlite3.obj
 0001:00047260       _sqlite3_initialize        10048260 f   sqlite3.obj
 0001:00047430       _sqlite3_shutdown          10048430 f   sqlite3.obj
 0001:000474b0       _sqlite3_os_init           100484b0 f   sqlite3.obj
 0001:00047530       _sqlite3_os_end            10048530 f   sqlite3.obj
 0001:00047550       _sqlite3_config            10048550 f   sqlite3.obj
 0001:00047980       _sqlite3_db_config         10048980 f   sqlite3.obj
 0001:00047b30       _sqlite3_extended_result_codes 10048b30 f   sqlite3.obj
 0001:00047b80       _sqlite3_last_insert_rowid 10048b80 f   sqlite3.obj
 0001:00047b90       _sqlite3_set_last_insert_rowid 10048b90 f   sqlite3.obj
 0001:00047bd0       _sqlite3_changes           10048bd0 f   sqlite3.obj
 0001:00047be0       _sqlite3_total_changes     10048be0 f   sqlite3.obj
 0001:00047bf0       _sqlite3_interrupt         10048bf0 f   sqlite3.obj
 0001:00047c10       _sqlite3_complete          10048c10 f   sqlite3.obj
 0001:00048070       _sqlite3_complete16        10049070 f   sqlite3.obj
 0001:00048100       _sqlite3_busy_handler      10049100 f   sqlite3.obj
 0001:00048170       _sqlite3_busy_timeout      10049170 f   sqlite3.obj
 0001:000481c0       _sqlite3_get_table         100491c0 f   sqlite3.obj
 0001:000483c0       _sqlite3_free_table        100493c0 f   sqlite3.obj
 0001:00048430       _sqlite3_mprintf           10049430 f   sqlite3.obj
 0001:00048470       _sqlite3_vmprintf          10049470 f   sqlite3.obj
 0001:000484d0       _sqlite3_snprintf          100494d0 f   sqlite3.obj
 0001:00048510       _sqlite3_vsnprintf         10049510 f   sqlite3.obj
 0001:00048560       _sqlite3_malloc            10049560 f   sqlite3.obj
 0001:000485a0       _sqlite3_malloc64          100495a0 f   sqlite3.obj
 0001:000485d0       _sqlite3_realloc           100495d0 f   sqlite3.obj
 0001:00048610       _sqlite3_realloc64         10049610 f   sqlite3.obj
 0001:00048640       _sqlite3_free              10049640 f   sqlite3.obj
 0001:000486c0       _sqlite3_msize             100496c0 f   sqlite3.obj
 0001:000486f0       _sqlite3_memory_used       100496f0 f   sqlite3.obj
 0001:00048720       _sqlite3_memory_highwater  10049720 f   sqlite3.obj
 0001:00048750       _sqlite3_randomness        10049750 f   sqlite3.obj
 0001:00048940       _sqlite3_set_authorizer    10049940 f   sqlite3.obj
 0001:00048990       _sqlite3_trace             10049990 f   sqlite3.obj
 0001:00048a00       _sqlite3_profile           10049a00 f   sqlite3.obj
 0001:00048a50       _sqlite3_trace_v2          10049a50 f   sqlite3.obj
 0001:00048ab0       _sqlite3_progress_handler  10049ab0 f   sqlite3.obj
 0001:00048b30       _sqlite3_open              10049b30 f   sqlite3.obj
 0001:00048b50       _sqlite3_open16            10049b50 f   sqlite3.obj
 0001:00048c40       _sqlite3_open_v2           10049c40 f   sqlite3.obj
 0001:00048c60       _sqlite3_uri_parameter     10049c60 f   sqlite3.obj
 0001:00048cf0       _sqlite3_uri_boolean       10049cf0 f   sqlite3.obj
 0001:00048d60       _sqlite3_uri_int64         10049d60 f   sqlite3.obj
 0001:00048db0       _sqlite3_errcode           10049db0 f   sqlite3.obj
 0001:00048e00       _sqlite3_extended_errcode  10049e00 f   sqlite3.obj
 0001:00048e50       _sqlite3_errmsg            10049e50 f   sqlite3.obj
 0001:00048f00       _sqlite3_errmsg16          10049f00 f   sqlite3.obj
 0001:00048fd0       _sqlite3_errstr            10049fd0 f   sqlite3.obj
 0001:00048ff0       _sqlite3_limit             10049ff0 f   sqlite3.obj
 0001:00049050       _sqlite3_prepare           1004a050 f   sqlite3.obj
 0001:00049080       _sqlite3_prepare_v2        1004a080 f   sqlite3.obj
 0001:000490c0       _sqlite3_prepare_v3        1004a0c0 f   sqlite3.obj
 0001:00049100       _sqlite3_prepare16         1004a100 f   sqlite3.obj
 0001:00049130       _sqlite3_prepare16_v2      1004a130 f   sqlite3.obj
 0001:00049160       _sqlite3_prepare16_v3      1004a160 f   sqlite3.obj
 0001:000491a0       _sqlite3_sql               1004a1a0 f   sqlite3.obj
 0001:000491d0       _sqlite3_expanded_sql      1004a1d0 f   sqlite3.obj
 0001:00049240       _sqlite3_stmt_readonly     1004a240 f   sqlite3.obj
 0001:00049270       _sqlite3_stmt_busy         1004a270 f   sqlite3.obj
 0001:000492b0       _sqlite3_bind_blob         1004a2b0 f   sqlite3.obj
 0001:000492e0       _sqlite3_bind_blob64       1004a2e0 f   sqlite3.obj
 0001:00049330       _sqlite3_bind_double       1004a330 f   sqlite3.obj
 0001:000493a0       _sqlite3_bind_int          1004a3a0 f   sqlite3.obj
 0001:000493c0       _sqlite3_bind_int64        1004a3c0 f   sqlite3.obj
 0001:00049420       _sqlite3_bind_null         1004a420 f   sqlite3.obj
 0001:00049460       _sqlite3_bind_text         1004a460 f   sqlite3.obj
 0001:00049490       _sqlite3_bind_text16       1004a490 f   sqlite3.obj
 0001:000494c0       _sqlite3_bind_text64       1004a4c0 f   sqlite3.obj
 0001:00049520       _sqlite3_bind_value        1004a520 f   sqlite3.obj
 0001:00049640       _sqlite3_bind_pointer      1004a640 f   sqlite3.obj
 0001:000496c0       _sqlite3_bind_zeroblob     1004a6c0 f   sqlite3.obj
 0001:00049720       _sqlite3_bind_zeroblob64   1004a720 f   sqlite3.obj
 0001:000497c0       _sqlite3_bind_parameter_count 1004a7c0 f   sqlite3.obj
 0001:000497f0       _sqlite3_bind_parameter_name 1004a7f0 f   sqlite3.obj
 0001:00049820       _sqlite3_bind_parameter_index 1004a820 f   sqlite3.obj
 0001:00049850       _sqlite3_clear_bindings    1004a850 f   sqlite3.obj
 0001:00049900       _sqlite3_column_count      1004a900 f   sqlite3.obj
 0001:00049930       _sqlite3_column_name       1004a930 f   sqlite3.obj
 0001:00049950       _sqlite3_column_name16     1004a950 f   sqlite3.obj
 0001:00049970       _sqlite3_column_decltype   1004a970 f   sqlite3.obj
 0001:00049990       _sqlite3_column_decltype16 1004a990 f   sqlite3.obj
 0001:000499b0       _sqlite3_step              1004a9b0 f   sqlite3.obj
 0001:00049b40       _sqlite3_data_count        1004ab40 f   sqlite3.obj
 0001:00049b70       _sqlite3_column_blob       1004ab70 f   sqlite3.obj
 0001:00049bb0       _sqlite3_column_double     1004abb0 f   sqlite3.obj
 0001:00049bf0       _sqlite3_column_int        1004abf0 f   sqlite3.obj
 0001:00049c30       _sqlite3_column_int64      1004ac30 f   sqlite3.obj
 0001:00049c70       _sqlite3_column_text       1004ac70 f   sqlite3.obj
 0001:00049cb0       _sqlite3_column_text16     1004acb0 f   sqlite3.obj
 0001:00049cf0       _sqlite3_column_value      1004acf0 f   sqlite3.obj
 0001:00049d50       _sqlite3_column_bytes      1004ad50 f   sqlite3.obj
 0001:00049d90       _sqlite3_column_bytes16    1004ad90 f   sqlite3.obj
 0001:00049dd0       _sqlite3_column_type       1004add0 f   sqlite3.obj
 0001:00049e10       _sqlite3_finalize          1004ae10 f   sqlite3.obj
 0001:00049ed0       _sqlite3_reset             1004aed0 f   sqlite3.obj
 0001:00049f80       _sqlite3_create_function   1004af80 f   sqlite3.obj
 0001:00049fb0       _sqlite3_create_function16 1004afb0 f   sqlite3.obj
 0001:0004a050       _sqlite3_create_function_v2 1004b050 f   sqlite3.obj
 0001:0004a130       _sqlite3_aggregate_count   1004b130 f   sqlite3.obj
 0001:0004a140       _sqlite3_expired           1004b140 f   sqlite3.obj
 0001:0004a180       _sqlite3_transfer_bindings 1004b180 f   sqlite3.obj
 0001:0004a210       _sqlite3_global_recover    1004b210 f   sqlite3.obj
 0001:0004a220       _sqlite3_thread_cleanup    1004b220 f   sqlite3.obj
 0001:0004a230       _sqlite3_memory_alarm      1004b230 f   sqlite3.obj
 0001:0004a240       _sqlite3_value_blob        1004b240 f   sqlite3.obj
 0001:0004a2d0       _sqlite3_value_double      1004b2d0 f   sqlite3.obj
 0001:0004a2f0       _sqlite3_value_int         1004b2f0 f   sqlite3.obj
 0001:0004a310       _sqlite3_value_int64       1004b310 f   sqlite3.obj
 0001:0004a330       _sqlite3_value_pointer     1004b330 f   sqlite3.obj
 0001:0004a390       _sqlite3_value_text        1004b390 f   sqlite3.obj
 0001:0004a3b0       _sqlite3_value_text16      1004b3b0 f   sqlite3.obj
 0001:0004a3d0       _sqlite3_value_text16le    1004b3d0 f   sqlite3.obj
 0001:0004a3f0       _sqlite3_value_text16be    1004b3f0 f   sqlite3.obj
 0001:0004a410       _sqlite3_value_bytes       1004b410 f   sqlite3.obj
 0001:0004a430       _sqlite3_value_bytes16     1004b430 f   sqlite3.obj
 0001:0004a450       _sqlite3_value_type        1004b450 f   sqlite3.obj
 0001:0004a470       _sqlite3_value_numeric_type 1004b470 f   sqlite3.obj
 0001:0004a4c0       _sqlite3_value_nochange    1004b4c0 f   sqlite3.obj
 0001:0004a4f0       _sqlite3_value_subtype     1004b4f0 f   sqlite3.obj
 0001:0004a530       _sqlite3_value_dup         1004b530 f   sqlite3.obj
 0001:0004a600       _sqlite3_value_free        1004b600 f   sqlite3.obj
 0001:0004a620       _sqlite3_aggregate_context 1004b620 f   sqlite3.obj
 0001:0004a660       _sqlite3_user_data         1004b660 f   sqlite3.obj
 0001:0004a670       _sqlite3_context_db_handle 1004b670 f   sqlite3.obj
 0001:0004a680       _sqlite3_get_auxdata       1004b680 f   sqlite3.obj
 0001:0004a6e0       _sqlite3_set_auxdata       1004b6e0 f   sqlite3.obj
 0001:0004a7e0       _sqlite3_result_blob       1004b7e0 f   sqlite3.obj
 0001:0004a800       _sqlite3_result_blob64     1004b800 f   sqlite3.obj
 0001:0004a850       _sqlite3_result_double     1004b850 f   sqlite3.obj
 0001:0004a870       _sqlite3_result_error      1004b870 f   sqlite3.obj
 0001:0004a8a0       _sqlite3_result_error16    1004b8a0 f   sqlite3.obj
 0001:0004a8d0       _sqlite3_result_error_toobig 1004b8d0 f   sqlite3.obj
 0001:0004a900       _sqlite3_result_error_nomem 1004b900 f   sqlite3.obj
 0001:0004a930       _sqlite3_result_error_code 1004b930 f   sqlite3.obj
 0001:0004a990       _sqlite3_result_int        1004b990 f   sqlite3.obj
 0001:0004a9b0       _sqlite3_result_int64      1004b9b0 f   sqlite3.obj
 0001:0004a9d0       _sqlite3_result_null       1004b9d0 f   sqlite3.obj
 0001:0004a9f0       _sqlite3_result_text       1004b9f0 f   sqlite3.obj
 0001:0004aa10       _sqlite3_result_text64     1004ba10 f   sqlite3.obj
 0001:0004aa70       _sqlite3_result_text16     1004ba70 f   sqlite3.obj
 0001:0004aa90       _sqlite3_result_text16le   1004ba90 f   sqlite3.obj
 0001:0004aab0       _sqlite3_result_text16be   1004bab0 f   sqlite3.obj
 0001:0004aad0       _sqlite3_result_value      1004bad0 f   sqlite3.obj
 0001:0004aaf0       _sqlite3_result_pointer    1004baf0 f   sqlite3.obj
 0001:0004ab30       _sqlite3_result_zeroblob   1004bb30 f   sqlite3.obj
 0001:0004ab50       _sqlite3_result_zeroblob64 1004bb50 f   sqlite3.obj
 0001:0004abb0       _sqlite3_result_subtype    1004bbb0 f   sqlite3.obj
 0001:0004abf0       _sqlite3_create_collation  1004bbf0 f   sqlite3.obj
 0001:0004ac20       _sqlite3_create_collation_v2 1004bc20 f   sqlite3.obj
 0001:0004ac80       _sqlite3_create_collation16 1004bc80 f   sqlite3.obj
 0001:0004ad20       _sqlite3_collation_needed  1004bd20 f   sqlite3.obj
 0001:0004ad70       _sqlite3_collation_needed16 1004bd70 f   sqlite3.obj
 0001:0004adc0       _sqlite3_sleep             1004bdc0 f   sqlite3.obj
 0001:0004ae10       _sqlite3_get_autocommit    1004be10 f   sqlite3.obj
 0001:0004ae20       _sqlite3_db_handle         1004be20 f   sqlite3.obj
 0001:0004ae50       _sqlite3_db_filename       1004be50 f   sqlite3.obj
 0001:0004ae90       _sqlite3_db_readonly       1004be90 f   sqlite3.obj
 0001:0004aed0       _sqlite3_next_stmt         1004bed0 f   sqlite3.obj
 0001:0004af20       _sqlite3_commit_hook       1004bf20 f   sqlite3.obj
 0001:0004af70       _sqlite3_rollback_hook     1004bf70 f   sqlite3.obj
 0001:0004afc0       _sqlite3_update_hook       1004bfc0 f   sqlite3.obj
 0001:0004b010       _sqlite3_enable_shared_cache 1004c010 f   sqlite3.obj
 0001:0004b020       _sqlite3_release_memory    1004c020 f   sqlite3.obj
 0001:0004b030       _sqlite3_db_release_memory 1004c030 f   sqlite3.obj
 0001:0004b0d0       _sqlite3_soft_heap_limit64 1004c0d0 f   sqlite3.obj
 0001:0004b1e0       _sqlite3_soft_heap_limit   1004c1e0 f   sqlite3.obj
 0001:0004b200       _sqlite3_table_column_metadata 1004c200 f   sqlite3.obj
 0001:0004b510       _sqlite3_load_extension    1004c510 f   sqlite3.obj
 0001:0004b570       _sqlite3_enable_load_extension 1004c570 f   sqlite3.obj
 0001:0004b5c0       _sqlite3_auto_extension    1004c5c0 f   sqlite3.obj
 0001:0004b6c0       _sqlite3_cancel_auto_extension 1004c6c0 f   sqlite3.obj
 0001:0004b760       _sqlite3_reset_auto_extension 1004c760 f   sqlite3.obj
 0001:0004b7c0       _sqlite3_create_module     1004c7c0 f   sqlite3.obj
 0001:0004b7e0       _sqlite3_create_module_v2  1004c7e0 f   sqlite3.obj
 0001:0004b810       _sqlite3_declare_vtab      1004c810 f   sqlite3.obj
 0001:0004ba80       _sqlite3_overload_function 1004ca80 f   sqlite3.obj
 0001:0004bb10       _sqlite3_blob_open         1004cb10 f   sqlite3.obj
 0001:0004c170       _sqlite3_blob_reopen       1004d170 f   sqlite3.obj
 0001:0004c250       _sqlite3_blob_close        1004d250 f   sqlite3.obj
 0001:0004c2c0       _sqlite3_blob_bytes        1004d2c0 f   sqlite3.obj
 0001:0004c300       _sqlite3_blob_read         1004d300 f   sqlite3.obj
 0001:0004c330       _sqlite3_blob_write        1004d330 f   sqlite3.obj
 0001:0004c360       _sqlite3_vfs_find          1004d360 f   sqlite3.obj
 0001:0004c3f0       _sqlite3_vfs_register      1004d3f0 f   sqlite3.obj
 0001:0004c480       _sqlite3_vfs_unregister    1004d480 f   sqlite3.obj
 0001:0004c4c0       _sqlite3_mutex_alloc       1004d4c0 f   sqlite3.obj
 0001:0004c500       _sqlite3_mutex_free        1004d500 f   sqlite3.obj
 0001:0004c520       _sqlite3_mutex_enter       1004d520 f   sqlite3.obj
 0001:0004c540       _sqlite3_mutex_try         1004d540 f   sqlite3.obj
 0001:0004c570       _sqlite3_mutex_leave       1004d570 f   sqlite3.obj
 0001:0004c590       _sqlite3_db_mutex          1004d590 f   sqlite3.obj
 0001:0004c5a0       _sqlite3_file_control      1004d5a0 f   sqlite3.obj
 0001:0004c6a0       _sqlite3_test_control      1004d6a0 f   sqlite3.obj
 0001:0004cad0       _sqlite3_status            1004dad0 f   sqlite3.obj
 0001:0004cb20       _sqlite3_status64          1004db20 f   sqlite3.obj
 0001:0004cbd0       _sqlite3_db_status         1004dbd0 f   sqlite3.obj
 0001:0004d0a0       _sqlite3_stmt_status       1004e0a0 f   sqlite3.obj
 0001:0004d150       _sqlite3_backup_init       1004e150 f   sqlite3.obj
 0001:0004d2a0       _sqlite3_backup_step       1004e2a0 f   sqlite3.obj
 0001:0004d960       _sqlite3_backup_finish     1004e960 f   sqlite3.obj
 0001:0004dab0       _sqlite3_backup_remaining  1004eab0 f   sqlite3.obj
 0001:0004dac0       _sqlite3_backup_pagecount  1004eac0 f   sqlite3.obj
 0001:0004dad0       _sqlite3_stricmp           1004ead0 f   sqlite3.obj
 0001:0004db20       _sqlite3_strnicmp          1004eb20 f   sqlite3.obj
 0001:0004dbf0       _sqlite3_strglob           1004ebf0 f   sqlite3.obj
 0001:0004dc10       _sqlite3_strlike           1004ec10 f   sqlite3.obj
 0001:0004dc30       _sqlite3_log               1004ec30 f   sqlite3.obj
 0001:0004dc70       _sqlite3_wal_hook          1004ec70 f   sqlite3.obj
 0001:0004dcc0       _sqlite3_wal_autocheckpoint 1004ecc0 f   sqlite3.obj
 0001:0004dd00       _sqlite3_wal_checkpoint    1004ed00 f   sqlite3.obj
 0001:0004dd20       _sqlite3_wal_checkpoint_v2 1004ed20 f   sqlite3.obj
 0001:0004de40       _sqlite3_vtab_config       1004ee40 f   sqlite3.obj
 0001:0004def0       _sqlite3_vtab_on_conflict  1004eef0 f   sqlite3.obj
 0001:0004df10       _sqlite3_vtab_nochange     1004ef10 f   sqlite3.obj
 0001:0004df30       _sqlite3_vtab_collation    1004ef30 f   sqlite3.obj
 0001:0004dfe0       _sqlite3_db_cacheflush     1004efe0 f   sqlite3.obj
 0001:0004e0d0       _sqlite3_system_errno      1004f0d0 f   sqlite3.obj
 0001:0008aed0       _sqlite3_win32_is_nt       1008bed0 f   sqlite3.obj
 0001:0008aee0       _sqlite3_win32_sleep       1008bee0 f   sqlite3.obj
 0001:0008c080       _sqlite3_win32_write_debug 1008d080 f   sqlite3.obj
 0001:0008c480       _sqlite3_win32_utf8_to_unicode 1008d480 f   sqlite3.obj
 0001:0008c4a0       _sqlite3_win32_unicode_to_utf8 1008d4a0 f   sqlite3.obj
 0001:0008c4c0       _sqlite3_win32_mbcs_to_utf8 1008d4c0 f   sqlite3.obj
 0001:0008c4f0       _sqlite3_win32_mbcs_to_utf8_v2 1008d4f0 f   sqlite3.obj
 0001:0008c520       _sqlite3_win32_utf8_to_mbcs 1008d520 f   sqlite3.obj
 0001:0008c550       _sqlite3_win32_utf8_to_mbcs_v2 1008d550 f   sqlite3.obj
 0001:0008c580       _sqlite3_win32_set_directory 1008d580 f   sqlite3.obj
 0001:000d2cb0       _DetourBinaryOpen@4        100d3cb0 f   image.obj
 0001:000d2d50       _DetourBinaryEnumeratePayloads@16 100d3d50 f   image.obj
 0001:000d2d90       _DetourBinaryFindPayload@12 100d3d90 f   image.obj
 0001:000d2dd0       _DetourBinarySetPayload@16 100d3dd0 f   image.obj
 0001:000d2e10       _DetourBinaryDeletePayload@8 100d3e10 f   image.obj
 0001:000d2e40       _DetourBinaryPurgePayloads@4 100d3e40 f   image.obj
 0001:000d2e70       _DetourBinaryResetImports@4 100d3e70 f   image.obj
 0001:000d2eb0       _DetourBinaryEditImports@24 100d3eb0 f   image.obj
 0001:000d2ef0       _DetourBinaryWrite@8       100d3ef0 f   image.obj
 0001:000d2f20       _DetourBinaryClose@4       100d3f20 f   image.obj
 0001:000d2f90       ??0CImageData@Detour@@QAE@PAEK@Z 100d3f90 f   image.obj
 0001:000d2fc0       ??1CImageData@Detour@@QAE@XZ 100d3fc0 f   image.obj
 0001:000d3040       ?Enumerate@CImageData@Detour@@QAEPAEPAU_GUID@@PAK1@Z 100d4040 f   image.obj
 0001:000d3100       ?Find@CImageData@Detour@@QAEPAEABU_GUID@@PAK@Z 100d4100 f   image.obj
 0001:000d3300       ?Set@CImageData@Detour@@QAEPAEABU_GUID@@PAEK@Z 100d4300 f   image.obj
 0001:000d3410       ?Delete@CImageData@Detour@@QAEHABU_GUID@@@Z 100d4410 f   image.obj
 0001:000d34c0       ?Purge@CImageData@Detour@@QAEHXZ 100d44c0 f   image.obj
 0001:000d34f0       ?IsValid@CImageData@Detour@@QAEHXZ 100d44f0 f   image.obj
 0001:000d3570       ?SizeTo@CImageData@Detour@@IAEHK@Z 100d4570 f   image.obj
 0001:000d3630       ??0CImageImportFile@Detour@@QAE@XZ 100d4630 f   image.obj
 0001:000d36a0       ??1CImageImportFile@Detour@@QAE@XZ 100d46a0 f   image.obj
 0001:000d3780       ??0CImageImportName@Detour@@QAE@XZ 100d4780 f   image.obj
 0001:000d37c0       ??1CImageImportName@Detour@@QAE@XZ 100d47c0 f   image.obj
 0001:000d3820       ??0CImage@Detour@@QAE@XZ   100d4820 f   image.obj
 0001:000d38b0       ??1CImage@Detour@@QAE@XZ   100d48b0 f   image.obj
 0001:000d38f0       ?IsValid@CImage@Detour@@SAPAV12@PAX@Z 100d48f0 f   image.obj
 0001:000d3920       ?Read@CImage@Detour@@QAEHPAX@Z 100d4920 f   image.obj
 0001:000d43c0       ?Write@CImage@Detour@@QAEHPAX@Z 100d53c0 f   image.obj
 0001:000d5330       ?Close@CImage@Detour@@QAEHXZ 100d6330 f   image.obj
 0001:000d5460       ?DataEnum@CImage@Detour@@QAEPAEPAU_GUID@@PAK1@Z 100d6460 f   image.obj
 0001:000d54a0       ?DataFind@CImage@Detour@@QAEPAEABU_GUID@@PAK@Z 100d64a0 f   image.obj
 0001:000d54d0       ?DataSet@CImage@Detour@@QAEPAEABU_GUID@@PAEK@Z 100d64d0 f   image.obj
 0001:000d5510       ?DataDelete@CImage@Detour@@QAEHABU_GUID@@@Z 100d6510 f   image.obj
 0001:000d5540       ?DataPurge@CImage@Detour@@QAEHXZ 100d6540 f   image.obj
 0001:000d5570       ?EditImports@CImage@Detour@@QAEHPAXP6GH0PBDPAPBD@ZP6GH0112@ZP6GH0KKPAK112@ZP6GH0@Z@Z 100d6570 f   image.obj
 0001:000d5920       ?WriteFile@CImage@Detour@@IAEHPAXPBXKPAK@Z 100d6920 f   image.obj
 0001:000d5950       ?CopyFileData@CImage@Detour@@IAEHPAXKK@Z 100d6950 f   image.obj
 0001:000d5990       ?ZeroFileData@CImage@Detour@@IAEHPAXK@Z 100d6990 f   image.obj
 0001:000d5a40       ?AlignFileData@CImage@Detour@@IAEHPAX@Z 100d6a40 f   image.obj
 0001:000d5ad0       ?SizeOutputBuffer@CImage@Detour@@IAEHK@Z 100d6ad0 f   image.obj
 0001:000d5bd0       ?AllocateOutput@CImage@Detour@@IAEPAEKPAK@Z 100d6bd0 f   image.obj
 0001:000d5c70       ?RvaToVa@CImage@Detour@@IAEPAXK@Z 100d6c70 f   image.obj
 0001:000d5d10       ?RvaToFileOffset@CImage@Detour@@IAEKK@Z 100d6d10 f   image.obj
 0001:000d5da0       ?FileAlign@CImage@Detour@@IAEKK@Z 100d6da0 f   image.obj
 0001:000d5dd0       ?SectionAlign@CImage@Detour@@IAEKK@Z 100d6dd0 f   image.obj
 0001:000d5e00       ?CheckImportsNeeded@CImage@Detour@@IAEHPAK00@Z 100d6e00 f   image.obj
 0001:000d5f90       ?NewByway@CImage@Detour@@IAEPAVCImageImportFile@2@PBD@Z 100d6f90 f   image.obj
 0001:000d62b0       ??0CImageChars@Detour@@QAE@PAVCImage@1@KPAK@Z 100d72b0 f i image.obj
 0001:000d6310       ??0CImageThunks@Detour@@QAE@PAVCImage@1@KPAK@Z 100d7310 f i image.obj
 0001:000d6370       ??_ECImageImportName@Detour@@QAEPAXI@Z 100d7370 f i image.obj
 0001:000d6410       ??_GCImage@Detour@@QAEPAXI@Z 100d7410 f i image.obj
 0001:000d6450       ??_GCImageData@Detour@@QAEPAXI@Z 100d7450 f i image.obj
 0001:000d6480       ??_GCImageImportFile@Detour@@QAEPAXI@Z 100d7480 f i image.obj
 0001:000d64b0       ?Allocate@CImageChars@Detour@@QAEPBDPBDKPAK@Z 100d74b0 f i image.obj
 0001:000d6580       ?Allocate@CImageChars@Detour@@QAEPBDPBDPAK@Z 100d7580 f i image.obj
 0001:000d6640       ?Allocate@CImageThunks@Detour@@QAEPAU_IMAGE_THUNK_DATA32@@KPAK@Z 100d7640 f i image.obj
 0001:000d66c0       ?Current@CImageThunks@Detour@@QAEPAU_IMAGE_THUNK_DATA32@@PAK@Z 100d76c0 f i image.obj
 0001:000d6700       ?IsEmpty@CImageData@Detour@@QAEHXZ 100d7700 f i image.obj
 0001:000d68c0       _DetourFindFunction@8      100d78c0 f   modules.obj
 0001:000d6a70       _DetourGetContainingModule@4 100d7a70 f   modules.obj
 0001:000d6c40       _DetourEnumerateModules@4  100d7c40 f   modules.obj
 0001:000d6da0       _DetourGetEntryPoint@4     100d7da0 f   modules.obj
 0001:000d7020       _DetourGetModuleSize@4     100d8020 f   modules.obj
 0001:000d7180       _DetourEnumerateExports@12 100d8180 f   modules.obj
 0001:000d7470       _DetourEnumerateImports@16 100d8470 f   modules.obj
 0001:000d74a0       _DetourEnumerateImportsEx@16 100d84a0 f   modules.obj
 0001:000d77d0       _DetourFindPayload@12      100d87d0 f   modules.obj
 0001:000d7ad0       _DetourFindPayloadEx@8     100d8ad0 f   modules.obj
 0001:000d7b20       _DetourGetSizeOfPayloads@4 100d8b20 f   modules.obj
 0001:000d7c20       _DetourRestoreAfterWith@0  100d8c20 f   modules.obj
 0001:000d7c60       _DetourRestoreAfterWithEx@8 100d8c60 f   modules.obj
 0001:000d7e10       ?DetourLoadImageHlp@@YAPAU_DETOUR_SYM_INFO@@XZ 100d8e10 f   modules.obj
 0001:000d82f0       ??1Renderer@@QAE@XZ        100d92f0 f   Renderer.obj
 0001:000d8310       ?IsReady@Renderer@@QBE_NXZ 100d9310 f   Renderer.obj
 0001:000d8320       ?IsActive@Renderer@@QBE_NXZ 100d9320 f   Renderer.obj
 0001:000d8360       ?Initialize@Renderer@@QAE_NPAUHWND__@@PAUIDirect3DDevice9@@@Z 100d9360 f   Renderer.obj
 0001:000d83b0       ?HandleInputMessage@Renderer@@QAE_NIIJ@Z 100d93b0 f   Renderer.obj
 0001:000d8420       ?hkWndProc@@YGJPAUHWND__@@IIJ@Z 100d9420 f   Renderer.obj
 0001:000d8600       ??0Renderer@@QAE@XZ        100d9600 f i Renderer.obj
 0001:000d8630       ?GetIO@ImGui@@YAAAUImGuiIO@@XZ 100d9630 f   imgui.obj
 0001:000d8640       ?GetStyle@ImGui@@YAAAUImGuiStyle@@XZ 100d9640 f   imgui.obj
 0001:000d8650       ?GetDrawData@ImGui@@YAPAUImDrawData@@XZ 100d9650 f   imgui.obj
 0001:000d8690       ?NewFrame@ImGui@@YAXXZ     100d9690 f   imgui.obj
 0001:000d9760       ?Render@ImGui@@YAXXZ       100da760 f   imgui.obj
 0001:000d9d70       ?Shutdown@ImGui@@YAXXZ     100dad70 f   imgui.obj
 0001:000da050       ?ShowMetricsWindow@ImGui@@YAXPA_N@Z 100db050 f   imgui.obj
 0001:000da3e0       ?Begin@ImGui@@YA_NPBDPA_NH@Z 100db3e0 f   imgui.obj
 0001:000da430       ?Begin@ImGui@@YA_NPBDPA_NABUImVec2@@MH@Z 100db430 f   imgui.obj
 0001:000dd490       ?End@ImGui@@YAXXZ          100de490 f   imgui.obj
 0001:000dd550       ?BeginChild@ImGui@@YA_NPBDABUImVec2@@_NH@Z 100de550 f   imgui.obj
 0001:000dd590       ?BeginChild@ImGui@@YA_NIABUImVec2@@_NH@Z 100de590 f   imgui.obj
 0001:000dd5b0       ?EndChild@ImGui@@YAXXZ     100de5b0 f   imgui.obj
 0001:000dd6c0       ?GetContentRegionMax@ImGui@@YA?AUImVec2@@XZ 100de6c0 f   imgui.obj
 0001:000dd730       ?GetContentRegionAvail@ImGui@@YA?AUImVec2@@XZ 100de730 f   imgui.obj
 0001:000dd780       ?GetContentRegionAvailWidth@ImGui@@YAMXZ 100de780 f   imgui.obj
 0001:000dd7a0       ?GetWindowContentRegionMin@ImGui@@YA?AUImVec2@@XZ 100de7a0 f   imgui.obj
 0001:000dd7d0       ?GetWindowContentRegionMax@ImGui@@YA?AUImVec2@@XZ 100de7d0 f   imgui.obj
 0001:000dd800       ?GetWindowContentRegionWidth@ImGui@@YAMXZ 100de800 f   imgui.obj
 0001:000dd830       ?GetWindowDrawList@ImGui@@YAPAUImDrawList@@XZ 100de830 f   imgui.obj
 0001:000dd850       ?GetWindowPos@ImGui@@YA?AUImVec2@@XZ 100de850 f   imgui.obj
 0001:000dd890       ?GetWindowSize@ImGui@@YA?AUImVec2@@XZ 100de890 f   imgui.obj
 0001:000dd8c0       ?GetWindowWidth@ImGui@@YAMXZ 100de8c0 f   imgui.obj
 0001:000dd8e0       ?GetWindowHeight@ImGui@@YAMXZ 100de8e0 f   imgui.obj
 0001:000dd900       ?IsWindowCollapsed@ImGui@@YA_NXZ 100de900 f   imgui.obj
 0001:000dd920       ?SetWindowFontScale@ImGui@@YAXM@Z 100de920 f   imgui.obj
 0001:000dd960       ?SetNextWindowPos@ImGui@@YAXABUImVec2@@H@Z 100de960 f   imgui.obj
 0001:000dd9b0       ?SetNextWindowPosCenter@ImGui@@YAXH@Z 100de9b0 f   imgui.obj
 0001:000dda20       ?SetNextWindowSize@ImGui@@YAXABUImVec2@@H@Z 100dea20 f   imgui.obj
 0001:000dda70       ?SetNextWindowSizeConstraints@ImGui@@YAXABUImVec2@@0P6AXPAUImGuiSizeConstraintCallbackData@@@ZPAX@Z 100dea70 f   imgui.obj
 0001:000ddae0       ?SetNextWindowContentSize@ImGui@@YAXABUImVec2@@@Z 100deae0 f   imgui.obj
 0001:000ddb20       ?SetNextWindowContentWidth@ImGui@@YAXM@Z 100deb20 f   imgui.obj
 0001:000ddba0       ?SetNextWindowCollapsed@ImGui@@YAX_NH@Z 100deba0 f   imgui.obj
 0001:000ddbe0       ?SetNextWindowFocus@ImGui@@YAXXZ 100debe0 f   imgui.obj
 0001:000ddc00       ?SetWindowPos@ImGui@@YAXABUImVec2@@H@Z 100dec00 f   imgui.obj
 0001:000ddc30       ?SetWindowSize@ImGui@@YAXABUImVec2@@H@Z 100dec30 f   imgui.obj
 0001:000ddc60       ?SetWindowCollapsed@ImGui@@YAX_NH@Z 100dec60 f   imgui.obj
 0001:000ddc90       ?SetWindowFocus@ImGui@@YAXXZ 100dec90 f   imgui.obj
 0001:000ddcb0       ?SetWindowPos@ImGui@@YAXPBDABUImVec2@@H@Z 100decb0 f   imgui.obj
 0001:000ddcf0       ?SetWindowSize@ImGui@@YAXPBDABUImVec2@@H@Z 100decf0 f   imgui.obj
 0001:000ddd30       ?SetWindowCollapsed@ImGui@@YAXPBD_NH@Z 100ded30 f   imgui.obj
 0001:000ddd70       ?SetWindowFocus@ImGui@@YAXPBD@Z 100ded70 f   imgui.obj
 0001:000dddb0       ?GetScrollX@ImGui@@YAMXZ   100dedb0 f   imgui.obj
 0001:000dddd0       ?GetScrollY@ImGui@@YAMXZ   100dedd0 f   imgui.obj
 0001:000dddf0       ?GetScrollMaxX@ImGui@@YAMXZ 100dedf0 f   imgui.obj
 0001:000dde30       ?GetScrollMaxY@ImGui@@YAMXZ 100dee30 f   imgui.obj
 0001:000dde70       ?SetScrollX@ImGui@@YAXM@Z  100dee70 f   imgui.obj
 0001:000ddea0       ?SetScrollY@ImGui@@YAXM@Z  100deea0 f   imgui.obj
 0001:000ddf00       ?SetScrollHere@ImGui@@YAXM@Z 100def00 f   imgui.obj
 0001:000ddf80       ?SetScrollFromPosY@ImGui@@YAXMM@Z 100def80 f   imgui.obj
 0001:000ddfe0       ?SetKeyboardFocusHere@ImGui@@YAXH@Z 100defe0 f   imgui.obj
 0001:000de020       ?SetStateStorage@ImGui@@YAXPAUImGuiStorage@@@Z 100df020 f   imgui.obj
 0001:000de060       ?GetStateStorage@ImGui@@YAPAUImGuiStorage@@XZ 100df060 f   imgui.obj
 0001:000de080       ?PushFont@ImGui@@YAXPAUImFont@@@Z 100df080 f   imgui.obj
 0001:000de0e0       ?PopFont@ImGui@@YAXXZ      100df0e0 f   imgui.obj
 0001:000de160       ?PushStyleColor@ImGui@@YAXHABUImVec4@@@Z 100df160 f   imgui.obj
 0001:000de1f0       ?PopStyleColor@ImGui@@YAXH@Z 100df1f0 f   imgui.obj
 0001:000de260       ?PushStyleVar@ImGui@@YAXHM@Z 100df260 f   imgui.obj
 0001:000de2d0       ?PushStyleVar@ImGui@@YAXHABUImVec2@@@Z 100df2d0 f   imgui.obj
 0001:000de340       ?PopStyleVar@ImGui@@YAXH@Z 100df340 f   imgui.obj
 0001:000de440       ?GetFont@ImGui@@YAPAUImFont@@XZ 100df440 f   imgui.obj
 0001:000de450       ?GetFontSize@ImGui@@YAMXZ  100df450 f   imgui.obj
 0001:000de460       ?GetFontTexUvWhitePixel@ImGui@@YA?AUImVec2@@XZ 100df460 f   imgui.obj
 0001:000de490       ?GetColorU32@ImGui@@YAIHM@Z 100df490 f   imgui.obj
 0001:000de4f0       ?GetColorU32@ImGui@@YAIABUImVec4@@@Z 100df4f0 f   imgui.obj
 0001:000de540       ?PushItemWidth@ImGui@@YAXM@Z 100df540 f   imgui.obj
 0001:000de5b0       ?PopItemWidth@ImGui@@YAXXZ 100df5b0 f   imgui.obj
 0001:000de620       ?CalcItemWidth@ImGui@@YAMXZ 100df620 f   imgui.obj
 0001:000de6a0       ?PushTextWrapPos@ImGui@@YAXM@Z 100df6a0 f   imgui.obj
 0001:000de6e0       ?PopTextWrapPos@ImGui@@YAXXZ 100df6e0 f   imgui.obj
 0001:000de750       ?PushAllowKeyboardFocus@ImGui@@YAX_N@Z 100df750 f   imgui.obj
 0001:000de780       ?PopAllowKeyboardFocus@ImGui@@YAXXZ 100df780 f   imgui.obj
 0001:000de7e0       ?PushButtonRepeat@ImGui@@YAX_N@Z 100df7e0 f   imgui.obj
 0001:000de810       ?PopButtonRepeat@ImGui@@YAXXZ 100df810 f   imgui.obj
 0001:000de870       ?Separator@ImGui@@YAXXZ    100df870 f   imgui.obj
 0001:000dea50       ?SameLine@ImGui@@YAXMM@Z   100dfa50 f   imgui.obj
 0001:000deb60       ?NewLine@ImGui@@YAXXZ      100dfb60 f   imgui.obj
 0001:000dec00       ?Spacing@ImGui@@YAXXZ      100dfc00 f   imgui.obj
 0001:000dec50       ?Dummy@ImGui@@YAXABUImVec2@@@Z 100dfc50 f   imgui.obj
 0001:000decd0       ?Indent@ImGui@@YAXM@Z      100dfcd0 f   imgui.obj
 0001:000ded60       ?Unindent@ImGui@@YAXM@Z    100dfd60 f   imgui.obj
 0001:000dedf0       ?BeginGroup@ImGui@@YAXXZ   100dfdf0 f   imgui.obj
 0001:000def50       ?EndGroup@ImGui@@YAXXZ     100dff50 f   imgui.obj
 0001:000df180       ?GetCursorPos@ImGui@@YA?AUImVec2@@XZ 100e0180 f   imgui.obj
 0001:000df1d0       ?GetCursorPosX@ImGui@@YAMXZ 100e01d0 f   imgui.obj
 0001:000df210       ?GetCursorPosY@ImGui@@YAMXZ 100e0210 f   imgui.obj
 0001:000df250       ?SetCursorPos@ImGui@@YAXABUImVec2@@@Z 100e0250 f   imgui.obj
 0001:000df2e0       ?SetCursorPosX@ImGui@@YAXM@Z 100e02e0 f   imgui.obj
 0001:000df350       ?SetCursorPosY@ImGui@@YAXM@Z 100e0350 f   imgui.obj
 0001:000df3c0       ?GetCursorStartPos@ImGui@@YA?AUImVec2@@XZ 100e03c0 f   imgui.obj
 0001:000df3f0       ?GetCursorScreenPos@ImGui@@YA?AUImVec2@@XZ 100e03f0 f   imgui.obj
 0001:000df420       ?SetCursorScreenPos@ImGui@@YAXABUImVec2@@@Z 100e0420 f   imgui.obj
 0001:000df480       ?AlignFirstTextHeightToWidgets@ImGui@@YAXXZ 100e0480 f   imgui.obj
 0001:000df520       ?GetTextLineHeight@ImGui@@YAMXZ 100e0520 f   imgui.obj
 0001:000df540       ?GetTextLineHeightWithSpacing@ImGui@@YAMXZ 100e0540 f   imgui.obj
 0001:000df570       ?GetItemsLineHeightWithSpacing@ImGui@@YAMXZ 100e0570 f   imgui.obj
 0001:000df5c0       ?Columns@ImGui@@YAXHPBD_N@Z 100e05c0 f   imgui.obj
 0001:000dfbb0       ?NextColumn@ImGui@@YAXXZ   100e0bb0 f   imgui.obj
 0001:000dfd80       ?GetColumnIndex@ImGui@@YAHXZ 100e0d80 f   imgui.obj
 0001:000dfda0       ?GetColumnOffset@ImGui@@YAMH@Z 100e0da0 f   imgui.obj
 0001:000dfe60       ?SetColumnOffset@ImGui@@YAXHM@Z 100e0e60 f   imgui.obj
 0001:000dff00       ?GetColumnWidth@ImGui@@YAMH@Z 100e0f00 f   imgui.obj
 0001:000dff70       ?GetColumnsCount@ImGui@@YAHXZ 100e0f70 f   imgui.obj
 0001:000dff90       ?PushID@ImGui@@YAXPBD@Z    100e0f90 f   imgui.obj
 0001:000dffd0       ?PushID@ImGui@@YAXPBD0@Z   100e0fd0 f   imgui.obj
 0001:000e0010       ?PushID@ImGui@@YAXPBX@Z    100e1010 f   imgui.obj
 0001:000e0050       ?PushID@ImGui@@YAXH@Z      100e1050 f   imgui.obj
 0001:000e0090       ?PopID@ImGui@@YAXXZ        100e1090 f   imgui.obj
 0001:000e00b0       ?GetID@ImGui@@YAIPBD@Z     100e10b0 f   imgui.obj
 0001:000e00d0       ?GetID@ImGui@@YAIPBD0@Z    100e10d0 f   imgui.obj
 0001:000e00f0       ?GetID@ImGui@@YAIPBX@Z     100e10f0 f   imgui.obj
 0001:000e0110       ?Text@ImGui@@YAXPBDZZ      100e1110 f   imgui.obj
 0001:000e0140       ?TextV@ImGui@@YAXPBDPAD@Z  100e1140 f   imgui.obj
 0001:000e01b0       ?TextColored@ImGui@@YAXABUImVec4@@PBDZZ 100e11b0 f   imgui.obj
 0001:000e01e0       ?TextColoredV@ImGui@@YAXABUImVec4@@PBDPAD@Z 100e11e0 f   imgui.obj
 0001:000e0210       ?TextDisabled@ImGui@@YAXPBDZZ 100e1210 f   imgui.obj
 0001:000e0240       ?TextDisabledV@ImGui@@YAXPBDPAD@Z 100e1240 f   imgui.obj
 0001:000e0280       ?TextWrapped@ImGui@@YAXPBDZZ 100e1280 f   imgui.obj
 0001:000e02b0       ?TextWrappedV@ImGui@@YAXPBDPAD@Z 100e12b0 f   imgui.obj
 0001:000e0320       ?TextUnformatted@ImGui@@YAXPBD0@Z 100e1320 f   imgui.obj
 0001:000e0800       ?LabelText@ImGui@@YAXPBD0ZZ 100e1800 f   imgui.obj
 0001:000e0830       ?LabelTextV@ImGui@@YAXPBD0PAD@Z 100e1830 f   imgui.obj
 0001:000e0a80       ?Bullet@ImGui@@YAXXZ       100e1a80 f   imgui.obj
 0001:000e0c40       ?BulletText@ImGui@@YAXPBDZZ 100e1c40 f   imgui.obj
 0001:000e0c70       ?BulletTextV@ImGui@@YAXPBDPAD@Z 100e1c70 f   imgui.obj
 0001:000e0f10       ?Button@ImGui@@YA_NPBDABUImVec2@@@Z 100e1f10 f   imgui.obj
 0001:000e0f30       ?SmallButton@ImGui@@YA_NPBD@Z 100e1f30 f   imgui.obj
 0001:000e0fb0       ?InvisibleButton@ImGui@@YA_NPBDABUImVec2@@@Z 100e1fb0 f   imgui.obj
 0001:000e1090       ?Image@ImGui@@YAXPAXABUImVec2@@11ABUImVec4@@2@Z 100e2090 f   imgui.obj
 0001:000e1270       ?ImageButton@ImGui@@YA_NPAXABUImVec2@@11HABUImVec4@@2@Z 100e2270 f   imgui.obj
 0001:000e1550       ?Checkbox@ImGui@@YA_NPBDPA_N@Z 100e2550 f   imgui.obj
 0001:000e2b90       ?CheckboxFlags@ImGui@@YA_NPBDPAII@Z 100e3b90 f   imgui.obj
 0001:000e2c10       ?RadioButton@ImGui@@YA_NPBD_N@Z 100e3c10 f   imgui.obj
 0001:000e3140       ?RadioButton@ImGui@@YA_NPBDPAHH@Z 100e4140 f   imgui.obj
 0001:000e3190       ?Combo@ImGui@@YA_NPBDPAHPBQBDHH@Z 100e4190 f   imgui.obj
 0001:000e31c0       ?Combo@ImGui@@YA_NPBDPAH0H@Z 100e41c0 f   imgui.obj
 0001:000e3230       ?Combo@ImGui@@YA_NPBDPAHP6A_NPAXHPAPBD@Z2HH@Z 100e4230 f   imgui.obj
 0001:000e38c0       ?ColorButton@ImGui@@YA_NABUImVec4@@_N1@Z 100e48c0 f   imgui.obj
 0001:000e3a80       ?ColorEdit3@ImGui@@YA_NPBDQAM@Z 100e4a80 f   imgui.obj
 0001:000e3b50       ?ColorEdit4@ImGui@@YA_NPBDQAM_N@Z 100e4b50 f   imgui.obj
 0001:000e47b0       ?ColorEditMode@ImGui@@YAXH@Z 100e57b0 f   imgui.obj
 0001:000e47d0       ?PlotLines@ImGui@@YAXPBDPBMHH0MMUImVec2@@H@Z 100e57d0 f   imgui.obj
 0001:000e4830       ?PlotLines@ImGui@@YAXPBDP6AMPAXH@Z1HH0MMUImVec2@@@Z 100e5830 f   imgui.obj
 0001:000e4880       ?PlotHistogram@ImGui@@YAXPBDPBMHH0MMUImVec2@@H@Z 100e5880 f   imgui.obj
 0001:000e48e0       ?PlotHistogram@ImGui@@YAXPBDP6AMPAXH@Z1HH0MMUImVec2@@@Z 100e58e0 f   imgui.obj
 0001:000e4930       ?ProgressBar@ImGui@@YAXMABUImVec2@@PBD@Z 100e5930 f   imgui.obj
 0001:000e4c20       ?DragFloat@ImGui@@YA_NPBDPAMMMM0M@Z 100e5c20 f   imgui.obj
 0001:000e5050       ?DragFloat2@ImGui@@YA_NPBDQAMMMM0M@Z 100e6050 f   imgui.obj
 0001:000e50a0       ?DragFloat3@ImGui@@YA_NPBDQAMMMM0M@Z 100e60a0 f   imgui.obj
 0001:000e50f0       ?DragFloat4@ImGui@@YA_NPBDQAMMMM0M@Z 100e60f0 f   imgui.obj
 0001:000e5140       ?DragFloatRange2@ImGui@@YA_NPBDPAM1MMM00M@Z 100e6140 f   imgui.obj
 0001:000e5380       ?DragInt@ImGui@@YA_NPBDPAHMHH0@Z 100e6380 f   imgui.obj
 0001:000e5400       ?DragInt2@ImGui@@YA_NPBDQAHMHH0@Z 100e6400 f   imgui.obj
 0001:000e5430       ?DragInt3@ImGui@@YA_NPBDQAHMHH0@Z 100e6430 f   imgui.obj
 0001:000e5460       ?DragInt4@ImGui@@YA_NPBDQAHMHH0@Z 100e6460 f   imgui.obj
 0001:000e5490       ?DragIntRange2@ImGui@@YA_NPBDPAH1MHH00@Z 100e6490 f   imgui.obj
 0001:000e5650       ?InputText@ImGui@@YA_NPBDPADIHP6AHPAUImGuiTextEditCallbackData@@@ZPAX@Z 100e6650 f   imgui.obj
 0001:000e56a0       ?InputTextMultiline@ImGui@@YA_NPBDPADIABUImVec2@@HP6AHPAUImGuiTextEditCallbackData@@@ZPAX@Z 100e66a0 f   imgui.obj
 0001:000e56d0       ?InputFloat@ImGui@@YA_NPBDPAMMMHH@Z 100e66d0 f   imgui.obj
 0001:000e5770       ?InputFloat2@ImGui@@YA_NPBDQAMHH@Z 100e6770 f   imgui.obj
 0001:000e5790       ?InputFloat3@ImGui@@YA_NPBDQAMHH@Z 100e6790 f   imgui.obj
 0001:000e57b0       ?InputFloat4@ImGui@@YA_NPBDQAMHH@Z 100e67b0 f   imgui.obj
 0001:000e57d0       ?InputInt@ImGui@@YA_NPBDPAHHHH@Z 100e67d0 f   imgui.obj
 0001:000e5860       ?InputInt2@ImGui@@YA_NPBDQAHH@Z 100e6860 f   imgui.obj
 0001:000e5880       ?InputInt3@ImGui@@YA_NPBDQAHH@Z 100e6880 f   imgui.obj
 0001:000e58a0       ?InputInt4@ImGui@@YA_NPBDQAHH@Z 100e68a0 f   imgui.obj
 0001:000e58c0       ?SliderFloat@ImGui@@YA_NPBDPAMMM0MUImVec2@@UImVec4@@@Z 100e68c0 f   imgui.obj
 0001:000e5d00       ?SliderFloat2@ImGui@@YA_NPBDQAMMM0M@Z 100e6d00 f   imgui.obj
 0001:000e5d40       ?SliderFloat3@ImGui@@YA_NPBDQAMMM0M@Z 100e6d40 f   imgui.obj
 0001:000e5d80       ?SliderFloat4@ImGui@@YA_NPBDQAMMM0M@Z 100e6d80 f   imgui.obj
 0001:000e5dc0       ?SliderAngle@ImGui@@YA_NPBDPAMMM@Z 100e6dc0 f   imgui.obj
 0001:000e5eb0       ?SliderInt@ImGui@@YA_NPBDPAHHH0UImVec4@@@Z 100e6eb0 f   imgui.obj
 0001:000e5f60       ?SliderInt2@ImGui@@YA_NPBDQAHHH0@Z 100e6f60 f   imgui.obj
 0001:000e5f90       ?SliderInt3@ImGui@@YA_NPBDQAHHH0@Z 100e6f90 f   imgui.obj
 0001:000e5fc0       ?SliderInt4@ImGui@@YA_NPBDQAHHH0@Z 100e6fc0 f   imgui.obj
 0001:000e5ff0       ?VSliderFloat@ImGui@@YA_NPBDABUImVec2@@PAMMM0M@Z 100e6ff0 f   imgui.obj
 0001:000e6320       ?VSliderInt@ImGui@@YA_NPBDABUImVec2@@PAHHH0@Z 100e7320 f   imgui.obj
 0001:000e6390       ?TreeNode@ImGui@@YA_NPBD@Z 100e7390 f   imgui.obj
 0001:000e63e0       ?TreeNode@ImGui@@YA_NPBD0ZZ 100e73e0 f   imgui.obj
 0001:000e6420       ?TreeNode@ImGui@@YA_NPBXPBDZZ 100e7420 f   imgui.obj
 0001:000e6460       ?TreeNodeV@ImGui@@YA_NPBD0PAD@Z 100e7460 f   imgui.obj
 0001:000e6480       ?TreeNodeV@ImGui@@YA_NPBXPBDPAD@Z 100e7480 f   imgui.obj
 0001:000e64a0       ?TreeNodeEx@ImGui@@YA_NPBDH@Z 100e74a0 f   imgui.obj
 0001:000e64f0       ?TreeNodeEx@ImGui@@YA_NPBDH0ZZ 100e74f0 f   imgui.obj
 0001:000e6530       ?TreeNodeEx@ImGui@@YA_NPBXHPBDZZ 100e7530 f   imgui.obj
 0001:000e6570       ?TreeNodeExV@ImGui@@YA_NPBDH0PAD@Z 100e7570 f   imgui.obj
 0001:000e6600       ?TreeNodeExV@ImGui@@YA_NPBXHPBDPAD@Z 100e7600 f   imgui.obj
 0001:000e6680       ?TreePush@ImGui@@YAXPBD@Z  100e7680 f   imgui.obj
 0001:000e66e0       ?TreePush@ImGui@@YAXPBX@Z  100e76e0 f   imgui.obj
 0001:000e6740       ?TreePop@ImGui@@YAXXZ      100e7740 f   imgui.obj
 0001:000e6780       ?TreeAdvanceToLabelPos@ImGui@@YAXXZ 100e7780 f   imgui.obj
 0001:000e67d0       ?GetTreeNodeToLabelSpacing@ImGui@@YAMXZ 100e77d0 f   imgui.obj
 0001:000e6810       ?SetNextTreeNodeOpen@ImGui@@YAX_NH@Z 100e7810 f   imgui.obj
 0001:000e6850       ?CollapsingHeader@ImGui@@YA_NPBDH@Z 100e7850 f   imgui.obj
 0001:000e68a0       ?CollapsingHeader@ImGui@@YA_NPBDPA_NH@Z 100e78a0 f   imgui.obj
 0001:000e6a00       ?Selectable@ImGui@@YA_NPBD_NHABUImVec2@@@Z 100e7a00 f   imgui.obj
 0001:000e6f90       ?Selectable@ImGui@@YA_NPBDPA_NHABUImVec2@@@Z 100e7f90 f   imgui.obj
 0001:000e6ff0       ?ListBox@ImGui@@YA_NPBDPAHPBQBDHH@Z 100e7ff0 f   imgui.obj
 0001:000e7020       ?ListBox@ImGui@@YA_NPBDPAHP6A_NPAXHPAPBD@Z2HH@Z 100e8020 f   imgui.obj
 0001:000e7170       ?ListBoxHeader@ImGui@@YA_NPBDABUImVec2@@@Z 100e8170 f   imgui.obj
 0001:000e7370       ?ListBoxHeader@ImGui@@YA_NPBDHH@Z 100e8370 f   imgui.obj
 0001:000e7420       ?ListBoxFooter@ImGui@@YAXXZ 100e8420 f   imgui.obj
 0001:000e74c0       ?Value@ImGui@@YAXPBD_N@Z   100e84c0 f   imgui.obj
 0001:000e7500       ?Value@ImGui@@YAXPBDH@Z    100e8500 f   imgui.obj
 0001:000e7520       ?Value@ImGui@@YAXPBDI@Z    100e8520 f   imgui.obj
 0001:000e7540       ?Value@ImGui@@YAXPBDM0@Z   100e8540 f   imgui.obj
 0001:000e75b0       ?ValueColor@ImGui@@YAXPBDABUImVec4@@@Z 100e85b0 f   imgui.obj
 0001:000e7640       ?ValueColor@ImGui@@YAXPBDI@Z 100e8640 f   imgui.obj
 0001:000e76a0       ?Hotkey@ImGui@@YA_NPBDPAHABUImVec2@@@Z 100e86a0 f   imgui.obj
 0001:000e7c90       ?SetTooltip@ImGui@@YAXPBDZZ 100e8c90 f   imgui.obj
 0001:000e7cc0       ?SetTooltipV@ImGui@@YAXPBDPAD@Z 100e8cc0 f   imgui.obj
 0001:000e7cf0       ?BeginTooltip@ImGui@@YAXXZ 100e8cf0 f   imgui.obj
 0001:000e7d00       ?EndTooltip@ImGui@@YAXXZ   100e8d00 f   imgui.obj
 0001:000e7d10       ?BeginMainMenuBar@ImGui@@YA_NXZ 100e8d10 f   imgui.obj
 0001:000e7e30       ?EndMainMenuBar@ImGui@@YAXXZ 100e8e30 f   imgui.obj
 0001:000e7e50       ?BeginMenuBar@ImGui@@YA_NXZ 100e8e50 f   imgui.obj
 0001:000e7fa0       ?EndMenuBar@ImGui@@YAXXZ   100e8fa0 f   imgui.obj
 0001:000e8020       ?BeginMenu@ImGui@@YA_NPBD_N@Z 100e9020 f   imgui.obj
 0001:000e8960       ?EndMenu@ImGui@@YAXXZ      100e9960 f   imgui.obj
 0001:000e8970       ?MenuItem@ImGui@@YA_NPBD0_N1@Z 100e9970 f   imgui.obj
 0001:000e8c40       ?MenuItem@ImGui@@YA_NPBD0PA_N_N@Z 100e9c40 f   imgui.obj
 0001:000e8cb0       ?OpenPopup@ImGui@@YAXPBD@Z 100e9cb0 f   imgui.obj
 0001:000e8cd0       ?BeginPopup@ImGui@@YA_NPBD@Z 100e9cd0 f   imgui.obj
 0001:000e8d10       ?BeginPopupModal@ImGui@@YA_NPBDPA_NH@Z 100e9d10 f   imgui.obj
 0001:000e8dd0       ?BeginPopupContextItem@ImGui@@YA_NPBDH@Z 100e9dd0 f   imgui.obj
 0001:000e8e10       ?BeginPopupContextWindow@ImGui@@YA_N_NPBDH@Z 100e9e10 f   imgui.obj
 0001:000e8e80       ?BeginPopupContextVoid@ImGui@@YA_NPBDH@Z 100e9e80 f   imgui.obj
 0001:000e8ed0       ?EndPopup@ImGui@@YAXXZ     100e9ed0 f   imgui.obj
 0001:000e8f00       ?CloseCurrentPopup@ImGui@@YAXXZ 100e9f00 f   imgui.obj
 0001:000e8fc0       ?LogToTTY@ImGui@@YAXH@Z    100e9fc0 f   imgui.obj
 0001:000e9030       ?LogToFile@ImGui@@YAXHPBD@Z 100ea030 f   imgui.obj
 0001:000e90d0       ?LogToClipboard@ImGui@@YAXH@Z 100ea0d0 f   imgui.obj
 0001:000e9140       ?LogFinish@ImGui@@YAXXZ    100ea140 f   imgui.obj
 0001:000e9210       ?LogButtons@ImGui@@YAXXZ   100ea210 f   imgui.obj
 0001:000e9400       ?LogText@ImGui@@YAXPBDZZ   100ea400 f   imgui.obj
 0001:000e9480       ?PushClipRect@ImGui@@YAXABUImVec2@@0_N@Z 100ea480 f   imgui.obj
 0001:000e9500       ?PopClipRect@ImGui@@YAXXZ  100ea500 f   imgui.obj
 0001:000e9560       ?IsItemHovered@ImGui@@YA_NXZ 100ea560 f   imgui.obj
 0001:000e9580       ?IsItemHoveredRect@ImGui@@YA_NXZ 100ea580 f   imgui.obj
 0001:000e95a0       ?IsItemActive@ImGui@@YA_NXZ 100ea5a0 f   imgui.obj
 0001:000e9600       ?IsItemClicked@ImGui@@YA_NH@Z 100ea600 f   imgui.obj
 0001:000e9640       ?IsItemVisible@ImGui@@YA_NXZ 100ea640 f   imgui.obj
 0001:000e9690       ?IsAnyItemHovered@ImGui@@YA_NXZ 100ea690 f   imgui.obj
 0001:000e96d0       ?IsAnyItemActive@ImGui@@YA_NXZ 100ea6d0 f   imgui.obj
 0001:000e9700       ?GetItemRectMin@ImGui@@YA?AUImVec2@@XZ 100ea700 f   imgui.obj
 0001:000e9730       ?GetItemRectMax@ImGui@@YA?AUImVec2@@XZ 100ea730 f   imgui.obj
 0001:000e9760       ?GetItemRectSize@ImGui@@YA?AUImVec2@@XZ 100ea760 f   imgui.obj
 0001:000e9790       ?SetItemAllowOverlap@ImGui@@YAXXZ 100ea790 f   imgui.obj
 0001:000e97f0       ?IsWindowHovered@ImGui@@YA_NXZ 100ea7f0 f   imgui.obj
 0001:000e9850       ?IsWindowFocused@ImGui@@YA_NXZ 100ea850 f   imgui.obj
 0001:000e9890       ?IsRootWindowFocused@ImGui@@YA_NXZ 100ea890 f   imgui.obj
 0001:000e98d0       ?IsRootWindowOrAnyChildFocused@ImGui@@YA_NXZ 100ea8d0 f   imgui.obj
 0001:000e9930       ?IsRootWindowOrAnyChildHovered@ImGui@@YA_NXZ 100ea930 f   imgui.obj
 0001:000e99a0       ?IsRectVisible@ImGui@@YA_NABUImVec2@@@Z 100ea9a0 f   imgui.obj
 0001:000e99f0       ?IsRectVisible@ImGui@@YA_NABUImVec2@@0@Z 100ea9f0 f   imgui.obj
 0001:000e9a30       ?GetTime@ImGui@@YAMXZ      100eaa30 f   imgui.obj
 0001:000e9a40       ?GetFrameCount@ImGui@@YAHXZ 100eaa40 f   imgui.obj
 0001:000e9a50       ?GetStyleColName@ImGui@@YAPBDH@Z 100eaa50 f   imgui.obj
 0001:000e9ca0       ?CalcItemRectClosestPoint@ImGui@@YA?AUImVec2@@ABU2@_NM@Z 100eaca0 f   imgui.obj
 0001:000e9d10       ?CalcTextSize@ImGui@@YA?AUImVec2@@PBD0_NM@Z 100ead10 f   imgui.obj
 0001:000e9e40       ?CalcListClipping@ImGui@@YAXHMPAH0@Z 100eae40 f   imgui.obj
 0001:000e9f30       ?BeginChildFrame@ImGui@@YA_NIABUImVec2@@H@Z 100eaf30 f   imgui.obj
 0001:000e9fe0       ?EndChildFrame@ImGui@@YAXXZ 100eafe0 f   imgui.obj
 0001:000ea000       ?ColorConvertU32ToFloat4@ImGui@@YA?AUImVec4@@I@Z 100eb000 f   imgui.obj
 0001:000ea100       ?ColorConvertFloat4ToU32@ImGui@@YAIABUImVec4@@@Z 100eb100 f   imgui.obj
 0001:000ea200       ?ColorConvertRGBtoHSV@ImGui@@YAXMMMAAM00@Z 100eb200 f   imgui.obj
 0001:000ea320       ?ColorConvertHSVtoRGB@ImGui@@YAXMMMAAM00@Z 100eb320 f   imgui.obj
 0001:000ea530       ?GetKeyIndex@ImGui@@YAHH@Z 100eb530 f   imgui.obj
 0001:000ea550       ?IsKeyDown@ImGui@@YA_NH@Z  100eb550 f   imgui.obj
 0001:000ea570       ?IsKeyPressed@ImGui@@YA_NH_N@Z 100eb570 f   imgui.obj
 0001:000ea6b0       ?IsKeyReleased@ImGui@@YA_NH@Z 100eb6b0 f   imgui.obj
 0001:000ea700       ?IsMouseDown@ImGui@@YA_NH@Z 100eb700 f   imgui.obj
 0001:000ea720       ?IsMouseClicked@ImGui@@YA_NH_N@Z 100eb720 f   imgui.obj
 0001:000ea850       ?IsMouseDoubleClicked@ImGui@@YA_NH@Z 100eb850 f   imgui.obj
 0001:000ea870       ?IsMouseReleased@ImGui@@YA_NH@Z 100eb870 f   imgui.obj
 0001:000ea890       ?IsMouseHoveringWindow@ImGui@@YA_NXZ 100eb890 f   imgui.obj
 0001:000ea8d0       ?IsMouseHoveringAnyWindow@ImGui@@YA_NXZ 100eb8d0 f   imgui.obj
 0001:000ea910       ?IsMouseHoveringRect@ImGui@@YA_NABUImVec2@@0_N@Z 100eb910 f   imgui.obj
 0001:000ea9b0       ?IsMouseDragging@ImGui@@YA_NHM@Z 100eb9b0 f   imgui.obj
 0001:000eaa20       ?GetMousePos@ImGui@@YA?AUImVec2@@XZ 100eba20 f   imgui.obj
 0001:000eaa50       ?GetMousePosOnOpeningCurrentPopup@ImGui@@YA?AUImVec2@@XZ 100eba50 f   imgui.obj
 0001:000eaac0       ?GetMouseDragDelta@ImGui@@YA?AUImVec2@@HM@Z 100ebac0 f   imgui.obj
 0001:000eab60       ?ResetMouseDragDelta@ImGui@@YAXH@Z 100ebb60 f   imgui.obj
 0001:000eaba0       ?GetMouseCursor@ImGui@@YAHXZ 100ebba0 f   imgui.obj
 0001:000eabb0       ?SetMouseCursor@ImGui@@YAXH@Z 100ebbb0 f   imgui.obj
 0001:000eabd0       ?CaptureKeyboardFromApp@ImGui@@YAX_N@Z 100ebbd0 f   imgui.obj
 0001:000eac00       ?CaptureMouseFromApp@ImGui@@YAX_N@Z 100ebc00 f   imgui.obj
 0001:000eac30       ?MemAlloc@ImGui@@YAPAXI@Z  100ebc30 f   imgui.obj
 0001:000eac70       ?MemFree@ImGui@@YAXPAX@Z   100ebc70 f   imgui.obj
 0001:000eacb0       ?GetClipboardText@ImGui@@YAPBDXZ 100ebcb0 f   imgui.obj
 0001:000ead00       ?SetClipboardText@ImGui@@YAXPBD@Z 100ebd00 f   imgui.obj
 0001:000ead40       ?GetVersion@ImGui@@YAPBDXZ 100ebd40 f   imgui.obj
 0001:000ead50       ?CreateContext@ImGui@@YAPAUImGuiContext@@P6APAXI@ZP6AXPAX@Z@Z 100ebd50 f   imgui.obj
 0001:000eae20       ?DestroyContext@ImGui@@YAXPAUImGuiContext@@@Z 100ebe20 f   imgui.obj
 0001:000eae60       ?GetCurrentContext@ImGui@@YAPAUImGuiContext@@XZ 100ebe60 f   imgui.obj
 0001:000eae70       ?SetCurrentContext@ImGui@@YAXPAUImGuiContext@@@Z 100ebe70 f   imgui.obj
 0001:000eae80       ??0ImGuiStyle@@QAE@XZ      100ebe80 f   imgui.obj
 0001:000ec350       ?AddInputCharacter@ImGuiIO@@QAEXG@Z 100ed350 f   imgui.obj
 0001:000ec3a0       ?AddInputCharactersUTF8@ImGuiIO@@QAEXPBD@Z 100ed3a0 f   imgui.obj
 0001:000ec410       ??0ImGuiIO@@QAE@XZ         100ed410 f   imgui.obj
 0001:000ec750       ?split@TextRange@ImGuiTextFilter@@QAEXDAAV?$ImVector@UTextRange@ImGuiTextFilter@@@@@Z 100ed750 f   imgui.obj
 0001:000ec7e0       ??0ImGuiTextFilter@@QAE@PBD@Z 100ed7e0 f   imgui.obj
 0001:000ec870       ?Draw@ImGuiTextFilter@@QAE_NPBDM@Z 100ed870 f   imgui.obj
 0001:000ec8f0       ?PassFilter@ImGuiTextFilter@@QBE_NPBD0@Z 100ed8f0 f   imgui.obj
 0001:000eca00       ?Build@ImGuiTextFilter@@QAEXXZ 100eda00 f   imgui.obj
 0001:000ecaf0       ?append@ImGuiTextBuffer@@QAAXPBDZZ 100edaf0 f   imgui.obj
 0001:000ecb20       ?appendv@ImGuiTextBuffer@@QAEXPBDPAD@Z 100edb20 f   imgui.obj
 0001:000ecbe0       ?Clear@ImGuiStorage@@QAEXXZ 100edbe0 f   imgui.obj
 0001:000ecc00       ?GetInt@ImGuiStorage@@QBEHIH@Z 100edc00 f   imgui.obj
 0001:000ecc50       ?SetInt@ImGuiStorage@@QAEXIH@Z 100edc50 f   imgui.obj
 0001:000eccc0       ?GetBool@ImGuiStorage@@QBE_NI_N@Z 100edcc0 f   imgui.obj
 0001:000ecd10       ?SetBool@ImGuiStorage@@QAEXI_N@Z 100edd10 f   imgui.obj
 0001:000ecd50       ?GetFloat@ImGuiStorage@@QBEMIM@Z 100edd50 f   imgui.obj
 0001:000ecda0       ?SetFloat@ImGuiStorage@@QAEXIM@Z 100edda0 f   imgui.obj
 0001:000ece10       ?GetVoidPtr@ImGuiStorage@@QBEPAXI@Z 100ede10 f   imgui.obj
 0001:000ece60       ?SetVoidPtr@ImGuiStorage@@QAEXIPAX@Z 100ede60 f   imgui.obj
 0001:000eced0       ?GetIntRef@ImGuiStorage@@QAEPAHIH@Z 100eded0 f   imgui.obj
 0001:000ecf30       ?GetBoolRef@ImGuiStorage@@QAEPA_NI_N@Z 100edf30 f   imgui.obj
 0001:000ecf70       ?GetFloatRef@ImGuiStorage@@QAEPAMIM@Z 100edf70 f   imgui.obj
 0001:000ecfe0       ?GetVoidPtrRef@ImGuiStorage@@QAEPAPAXIPAX@Z 100edfe0 f   imgui.obj
 0001:000ed040       ?SetAllInt@ImGuiStorage@@QAEXH@Z 100ee040 f   imgui.obj
 0001:000ed080       ?DeleteChars@ImGuiTextEditCallbackData@@QAEXHH@Z 100ee080 f   imgui.obj
 0001:000ed140       ?InsertChars@ImGuiTextEditCallbackData@@QAEXHPBD0@Z 100ee140 f   imgui.obj
 0001:000ed240       ?Step@ImGuiListClipper@@QAE_NXZ 100ee240 f   imgui.obj
 0001:000ed360       ?Begin@ImGuiListClipper@@QAEXHM@Z 100ee360 f   imgui.obj
 0001:000ed430       ?End@ImGuiListClipper@@QAEXXZ 100ee430 f   imgui.obj
 0001:000ed4a0       ?ImTextStrToUtf8@@YAHPADHPBG1@Z 100ee4a0 f   imgui.obj
 0001:000ed540       ?ImTextCharFromUtf8@@YAHPAIPBD1@Z 100ee540 f   imgui.obj
 0001:000ed930       ?ImTextStrFromUtf8@@YAHPAGHPBD1PAPBD@Z 100ee930 f   imgui.obj
 0001:000ed9d0       ?ImTextCountCharsFromUtf8@@YAHPBD0@Z 100ee9d0 f   imgui.obj
 0001:000eda40       ?ImTextCountUtf8BytesFromStr@@YAHPBG0@Z 100eea40 f   imgui.obj
 0001:000edab0       ?ImHash@@YAIPBXHI@Z        100eeab0 f   imgui.obj
 0001:000edc10       ?ImFileLoadToMemory@@YAPAXPBD0PAHH@Z 100eec10 f   imgui.obj
 0001:000edd40       ?ImFileOpen@@YAPAU_iobuf@@PBD0@Z 100eed40 f   imgui.obj
 0001:000ede30       ?ImIsPointInTriangle@@YA_NABUImVec2@@000@Z 100eee30 f   imgui.obj
 0001:000edfd0       ?ImStricmp@@YAHPBD0@Z      100eefd0 f   imgui.obj
 0001:000ee030       ?ImStrnicmp@@YAHPBD0H@Z    100ef030 f   imgui.obj
 0001:000ee0a0       ?ImStrdup@@YAPADPBD@Z      100ef0a0 f   imgui.obj
 0001:000ee0e0       ?ImStrlenW@@YAHPBG@Z       100ef0e0 f   imgui.obj
 0001:000ee120       ?ImStrbolW@@YAPBGPBG0@Z    100ef120 f   imgui.obj
 0001:000ee150       ?ImStristr@@YAPBDPBD000@Z  100ef150 f   imgui.obj
 0001:000ee240       ?ImFormatString@@YAHPADHPBDZZ 100ef240 f   imgui.obj
 0001:000ee2a0       ?ImFormatStringV@@YAHPADHPBD0@Z 100ef2a0 f   imgui.obj
 0001:000ee8b0       ??0ImGuiSimpleColumns@@QAE@XZ 100ef8b0 f   imgui.obj
 0001:000ee910       ?Update@ImGuiSimpleColumns@@QAEXHM_N@Z 100ef910 f   imgui.obj
 0001:000eea00       ?DeclColumns@ImGuiSimpleColumns@@QAEMMMM@Z 100efa00 f   imgui.obj
 0001:000eeb60       ?CalcExtraSpace@ImGuiSimpleColumns@@QAEMM@Z 100efb60 f   imgui.obj
 0001:000eeba0       ?OnKeyPressed@ImGuiTextEditState@@QAEXH@Z 100efba0 f   imgui.obj
 0001:000eebe0       ??0ImGuiWindow@@QAE@PBD@Z  100efbe0 f   imgui.obj
 0001:000ef0e0       ??1ImGuiWindow@@QAE@XZ     100f00e0 f   imgui.obj
 0001:000ef180       ?GetID@ImGuiWindow@@QAEIPBD0@Z 100f0180 f   imgui.obj
 0001:000ef1e0       ?GetID@ImGuiWindow@@QAEIPBX@Z 100f01e0 f   imgui.obj
 0001:000ef230       ?GetIDNoKeepAlive@ImGuiWindow@@QAEIPBD0@Z 100f0230 f   imgui.obj
 0001:000ef280       ?GetParentWindow@ImGui@@YAPAUImGuiWindow@@XZ 100f0280 f   imgui.obj
 0001:000ef2b0       ?FindWindowByName@ImGui@@YAPAUImGuiWindow@@PBD@Z 100f02b0 f   imgui.obj
 0001:000ef330       ?FocusWindow@ImGui@@YAXPAUImGuiWindow@@@Z 100f0330 f   imgui.obj
 0001:000ef450       ?EndFrame@ImGui@@YAXXZ     100f0450 f   imgui.obj
 0001:000ef7a0       ?SetActiveID@ImGui@@YAXIPAUImGuiWindow@@@Z 100f07a0 f   imgui.obj
 0001:000ef7f0       ?ClearActiveID@ImGui@@YAXXZ 100f07f0 f   imgui.obj
 0001:000ef810       ?SetHoveredID@ImGui@@YAXI@Z 100f0810 f   imgui.obj
 0001:000ef840       ?KeepAliveID@ImGui@@YAXI@Z 100f0840 f   imgui.obj
 0001:000ef870       ?ItemSize@ImGui@@YAXABUImVec2@@M@Z 100f0870 f   imgui.obj
 0001:000efa50       ?ItemSize@ImGui@@YAXABUImRect@@M@Z 100f0a50 f   imgui.obj
 0001:000efa80       ?ItemAdd@ImGui@@YA_NABUImRect@@PBI@Z 100f0a80 f   imgui.obj
 0001:000efbb0       ?IsClippedEx@ImGui@@YA_NABUImRect@@PBI_N@Z 100f0bb0 f   imgui.obj
 0001:000efc20       ?IsHovered@ImGui@@YA_NABUImRect@@I_N@Z 100f0c20 f   imgui.obj
 0001:000efd00       ?FocusableItemRegister@ImGui@@YA_NPAUImGuiWindow@@_N1@Z 100f0d00 f   imgui.obj
 0001:000efe20       ?FocusableItemUnregister@ImGui@@YAXPAUImGuiWindow@@@Z 100f0e20 f   imgui.obj
 0001:000efe50       ?CalcItemSize@ImGui@@YA?AUImVec2@@U2@MM@Z 100f0e50 f   imgui.obj
 0001:000effb0       ?CalcWrapWidthForPos@ImGui@@YAMABUImVec2@@M@Z 100f0fb0 f   imgui.obj
 0001:000f0060       ?OpenPopupEx@ImGui@@YAXPBD_N@Z 100f1060 f   imgui.obj
 0001:000f0160       ?RenderText@ImGui@@YAXUImVec2@@PBD1_NI@Z 100f1160 f   imgui.obj
 0001:000f0250       ?RenderTextWrapped@ImGui@@YAXUImVec2@@PBD1M@Z 100f1250 f   imgui.obj
 0001:000f0310       ?RenderTextClipped@ImGui@@YAXABUImVec2@@0PBD1PBU2@0PBUImRect@@@Z 100f1310 f   imgui.obj
 0001:000f0620       ?RenderFrame@ImGui@@YAXUImVec2@@0I_NM@Z 100f1620 f   imgui.obj
 0001:000f0770       ?RenderCollapseTriangle@ImGui@@YAXUImVec2@@_NM@Z 100f1770 f   imgui.obj
 0001:000f0aa0       ?RenderBullet@ImGui@@YAXUImVec2@@@Z 100f1aa0 f   imgui.obj
 0001:000f0b00       ?RenderCheckMark@ImGui@@YAXUImVec2@@I@Z 100f1b00 f   imgui.obj
 0001:000f0ca0       ?FindRenderedTextEnd@ImGui@@YAPBDPBD0@Z 100f1ca0 f   imgui.obj
 0001:000f0d10       ?ButtonBehavior@ImGui@@YA_NABUImRect@@IPA_N1H@Z 100f1d10 f   imgui.obj
 0001:000f1020       ?ButtonEx@ImGui@@YA_NPBDABUImVec2@@H@Z 100f2020 f   imgui.obj
 0001:000f1290       ?CloseButton@ImGui@@YA_NIABUImVec2@@M@Z 100f2290 f   imgui.obj
 0001:000f1540       ?SliderBehavior@ImGui@@YA_NABUImRect@@IPAMMMMHHUImVec4@@@Z 100f2540 f   imgui.obj
 0001:000f1db0       ?SliderFloatN@ImGui@@YA_NPBDPAMHMM0M@Z 100f2db0 f   imgui.obj
 0001:000f1f40       ?SliderIntN@ImGui@@YA_NPBDPAHHHH0@Z 100f2f40 f   imgui.obj
 0001:000f20a0       ?DragBehavior@ImGui@@YA_NABUImRect@@IPAMMMMHM@Z 100f30a0 f   imgui.obj
 0001:000f2540       ?DragFloatN@ImGui@@YA_NPBDPAMHMMM0M@Z 100f3540 f   imgui.obj
 0001:000f2670       ?DragIntN@ImGui@@YA_NPBDPAHHMHH0@Z 100f3670 f   imgui.obj
 0001:000f2790       ?InputTextEx@ImGui@@YA_NPBDPADHABUImVec2@@HP6AHPAUImGuiTextEditCallbackData@@@ZPAX@Z 100f3790 f   imgui.obj
 0001:000f4eb0       ?InputFloatN@ImGui@@YA_NPBDPAMHHH@Z 100f5eb0 f   imgui.obj
 0001:000f5000       ?InputIntN@ImGui@@YA_NPBDPAHHH@Z 100f6000 f   imgui.obj
 0001:000f5140       ?InputScalarEx@ImGui@@YA_NPBDW4ImGuiDataType@@PAX220H@Z 100f6140 f   imgui.obj
 0001:000f5490       ?InputScalarAsWidgetReplacement@ImGui@@YA_NABUImRect@@PBDW4ImGuiDataType@@PAXIH@Z 100f6490 f   imgui.obj
 0001:000f55a0       ?TreeNodeBehavior@ImGui@@YA_NIHPBD0@Z 100f65a0 f   imgui.obj
 0001:000f5ea0       ?TreeNodeBehaviorIsOpen@ImGui@@YA_NIH@Z 100f6ea0 f   imgui.obj
 0001:000f5ff0       ?TreePushRawID@ImGui@@YAXI@Z 100f6ff0 f   imgui.obj
 0001:000f6040       ?PlotEx@ImGui@@YAXW4ImGuiPlotType@@PBDP6AMPAXH@Z2HH1MMUImVec2@@@Z 100f7040 f   imgui.obj
 0001:000f68d0       ?ParseFormatPrecision@ImGui@@YAHPBDH@Z 100f78d0 f   imgui.obj
 0001:000f6980       ?RoundScalar@ImGui@@YAMMH@Z 100f7980 f   imgui.obj
 0001:000f9d50       ?ImStrncpy@@YAXPADPBDH@Z   100fad50 f   imgui.obj
 0001:000fca40       ??0?$ImVector@UImVec2@@@@QAE@XZ 100fda40 f i imgui.obj
 0001:000fca40       ??0?$ImVector@D@@QAE@XZ    100fda40 f i imgui.obj
 0001:000fca40       ??0?$ImVector@UImGuiColumnData@@@@QAE@XZ 100fda40 f i imgui.obj
 0001:000fca40       ??0?$ImVector@_N@@QAE@XZ   100fda40 f i imgui.obj
 0001:000fca40       ??0?$ImVector@UImDrawVert@@@@QAE@XZ 100fda40 f i imgui.obj
 0001:000fca40       ??0?$ImVector@UImGuiGroupData@@@@QAE@XZ 100fda40 f i imgui.obj
 0001:000fca40       ??0?$ImVector@UImGuiStyleMod@@@@QAE@XZ 100fda40 f i imgui.obj
 0001:000fca40       ??0?$ImVector@PAX@@QAE@XZ  100fda40 f i imgui.obj
 0001:000fca40       ??0?$ImVector@Ustbrp_rect@@@@QAE@XZ 100fda40 f i imgui_draw.obj
 0001:000fca40       ??0?$ImVector@UImGuiPopupRef@@@@QAE@XZ 100fda40 f i imgui.obj
 0001:000fca40       ??0?$ImVector@M@@QAE@XZ    100fda40 f i imgui.obj
 0001:000fca40       ??0?$ImVector@G@@QAE@XZ    100fda40 f i imgui.obj
 0001:000fca40       ??0?$ImVector@UImDrawCmd@@@@QAE@XZ 100fda40 f i imgui.obj
 0001:000fca40       ??0?$ImVector@UImGuiColMod@@@@QAE@XZ 100fda40 f i imgui.obj
 0001:000fca40       ??0?$ImVector@UImDrawChannel@@@@QAE@XZ 100fda40 f i imgui.obj
 0001:000fca40       ??0?$ImVector@UPair@ImGuiStorage@@@@QAE@XZ 100fda40 f i imgui.obj
 0001:000fca40       ??0?$ImVector@UGlyph@ImFont@@@@QAE@XZ 100fda40 f i imgui_draw.obj
 0001:000fca40       ??0?$ImVector@PAUImGuiWindow@@@@QAE@XZ 100fda40 f i imgui.obj
 0001:000fca40       ??0?$ImVector@PAUImDrawList@@@@QAE@XZ 100fda40 f i imgui.obj
 0001:000fca40       ??0?$ImVector@UTextRange@ImGuiTextFilter@@@@QAE@XZ 100fda40 f i imgui.obj
 0001:000fca40       ??0?$ImVector@UImGuiIniData@@@@QAE@XZ 100fda40 f i imgui.obj
 0001:000fca40       ??0?$ImVector@UImVec4@@@@QAE@XZ 100fda40 f i imgui.obj
 0001:000fca40       ??0?$ImVector@I@@QAE@XZ    100fda40 f i imgui.obj
 0001:000fca40       ??0?$ImVector@PAUImFont@@@@QAE@XZ 100fda40 f i imgui.obj
 0001:000fca40       ??0?$ImVector@UImFontConfig@@@@QAE@XZ 100fda40 f i imgui_draw.obj
 0001:000fca70       ??0ImColor@@QAE@HHHH@Z     100fda70 f i imgui.obj
 0001:000fcae0       ??0ImDrawData@@QAE@XZ      100fdae0 f i imgui.obj
 0001:000fcb20       ??0ImDrawList@@QAE@XZ      100fdb20 f i imgui.obj
 0001:000fcbd0       ??0ImGuiColMod@@QAE@XZ     100fdbd0 f i imgui.obj
 0001:000fcbf0       ??0ImGuiContext@@QAE@XZ    100fdbf0 f i imgui.obj
 0001:000fd2a0       ??0ImGuiDrawContext@@QAE@XZ 100fe2a0 f i imgui.obj
 0001:000fd5a0       ??0ImGuiListClipper@@QAE@HM@Z 100fe5a0 f i imgui.obj
 0001:000fd5d0       ??0ImGuiMouseCursorData@@QAE@XZ 100fe5d0 f i imgui.obj
 0001:000fd620       ??0ImGuiPopupRef@@QAE@IPAUImGuiWindow@@IABUImVec2@@@Z 100fe620 f i imgui.obj
 0001:000fd670       ??0ImGuiSizeConstraintCallbackData@@QAE@XZ 100fe670 f i imgui.obj
 0001:000fd6a0       ??0ImGuiStorage@@QAE@XZ    100fe6a0 f i imgui.obj
 0001:000fd6c0       ??0ImGuiStyleMod@@QAE@HM@Z 100fe6c0 f i imgui.obj
 0001:000fd6f0       ??0ImGuiStyleMod@@QAE@HUImVec2@@@Z 100fe6f0 f i imgui.obj
 0001:000fd740       ??0ImGuiTextBuffer@@QAE@XZ 100fe740 f i imgui.obj
 0001:000fd7a0       ??0ImGuiTextEditState@@QAE@XZ 100fe7a0 f i imgui.obj
 0001:000fd820       ??0ImRect@@QAE@ABUImVec2@@0@Z 100fe820 f i imgui.obj
 0001:000fd860       ??0ImRect@@QAE@ABUImVec4@@@Z 100fe860 f i imgui.obj
 0001:000fd8c0       ??0ImRect@@QAE@MMMM@Z      100fe8c0 f i imgui.obj
 0001:000fd910       ??0ImRect@@QAE@XZ          100fe910 f i imgui.obj
 0001:000fd970       ??0ImVec2@@QAE@XZ          100fe970 f i imgui.obj
 0001:000fd9a0       ??0ImVec4@@QAE@XZ          100fe9a0 f i imgui.obj
 0001:000fd9e0       ??0Pair@ImGuiStorage@@QAE@IM@Z 100fe9e0 f i imgui.obj
 0001:000fda10       ??1?$ImVector@UImFontConfig@@@@QAE@XZ 100fea10 f i imgui_draw.obj
 0001:000fda10       ??1?$ImVector@UImDrawCmd@@@@QAE@XZ 100fea10 f i imgui.obj
 0001:000fda10       ??1?$ImVector@G@@QAE@XZ    100fea10 f i imgui.obj
 0001:000fda10       ??1?$ImVector@UImGuiPopupRef@@@@QAE@XZ 100fea10 f i imgui.obj
 0001:000fda10       ??1?$ImVector@PAX@@QAE@XZ  100fea10 f i imgui.obj
 0001:000fda10       ??1?$ImVector@UPair@ImGuiStorage@@@@QAE@XZ 100fea10 f i imgui.obj
 0001:000fda10       ??1?$ImVector@UImDrawVert@@@@QAE@XZ 100fea10 f i imgui.obj
 0001:000fda10       ??1?$ImVector@PAUImDrawList@@@@QAE@XZ 100fea10 f i imgui.obj
 0001:000fda10       ??1?$ImVector@UImGuiColMod@@@@QAE@XZ 100fea10 f i imgui.obj
 0001:000fda10       ??1?$ImVector@_N@@QAE@XZ   100fea10 f i imgui.obj
 0001:000fda10       ??1?$ImVector@Ustbrp_rect@@@@QAE@XZ 100fea10 f i imgui_draw.obj
 0001:000fda10       ??1?$ImVector@UGlyph@ImFont@@@@QAE@XZ 100fea10 f i imgui_draw.obj
 0001:000fda10       ??1?$ImVector@PAUImGuiWindow@@@@QAE@XZ 100fea10 f i imgui.obj
 0001:000fda10       ??1?$ImVector@I@@QAE@XZ    100fea10 f i imgui.obj
 0001:000fda10       ??1?$ImVector@UTextRange@ImGuiTextFilter@@@@QAE@XZ 100fea10 f i imgui.obj
 0001:000fda10       ??1?$ImVector@UImGuiColumnData@@@@QAE@XZ 100fea10 f i imgui.obj
 0001:000fda10       ??1?$ImVector@PAUImFont@@@@QAE@XZ 100fea10 f i imgui.obj
 0001:000fda10       ??1?$ImVector@UImVec2@@@@QAE@XZ 100fea10 f i imgui.obj
 0001:000fda10       ??1?$ImVector@UImDrawChannel@@@@QAE@XZ 100fea10 f i imgui.obj
 0001:000fda10       ??1?$ImVector@UImVec4@@@@QAE@XZ 100fea10 f i imgui.obj
 0001:000fda10       ??1?$ImVector@M@@QAE@XZ    100fea10 f i imgui.obj
 0001:000fda10       ??1?$ImVector@UImGuiIniData@@@@QAE@XZ 100fea10 f i imgui.obj
 0001:000fda10       ??1?$ImVector@UImGuiGroupData@@@@QAE@XZ 100fea10 f i imgui.obj
 0001:000fda10       ??1?$ImVector@UImGuiStyleMod@@@@QAE@XZ 100fea10 f i imgui.obj
 0001:000fda10       ??1?$ImVector@D@@QAE@XZ    100fea10 f i imgui.obj
 0001:000fda60       ??1ImDrawList@@QAE@XZ      100fea60 f i imgui.obj
 0001:000fdae0       ??1ImGuiContext@@QAE@XZ    100feae0 f i imgui.obj
 0001:000fdbe0       ??1ImGuiDrawContext@@QAE@XZ 100febe0 f i imgui.obj
 0001:000fdc50       ??1ImGuiTextBuffer@@QAE@XZ 100fec50 f i imgui.obj
 0001:000fdc50       ??1ImGuiStorage@@QAE@XZ    100fec50 f i imgui.obj
 0001:000fdc70       ??1ImGuiTextEditState@@QAE@XZ 100fec70 f i imgui.obj
 0001:000fdca0       ??2@YAPAXIUImPlacementNewDummy@@PAX@Z 100feca0 f i imgui.obj
 0001:000fdcb0       ??A?$ImVector@D@@QAEAADH@Z 100fecb0 f i imgui.obj
 0001:000fdcd0       ??A?$ImVector@G@@QBEABGH@Z 100fecd0 f i imgui.obj
 0001:000fdcd0       ??A?$ImVector@G@@QAEAAGH@Z 100fecd0 f i imgui.obj
 0001:000fdcf0       ??A?$ImVector@PAUImGuiWindow@@@@QAEAAPAUImGuiWindow@@H@Z 100fecf0 f i imgui.obj
 0001:000fdcf0       ??A?$ImVector@M@@QBEABMH@Z 100fecf0 f i imgui.obj
 0001:000fdcf0       ??A?$ImVector@M@@QAEAAMH@Z 100fecf0 f i imgui_draw.obj
 0001:000fdcf0       ??A?$ImVector@UImGuiColumnData@@@@QAEAAUImGuiColumnData@@H@Z 100fecf0 f i imgui.obj
 0001:000fdcf0       ??A?$ImVector@PAUImDrawList@@@@QAEAAPAUImDrawList@@H@Z 100fecf0 f i imgui.obj
 0001:000fdcf0       ??A?$ImVector@PAUImFont@@@@QAEAAPAUImFont@@H@Z 100fecf0 f i imgui.obj
 0001:000fdd10       ??A?$ImVector@UImDrawVert@@@@QAEAAUImDrawVert@@H@Z 100fed10 f i imgui.obj
 0001:000fdd30       ??A?$ImVector@UImGuiIniData@@@@QAEAAUImGuiIniData@@H@Z 100fed30 f i imgui.obj
 0001:000fdd50       ??A?$ImVector@UImDrawChannel@@@@QAEAAUImDrawChannel@@H@Z 100fed50 f i imgui_draw.obj
 0001:000fdd50       ??A?$ImVector@UImGuiPopupRef@@@@QAEAAUImGuiPopupRef@@H@Z 100fed50 f i imgui.obj
 0001:000fdd70       ??A?$ImVector@UPair@ImGuiStorage@@@@QAEAAUPair@ImGuiStorage@@H@Z 100fed70 f i imgui.obj
 0001:000fdd70       ??A?$ImVector@UTextRange@ImGuiTextFilter@@@@QBEABUTextRange@ImGuiTextFilter@@H@Z 100fed70 f i imgui.obj
 0001:000fdd70       ??A?$ImVector@UTextRange@ImGuiTextFilter@@@@QAEAAUTextRange@ImGuiTextFilter@@H@Z 100fed70 f i imgui.obj
 0001:000fdd90       ??BImColor@@QBE?AUImVec4@@XZ 100fed90 f i imgui.obj
 0001:000fddc0       ??_GImDrawList@@QAEPAXI@Z  100fedc0 f i imgui.obj
 0001:000fddf0       ??_GImGuiContext@@QAEPAXI@Z 100fedf0 f i imgui.obj
 0001:000fde30       ??_GImGuiTextBuffer@@QAEPAXI@Z 100fee30 f i imgui.obj
 0001:000fde60       ??_GImGuiWindow@@QAEPAXI@Z 100fee60 f i imgui.obj
 0001:000fdea0       ??_H@YGXPAXIIP6EPAX0@Z@Z   100feea0 f i imgui.obj
 0001:000fded0       ?Add@ImRect@@QAEXABU1@@Z   100feed0 f i imgui.obj
 0001:000fdf50       ?Add@ImRect@@QAEXABUImVec2@@@Z 100fef50 f i imgui.obj
 0001:000fdfd0       ?CalcFontSize@ImGuiWindow@@QBEMXZ 100fefd0 f i imgui.obj
 0001:000fe000       ?ClearSelection@ImGuiTextEditState@@QAEXXZ 100ff000 f i imgui.obj
 0001:000fe030       ?Clip@ImRect@@QAEXABU1@@Z  100ff030 f i imgui.obj
 0001:000fe0b0       ?Contains@ImRect@@QBE_NABUImVec2@@@Z 100ff0b0 f i imgui.obj
 0001:000fe120       ?CursorAnimReset@ImGuiTextEditState@@QAEXXZ 100ff120 f i imgui.obj
 0001:000fe140       ?CursorClamp@ImGuiTextEditState@@QAEXXZ 100ff140 f i imgui.obj
 0001:000fe1a0       ?Empty@ImVec4@@QAE_NXZ     100ff1a0 f i imgui.obj
 0001:000fe220       ?Expand@ImRect@@QAEXM@Z    100ff220 f i imgui.obj
 0001:000fe280       ?Floor@ImRect@@QAEXXZ      100ff280 f i imgui.obj
 0001:000fe2e0       ?GetBL@ImRect@@QBE?AUImVec2@@XZ 100ff2e0 f i imgui.obj
 0001:000fe320       ?GetBR@ImRect@@QBE?AUImVec2@@XZ 100ff320 f i imgui.obj
 0001:000fe350       ?GetCenter@ImRect@@QBE?AUImVec2@@XZ 100ff350 f i imgui.obj
 0001:000fe3b0       ?GetCharAdvance@ImFont@@QBEMG@Z 100ff3b0 f i imgui.obj
 0001:000fe400       ?GetClosestPoint@ImRect@@QBE?AUImVec2@@U2@_N@Z 100ff400 f i imgui.obj
 0001:000fe4c0       ?GetCurrentWindow@ImGui@@YAPAUImGuiWindow@@XZ 100ff4c0 f i imgui.obj
 0001:000fe4f0       ?GetCurrentWindowRead@ImGui@@YAPAUImGuiWindow@@XZ 100ff4f0 f i imgui.obj
 0001:000fe510       ?GetHeight@ImRect@@QBEMXZ  100ff510 f i imgui.obj
 0001:000fe540       ?GetSize@ImRect@@QBE?AUImVec2@@XZ 100ff540 f i imgui.obj
 0001:000fe590       ?GetTL@ImRect@@QBE?AUImVec2@@XZ 100ff590 f i imgui.obj
 0001:000fe5b0       ?GetTR@ImRect@@QBE?AUImVec2@@XZ 100ff5b0 f i imgui.obj
 0001:000fe5f0       ?GetVarPtr@ImGuiStyleVarInfo@@QBEPAXXZ 100ff5f0 f i imgui.obj
 0001:000fe610       ?GetWidth@ImRect@@QBEMXZ   100ff610 f i imgui.obj
 0001:000fe640       ?HasSelection@ImGuiTextEditState@@QBE_NXZ 100ff640 f i imgui.obj
 0001:000fe670       ?MenuBarHeight@ImGuiWindow@@QBEMXZ 100ff670 f i imgui.obj
 0001:000fe6d0       ?MenuBarRect@ImGuiWindow@@QBE?AUImRect@@XZ 100ff6d0 f i imgui.obj
 0001:000fee90       ?Overlaps@ImRect@@QBE_NABU1@@Z 100ffe90 f i imgui.obj
 0001:000fef00       ?PathClear@ImDrawList@@QAEXXZ 100fff00 f i imgui.obj
 0001:000fef20       ?PathFillConvex@ImDrawList@@QAEXI@Z 100fff20 f i imgui.obj
 0001:000fef60       ?PathLineTo@ImDrawList@@QAEXABUImVec2@@@Z 100fff60 f i imgui.obj
 0001:000fef80       ?PathStroke@ImDrawList@@QAEXI_NM@Z 100fff80 f i imgui.obj
 0001:000fefd0       ?Rect@ImGuiWindow@@QBE?AUImRect@@XZ 100fffd0 f i imgui.obj
 0001:000ff030       ?Reduce@ImRect@@QAEXABUImVec2@@@Z 10100030 f i imgui.obj
 0001:000ff0a0       ?SelectAll@ImGuiTextEditState@@QAEXXZ 101000a0 f i imgui.obj
 0001:000ff0e0       ?TitleBarHeight@ImGuiWindow@@QBEMXZ 101000e0 f i imgui.obj
 0001:000ff140       ?TitleBarRect@ImGuiWindow@@QBE?AUImRect@@XZ 10100140 f i imgui.obj
 0001:000ff1a0       ?_grow_capacity@?$ImVector@UImDrawChannel@@@@QAEHH@Z 101001a0 f i imgui_draw.obj
 0001:000ff1a0       ?_grow_capacity@?$ImVector@M@@QAEHH@Z 101001a0 f i imgui.obj
 0001:000ff1a0       ?_grow_capacity@?$ImVector@PAUImFont@@@@QAEHH@Z 101001a0 f i imgui.obj
 0001:000ff1a0       ?_grow_capacity@?$ImVector@UImVec4@@@@QAEHH@Z 101001a0 f i imgui_draw.obj
 0001:000ff1a0       ?_grow_capacity@?$ImVector@UTextRange@ImGuiTextFilter@@@@QAEHH@Z 101001a0 f i imgui.obj
 0001:000ff1a0       ?_grow_capacity@?$ImVector@Ustbrp_rect@@@@QAEHH@Z 101001a0 f i imgui_draw.obj
 0001:000ff1a0       ?_grow_capacity@?$ImVector@UImGuiIniData@@@@QAEHH@Z 101001a0 f i imgui.obj
 0001:000ff1a0       ?_grow_capacity@?$ImVector@UImDrawCmd@@@@QAEHH@Z 101001a0 f i imgui_draw.obj
 0001:000ff1a0       ?_grow_capacity@?$ImVector@UImVec2@@@@QAEHH@Z 101001a0 f i imgui.obj
 0001:000ff1a0       ?_grow_capacity@?$ImVector@UImGuiColMod@@@@QAEHH@Z 101001a0 f i imgui.obj
 0001:000ff1a0       ?_grow_capacity@?$ImVector@UImGuiGroupData@@@@QAEHH@Z 101001a0 f i imgui.obj
 0001:000ff1a0       ?_grow_capacity@?$ImVector@UImFontConfig@@@@QAEHH@Z 101001a0 f i imgui_draw.obj
 0001:000ff1a0       ?_grow_capacity@?$ImVector@UImGuiPopupRef@@@@QAEHH@Z 101001a0 f i imgui.obj
 0001:000ff1a0       ?_grow_capacity@?$ImVector@UImGuiStyleMod@@@@QAEHH@Z 101001a0 f i imgui.obj
 0001:000ff1a0       ?_grow_capacity@?$ImVector@D@@QAEHH@Z 101001a0 f i imgui.obj
 0001:000ff1a0       ?_grow_capacity@?$ImVector@PAUImGuiWindow@@@@QAEHH@Z 101001a0 f i imgui.obj
 0001:000ff1a0       ?_grow_capacity@?$ImVector@PAX@@QAEHH@Z 101001a0 f i imgui_draw.obj
 0001:000ff1a0       ?_grow_capacity@?$ImVector@PAUImDrawList@@@@QAEHH@Z 101001a0 f i imgui.obj
 0001:000ff1a0       ?_grow_capacity@?$ImVector@UImDrawVert@@@@QAEHH@Z 101001a0 f i imgui_draw.obj
 0001:000ff1a0       ?_grow_capacity@?$ImVector@UImGuiColumnData@@@@QAEHH@Z 101001a0 f i imgui.obj
 0001:000ff1a0       ?_grow_capacity@?$ImVector@_N@@QAEHH@Z 101001a0 f i imgui.obj
 0001:000ff1a0       ?_grow_capacity@?$ImVector@G@@QAEHH@Z 101001a0 f i imgui.obj
 0001:000ff1a0       ?_grow_capacity@?$ImVector@I@@QAEHH@Z 101001a0 f i imgui.obj
 0001:000ff1a0       ?_grow_capacity@?$ImVector@UGlyph@ImFont@@@@QAEHH@Z 101001a0 f i imgui_draw.obj
 0001:000ff200       ?back@?$ImVector@PAUImGuiWindow@@@@QAEAAPAUImGuiWindow@@XZ 10100200 f i imgui.obj
 0001:000ff200       ?back@?$ImVector@PAX@@QAEAAPAXXZ 10100200 f i imgui_draw.obj
 0001:000ff200       ?back@?$ImVector@M@@QAEAAMXZ 10100200 f i imgui.obj
 0001:000ff200       ?back@?$ImVector@PAUImFont@@@@QAEAAPAUImFont@@XZ 10100200 f i imgui.obj
 0001:000ff200       ?back@?$ImVector@I@@QAEAAIXZ 10100200 f i imgui.obj
 0001:000ff220       ?back@?$ImVector@UImDrawCmd@@@@QAEAAUImDrawCmd@@XZ 10100220 f i imgui.obj
 0001:000ff240       ?back@?$ImVector@UImGuiColMod@@@@QAEAAUImGuiColMod@@XZ 10100240 f i imgui.obj
 0001:000ff260       ?back@?$ImVector@UImGuiGroupData@@@@QAEAAUImGuiGroupData@@XZ 10100260 f i imgui.obj
 0001:000ff260       ?back@?$ImVector@UGlyph@ImFont@@@@QAEAAUGlyph@ImFont@@XZ 10100260 f i imgui_draw.obj
 0001:000ff280       ?back@?$ImVector@UImGuiIniData@@@@QAEAAUImGuiIniData@@XZ 10100280 f i imgui.obj
 0001:000ff2a0       ?back@?$ImVector@UImGuiStyleMod@@@@QAEAAUImGuiStyleMod@@XZ 101002a0 f i imgui.obj
 0001:000ff2c0       ?back@?$ImVector@UImVec4@@@@QAEAAUImVec4@@XZ 101002c0 f i imgui.obj
 0001:000ff2e0       ?back@?$ImVector@_N@@QAEAA_NXZ 101002e0 f i imgui.obj
 0001:000ff300       ?begin@?$ImVector@D@@QAEPADXZ 10100300 f i imgui.obj
 0001:000ff300       ?begin@?$ImVector@UPair@ImGuiStorage@@@@QAEPAUPair@ImGuiStorage@@XZ 10100300 f i imgui.obj
 0001:000ff300       ?begin@?$ImVector@PAUImGuiWindow@@@@QAEPAPAUImGuiWindow@@XZ 10100300 f i imgui.obj
 0001:000ff300       ?begin@?$ImVector@UImDrawCmd@@@@QAEPAUImDrawCmd@@XZ 10100300 f i imgui.obj
 0001:000ff320       ?begin@ImGuiTextBuffer@@QBEPBDXZ 10100320 f i imgui.obj
 0001:000ff340       ?clear@?$ImVector@PAUImDrawList@@@@QAEXXZ 10100340 f i imgui.obj
 0001:000ff340       ?clear@?$ImVector@UPair@ImGuiStorage@@@@QAEXXZ 10100340 f i imgui.obj
 0001:000ff340       ?clear@?$ImVector@UImDrawVert@@@@QAEXXZ 10100340 f i imgui_draw.obj
 0001:000ff340       ?clear@?$ImVector@UImGuiColMod@@@@QAEXXZ 10100340 f i imgui.obj
 0001:000ff340       ?clear@?$ImVector@UImFontConfig@@@@QAEXXZ 10100340 f i imgui_draw.obj
 0001:000ff340       ?clear@?$ImVector@UImVec2@@@@QAEXXZ 10100340 f i imgui_draw.obj
 0001:000ff340       ?clear@?$ImVector@PAUImFont@@@@QAEXXZ 10100340 f i imgui.obj
 0001:000ff340       ?clear@?$ImVector@UGlyph@ImFont@@@@QAEXXZ 10100340 f i imgui_draw.obj
 0001:000ff340       ?clear@?$ImVector@D@@QAEXXZ 10100340 f i imgui.obj
 0001:000ff340       ?clear@?$ImVector@PAUImGuiWindow@@@@QAEXXZ 10100340 f i imgui.obj
 0001:000ff340       ?clear@?$ImVector@UImGuiPopupRef@@@@QAEXXZ 10100340 f i imgui.obj
 0001:000ff340       ?clear@?$ImVector@UImGuiStyleMod@@@@QAEXXZ 10100340 f i imgui.obj
 0001:000ff340       ?clear@?$ImVector@G@@QAEXXZ 10100340 f i imgui.obj
 0001:000ff340       ?clear@?$ImVector@UImGuiIniData@@@@QAEXXZ 10100340 f i imgui.obj
 0001:000ff340       ?clear@?$ImVector@PAX@@QAEXXZ 10100340 f i imgui_draw.obj
 0001:000ff340       ?clear@?$ImVector@UImVec4@@@@QAEXXZ 10100340 f i imgui_draw.obj
 0001:000ff340       ?clear@?$ImVector@M@@QAEXXZ 10100340 f i imgui_draw.obj
 0001:000ff340       ?clear@?$ImVector@UImDrawCmd@@@@QAEXXZ 10100340 f i imgui_draw.obj
 0001:000ff340       ?clear@?$ImVector@UImDrawChannel@@@@QAEXXZ 10100340 f i imgui_draw.obj
 0001:000ff380       ?clear@ImGuiTextBuffer@@QAEXXZ 10100380 f i imgui.obj
 0001:000ff3b0       ?empty@?$ImVector@PAUImDrawList@@@@QBE_NXZ 101003b0 f i imgui.obj
 0001:000ff3b0       ?empty@?$ImVector@PAUImGuiWindow@@@@QBE_NXZ 101003b0 f i imgui.obj
 0001:000ff3b0       ?empty@?$ImVector@UImFontConfig@@@@QBE_NXZ 101003b0 f i imgui_draw.obj
 0001:000ff3b0       ?empty@?$ImVector@UImDrawCmd@@@@QBE_NXZ 101003b0 f i imgui.obj
 0001:000ff3b0       ?empty@?$ImVector@UImDrawVert@@@@QBE_NXZ 101003b0 f i imgui.obj
 0001:000ff3b0       ?empty@?$ImVector@G@@QBE_NXZ 101003b0 f i imgui_draw.obj
 0001:000ff3b0       ?empty@?$ImVector@UImGuiPopupRef@@@@QBE_NXZ 101003b0 f i imgui.obj
 0001:000ff3b0       ?empty@?$ImVector@PAUImFont@@@@QBE_NXZ 101003b0 f i imgui.obj
 0001:000ff3b0       ?empty@?$ImVector@M@@QBE_NXZ 101003b0 f i imgui.obj
 0001:000ff3b0       ?empty@?$ImVector@UImGuiGroupData@@@@QBE_NXZ 101003b0 f i imgui.obj
 0001:000ff3b0       ?empty@?$ImVector@PAX@@QBE_NXZ 101003b0 f i imgui_draw.obj
 0001:000ff3b0       ?empty@?$ImVector@UTextRange@ImGuiTextFilter@@@@QBE_NXZ 101003b0 f i imgui.obj
 0001:000ff3b0       ?empty@?$ImVector@_N@@QBE_NXZ 101003b0 f i imgui.obj
 0001:000ff3e0       ?empty@TextRange@ImGuiTextFilter@@QBE_NXZ 101003e0 f i imgui.obj
 0001:000ff410       ?end@?$ImVector@UImDrawCmd@@@@QAEPAUImDrawCmd@@XZ 10100410 f i imgui.obj
 0001:000ff430       ?end@?$ImVector@UPair@ImGuiStorage@@@@QAEPAUPair@ImGuiStorage@@XZ 10100430 f i imgui.obj
 0001:000ff430       ?end@?$ImVector@UPair@ImGuiStorage@@@@QBEPBUPair@ImGuiStorage@@XZ 10100430 f i imgui.obj
 0001:000ff450       ?erase@?$ImVector@PAUImGuiWindow@@@@QAEPAPAUImGuiWindow@@PBQAU2@@Z 10100450 f i imgui.obj
 0001:000ff4c0       ?front@?$ImVector@D@@QBEABDXZ 101004c0 f i imgui.obj
 0001:000ff4e0       ?front@TextRange@ImGuiTextFilter@@QBEDXZ 101004e0 f i imgui.obj
 0001:000ff500       ?insert@?$ImVector@PAUImGuiWindow@@@@QAEPAPAUImGuiWindow@@PBQAU2@ABQAU2@@Z 10100500 f i imgui.obj
 0001:000ff5c0       ?insert@?$ImVector@UPair@ImGuiStorage@@@@QAEPAUPair@ImGuiStorage@@PBU23@ABU23@@Z 101005c0 f i imgui.obj
 0001:000ff680       ?is_blank@TextRange@ImGuiTextFilter@@SA_ND@Z 10100680 f i imgui.obj
 0001:000ff6b0       ?pop_back@?$ImVector@UImGuiGroupData@@@@QAEXXZ 101006b0 f i imgui.obj
 0001:000ff6b0       ?pop_back@?$ImVector@UImGuiPopupRef@@@@QAEXXZ 101006b0 f i imgui.obj
 0001:000ff6b0       ?pop_back@?$ImVector@UImGuiStyleMod@@@@QAEXXZ 101006b0 f i imgui.obj
 0001:000ff6b0       ?pop_back@?$ImVector@M@@QAEXXZ 101006b0 f i imgui.obj
 0001:000ff6b0       ?pop_back@?$ImVector@UImGuiColMod@@@@QAEXXZ 101006b0 f i imgui.obj
 0001:000ff6b0       ?pop_back@?$ImVector@PAX@@QAEXXZ 101006b0 f i imgui_draw.obj
 0001:000ff6b0       ?pop_back@?$ImVector@UImDrawCmd@@@@QAEXXZ 101006b0 f i imgui.obj
 0001:000ff6b0       ?pop_back@?$ImVector@UImVec4@@@@QAEXXZ 101006b0 f i imgui_draw.obj
 0001:000ff6b0       ?pop_back@?$ImVector@_N@@QAEXXZ 101006b0 f i imgui.obj
 0001:000ff6b0       ?pop_back@?$ImVector@PAUImGuiWindow@@@@QAEXXZ 101006b0 f i imgui.obj
 0001:000ff6b0       ?pop_back@?$ImVector@PAUImFont@@@@QAEXXZ 101006b0 f i imgui.obj
 0001:000ff6b0       ?pop_back@?$ImVector@I@@QAEXXZ 101006b0 f i imgui.obj
 0001:000ff6d0       ?push_back@?$ImVector@_N@@QAEXAB_N@Z 101006d0 f i imgui.obj
 0001:000ff6d0       ?push_back@?$ImVector@D@@QAEXABD@Z 101006d0 f i imgui.obj
 0001:000ff730       ?push_back@?$ImVector@PAX@@QAEXABQAX@Z 10100730 f i imgui_draw.obj
 0001:000ff730       ?push_back@?$ImVector@PAUImDrawList@@@@QAEXABQAUImDrawList@@@Z 10100730 f i imgui.obj
 0001:000ff730       ?push_back@?$ImVector@M@@QAEXABM@Z 10100730 f i imgui.obj
 0001:000ff730       ?push_back@?$ImVector@I@@QAEXABI@Z 10100730 f i imgui.obj
 0001:000ff730       ?push_back@?$ImVector@PAUImFont@@@@QAEXABQAUImFont@@@Z 10100730 f i imgui.obj
 0001:000ff730       ?push_back@?$ImVector@PAUImGuiWindow@@@@QAEXABQAUImGuiWindow@@@Z 10100730 f i imgui.obj
 0001:000ff790       ?push_back@?$ImVector@UImGuiColMod@@@@QAEXABUImGuiColMod@@@Z 10100790 f i imgui.obj
 0001:000ff800       ?push_back@?$ImVector@UImGuiPopupRef@@@@QAEXABUImGuiPopupRef@@@Z 10100800 f i imgui.obj
 0001:000ff880       ?push_back@?$ImVector@UImGuiStyleMod@@@@QAEXABUImGuiStyleMod@@@Z 10100880 f i imgui.obj
 0001:000ff8f0       ?push_back@?$ImVector@UTextRange@ImGuiTextFilter@@@@QAEXABUTextRange@ImGuiTextFilter@@@Z 101008f0 f i imgui.obj
 0001:000ff8f0       ?push_back@?$ImVector@UImVec2@@@@QAEXABUImVec2@@@Z 101008f0 f i imgui.obj
 0001:000ff950       ?reserve@?$ImVector@D@@QAEXH@Z 10100950 f i imgui.obj
 0001:000ff950       ?reserve@?$ImVector@_N@@QAEXH@Z 10100950 f i imgui.obj
 0001:000ff9c0       ?reserve@?$ImVector@G@@QAEXH@Z 101009c0 f i imgui.obj
 0001:000ffa40       ?reserve@?$ImVector@PAUImFont@@@@QAEXH@Z 10100a40 f i imgui.obj
 0001:000ffa40       ?reserve@?$ImVector@PAUImDrawList@@@@QAEXH@Z 10100a40 f i imgui.obj
 0001:000ffa40       ?reserve@?$ImVector@PAX@@QAEXH@Z 10100a40 f i imgui_draw.obj
 0001:000ffa40       ?reserve@?$ImVector@PAUImGuiWindow@@@@QAEXH@Z 10100a40 f i imgui.obj
 0001:000ffa40       ?reserve@?$ImVector@M@@QAEXH@Z 10100a40 f i imgui.obj
 0001:000ffa40       ?reserve@?$ImVector@UImGuiColumnData@@@@QAEXH@Z 10100a40 f i imgui.obj
 0001:000ffa40       ?reserve@?$ImVector@I@@QAEXH@Z 10100a40 f i imgui.obj
 0001:000ffac0       ?reserve@?$ImVector@UImDrawVert@@@@QAEXH@Z 10100ac0 f i imgui_draw.obj
 0001:000ffac0       ?reserve@?$ImVector@UImGuiColMod@@@@QAEXH@Z 10100ac0 f i imgui.obj
 0001:000ffb30       ?reserve@?$ImVector@UGlyph@ImFont@@@@QAEXH@Z 10100b30 f i imgui_draw.obj
 0001:000ffb30       ?reserve@?$ImVector@UImGuiGroupData@@@@QAEXH@Z 10100b30 f i imgui.obj
 0001:000ffba0       ?reserve@?$ImVector@UImGuiIniData@@@@QAEXH@Z 10100ba0 f i imgui.obj
 0001:000ffc10       ?reserve@?$ImVector@UImGuiPopupRef@@@@QAEXH@Z 10100c10 f i imgui.obj
 0001:000ffc10       ?reserve@?$ImVector@UImDrawChannel@@@@QAEXH@Z 10100c10 f i imgui_draw.obj
 0001:000ffc80       ?reserve@?$ImVector@UImGuiStyleMod@@@@QAEXH@Z 10100c80 f i imgui.obj
 0001:000ffcf0       ?reserve@?$ImVector@UImVec2@@@@QAEXH@Z 10100cf0 f i imgui.obj
 0001:000ffcf0       ?reserve@?$ImVector@UPair@ImGuiStorage@@@@QAEXH@Z 10100cf0 f i imgui.obj
 0001:000ffcf0       ?reserve@?$ImVector@UTextRange@ImGuiTextFilter@@@@QAEXH@Z 10100cf0 f i imgui.obj
 0001:000ffd70       ?resize@?$ImVector@_N@@QAEXH@Z 10100d70 f i imgui.obj
 0001:000ffd70       ?resize@?$ImVector@D@@QAEXH@Z 10100d70 f i imgui.obj
 0001:000ffdb0       ?resize@?$ImVector@G@@QAEXH@Z 10100db0 f i imgui.obj
 0001:000ffdf0       ?resize@?$ImVector@M@@QAEXH@Z 10100df0 f i imgui.obj
 0001:000ffdf0       ?resize@?$ImVector@UImGuiColumnData@@@@QAEXH@Z 10100df0 f i imgui.obj
 0001:000ffdf0       ?resize@?$ImVector@PAX@@QAEXH@Z 10100df0 f i imgui_draw.obj
 0001:000ffdf0       ?resize@?$ImVector@PAUImGuiWindow@@@@QAEXH@Z 10100df0 f i imgui.obj
 0001:000ffdf0       ?resize@?$ImVector@PAUImDrawList@@@@QAEXH@Z 10100df0 f i imgui.obj
 0001:000ffdf0       ?resize@?$ImVector@I@@QAEXH@Z 10100df0 f i imgui.obj
 0001:000ffe30       ?resize@?$ImVector@UGlyph@ImFont@@@@QAEXH@Z 10100e30 f i imgui_draw.obj
 0001:000ffe30       ?resize@?$ImVector@UImGuiGroupData@@@@QAEXH@Z 10100e30 f i imgui.obj
 0001:000ffe70       ?resize@?$ImVector@UImGuiIniData@@@@QAEXH@Z 10100e70 f i imgui.obj
 0001:000ffeb0       ?resize@?$ImVector@UImDrawChannel@@@@QAEXH@Z 10100eb0 f i imgui_draw.obj
 0001:000ffeb0       ?resize@?$ImVector@UImGuiPopupRef@@@@QAEXH@Z 10100eb0 f i imgui.obj
 0001:000ffef0       ?resize@?$ImVector@UTextRange@ImGuiTextFilter@@@@QAEXH@Z 10100ef0 f i imgui.obj
 0001:000ffef0       ?resize@?$ImVector@UImVec2@@@@QAEXH@Z 10100ef0 f i imgui.obj
 0001:000fff30       ?size@ImGuiTextBuffer@@QBEHXZ 10100f30 f i imgui.obj
 0001:000fff50       ?swap@?$ImVector@UImDrawVert@@@@QAEXAAV1@@Z 10100f50 f i imgui_draw.obj
 0001:000fff50       ?swap@?$ImVector@PAUImGuiWindow@@@@QAEXAAV1@@Z 10100f50 f i imgui.obj
 0001:000fffc0       ?trim_blanks@TextRange@ImGuiTextFilter@@QAEXXZ 10100fc0 f i imgui.obj
 0001:00100040       ___local_stdio_scanf_options 10101040 f i imgui.obj
 0001:00100050       __vsscanf_l                10101050 f i imgui.obj
 0001:00100080       _fabsf                     10101080 f i imgui.obj
 0001:001000b0       _fmodf                     101010b0 f i imgui.obj
 0001:001000e0       _powf                      101010e0 f i imgui.obj
 0001:00100110       _sscanf                    10101110 f i imgui.obj
 0001:00100150       _vsnprintf                 10101150 f i imgui.obj
 0001:001001a0       ?IsTickValid@BackTrack@@AAE_NH@Z 101011a0 f   LagComp.obj
 0001:00100210       ?UpdateRecord@BackTrack@@AAEXH@Z 10101210 f   LagComp.obj
 0001:001002f0       ?RunLBYBackTrack@BackTrack@@QAE_NHPAVCUserCmd@CInput@@AAVVector@@@Z 101012f0 f   LagComp.obj
 0001:00100350       ?Update@BackTrack@@QAEXH@Z 10101350 f   LagComp.obj
 0001:00100390       ?legitBackTrack@BackTrack@@QAEXPAVCUserCmd@CInput@@PAVC_BaseEntity@@@Z 10101390 f   LagComp.obj
 0001:00100760       ??0BackTrack@@QAE@XZ       10101760 f i LagComp.obj
 0001:00100790       ??0backtrackData@@QAE@XZ   10101790 f i LagComp.obj
 0001:001007b0       ??0lbyRecords@@QAE@XZ      101017b0 f i LagComp.obj
 0001:001007d0       ??4backtrackData@@QAEAAU0@$$QAU0@@Z 101017d0 f i LagComp.obj
 0001:00100800       ?Dot@Vector@@QBEMABV1@@Z   10101800 f i LagComp.obj
 0001:00100820       ?DotProduct@@YAMABVVector@@0@Z 10101820 f i LagComp.obj
 0001:00100870       ?GetAimPunchAngle@CLocalPlayerExclusive@@QAE?AVVector@@XZ 10101870 f i LagComp.obj
 0001:001008a0       ?GetLowerBodyYaw@C_BaseEntity@@QAEMXZ 101018a0 f i LagComp.obj
 0001:001008c0       ?GetMaxClients@IVEngineClient@@QAEHXZ 101018c0 f i LagComp.obj
 0001:001008f0       ?angle_vector@@YA?AVVector@@V1@@Z 101018f0 f i LagComp.obj
 0001:001009d0       ?cos@@YAMM@Z               101019d0 f i LagComp.obj
 0001:001009f0       ?distance_point_to_line@@YAMVVector@@00@Z 101019f0 f i LagComp.obj
 0001:00100aa0       ?fabs@@YAMM@Z              10101aa0 f i LagComp.obj
 0001:00100aa0       ?abs@@YAMM@Z               10101aa0 f i MathFunctions.obj
 0001:00100ac0       ?localPlayerExclusive@C_BaseEntity@@QAEPAVCLocalPlayerExclusive@@XZ 10101ac0 f i LagComp.obj
 0001:00100ae0       ?sin@@YAMM@Z               10101ae0 f i LagComp.obj
 0001:00100b00       _cosf                      10101b00 f i LagComp.obj
 0001:00100b30       _sinf                      10101b30 f i LagComp.obj
 0001:00100b60       ?ImGui_ImplDX9_Init@@YA_NPAXPAUIDirect3DDevice9@@@Z 10101b60 f   imgui_impl_dx9.obj
 0001:00100d40       ?ImGui_ImplDX9_Shutdown@@YAXXZ 10101d40 f   imgui_impl_dx9.obj
 0001:00100d70       ?ImGui_ImplDX9_NewFrame@@YAXXZ 10101d70 f   imgui_impl_dx9.obj
 0001:00100ef0       ?ImGui_ImplDX9_InvalidateDeviceObjects@@YAXXZ 10101ef0 f   imgui_impl_dx9.obj
 0001:00100f90       ?ImGui_ImplDX9_CreateDeviceObjects@@YA_NXZ 10101f90 f   imgui_impl_dx9.obj
 0001:00100fc0       ?ImGui_ImplDX9_RenderDrawLists@@YAXPAUImDrawData@@@Z 10101fc0 f   imgui_impl_dx9.obj
 0001:00101990       ?ImGui_ImplDX9_WndProcHandler@@YAJPAUHWND__@@IIJ@Z 10102990 f   imgui_impl_dx9.obj
 0001:00101d80       ??A?$ImVector@UImDrawCmd@@@@QAEAAUImDrawCmd@@H@Z 10102d80 f i imgui_draw.obj
 0001:00101d80       ??A?$ImVector@UImDrawCmd@@@@QBEABUImDrawCmd@@H@Z 10102d80 f i imgui_impl_dx9.obj
 0001:00101da0       _DetourCopyInstructionARM@20 10102da0 f   disolarm.obj
 0001:00101dd0       _DetourSetCodeModuleARM@8  10102dd0 f   disolarm.obj
 0001:00101de0       ??0CDetourDisARM@@QAE@XZ   10102de0 f   disolarm.obj
 0001:00101e10       ?CopyInstruction@CDetourDisARM@@QAEPAEPAEPAPAE01PAJ@Z 10102e10 f   disolarm.obj
 0001:00101ee0       ?PureCopy16@CDetourDisARM@@IAEEPAE0@Z 10102ee0 f   disolarm.obj
 0001:00101f00       ?PureCopy32@CDetourDisARM@@IAEEPAE0@Z 10102f00 f   disolarm.obj
 0001:00101f20       ?CopyMiscellaneous16@CDetourDisARM@@IAEEPAE0@Z 10102f20 f   disolarm.obj
 0001:001020a0       ?CopyConditionalBranchOrOther16@CDetourDisARM@@IAEEPAE0@Z 101030a0 f   disolarm.obj
 0001:001021f0       ?CopyUnConditionalBranch16@CDetourDisARM@@IAEEPAE0@Z 101031f0 f   disolarm.obj
 0001:001022f0       ?CopyLiteralLoad16@CDetourDisARM@@IAEEPAE0@Z 101032f0 f   disolarm.obj
 0001:00102370       ?CopyBranchExchangeOrDataProcessing16@CDetourDisARM@@IAEEPAE0@Z 10103370 f   disolarm.obj
 0001:001023c0       ?CopyBranch24@CDetourDisARM@@IAEEPAE0@Z 101033c0 f   disolarm.obj
 0001:00102490       ?CopyBranchOrMiscellaneous32@CDetourDisARM@@IAEEPAE0@Z 10103490 f   disolarm.obj
 0001:001026d0       ?CopyLiteralLoad32@CDetourDisARM@@IAEEPAE0@Z 101036d0 f   disolarm.obj
 0001:00102760       ?CopyLoadAndStoreSingle@CDetourDisARM@@IAEEPAE0@Z 10103760 f   disolarm.obj
 0001:00102860       ?CopyLoadAndStoreMultipleAndSRS@CDetourDisARM@@IAEEPAE0@Z 10103860 f   disolarm.obj
 0001:00102880       ?CopyTableBranch@CDetourDisARM@@IAEEPAE0@Z 10103880 f   disolarm.obj
 0001:00102ad0       ?BeginCopy32@CDetourDisARM@@IAEEPAE0@Z 10103ad0 f   disolarm.obj
 0001:00102cf0       ?DecodeBranch5@CDetourDisARM@@IAEJK@Z 10103cf0 f   disolarm.obj
 0001:00102d50       ?EncodeBranch5@CDetourDisARM@@IAEGKJ@Z 10103d50 f   disolarm.obj
 0001:00102dd0       ?DecodeBranch8@CDetourDisARM@@IAEJK@Z 10103dd0 f   disolarm.obj
 0001:00102e20       ?EncodeBranch8@CDetourDisARM@@IAEGKJ@Z 10103e20 f   disolarm.obj
 0001:00102e80       ?DecodeBranch11@CDetourDisARM@@IAEJK@Z 10103e80 f   disolarm.obj
 0001:00102ed0       ?EncodeBranch11@CDetourDisARM@@IAEGKJ@Z 10103ed0 f   disolarm.obj
 0001:00102f30       ?EmitBranch11@CDetourDisARM@@IAEEAAPAGJ@Z 10103f30 f   disolarm.obj
 0001:00102fa0       ?DecodeBranch20@CDetourDisARM@@IAEJK@Z 10103fa0 f   disolarm.obj
 0001:00103080       ?EncodeBranch20@CDetourDisARM@@IAEKKJ@Z 10104080 f   disolarm.obj
 0001:00103170       ?DecodeBranch24@CDetourDisARM@@IAEJKAAH@Z 10104170 f   disolarm.obj
 0001:00103280       ?EncodeBranch24@CDetourDisARM@@IAEKKJH@Z 10104280 f   disolarm.obj
 0001:001033b0       ?DecodeLiteralLoad8@CDetourDisARM@@IAEJK@Z 101043b0 f   disolarm.obj
 0001:00103400       ?DecodeLiteralLoad12@CDetourDisARM@@IAEJK@Z 10104400 f   disolarm.obj
 0001:00103450       ?EmitLiteralLoad8@CDetourDisARM@@IAEEAAPAGEPAE@Z 10104450 f   disolarm.obj
 0001:00103510       ?EmitLiteralLoad12@CDetourDisARM@@IAEEAAPAGEPAE@Z 10104510 f   disolarm.obj
 0001:00103630       ?EmitImmediateRegisterLoad32@CDetourDisARM@@IAEEAAPAGE@Z 10104630 f   disolarm.obj
 0001:001036b0       ?EmitImmediateRegisterLoad16@CDetourDisARM@@IAEEAAPAGE@Z 101046b0 f   disolarm.obj
 0001:00103720       ?EmitLongLiteralLoad@CDetourDisARM@@IAEEAAPAGEPAX@Z 10104720 f   disolarm.obj
 0001:001037c0       ?EmitLongBranch@CDetourDisARM@@IAEEAAPAGPAX@Z 101047c0 f   disolarm.obj
 0001:001037f0       ?CalculateExtra@CDetourDisARM@@IAEGEPAE0@Z 101047f0 f   disolarm.obj
 0001:00103830       ?Align4@CDetourDisARM@@IAEPAEPAE@Z 10104830 f i disolarm.obj
 0001:00103850       ?CalculateNewDelta@CDetourDisARM@@IAEJPAE0@Z 10104850 f i disolarm.obj
 0001:00103870       ?CalculateTarget@CDetourDisARM@@IAEPAEPAEJ@Z 10104870 f i disolarm.obj
 0001:00103890       ?EmitAdd32@CDetourDisARM@@IAEEAAPAGEEEE@Z 10104890 f i disolarm.obj
 0001:00103970       ?EmitLogicalShiftLeft32@CDetourDisARM@@IAEEAAPAGEEE@Z 10104970 f i disolarm.obj
 0001:00103a30       ?EmitLongInstruction@CDetourDisARM@@IAEEAAPAGK@Z 10104a30 f i disolarm.obj
 0001:00103a80       ?EmitShortInstruction@CDetourDisARM@@IAEEAAPAGG@Z 10104a80 f i disolarm.obj
 0001:00103ab0       ?EmitStoreImmediate12@CDetourDisARM@@IAEEAAPAGEEG@Z 10104ab0 f i disolarm.obj
 0001:00103b40       ?GetLongInstruction@CDetourDisARM@@IAEKPAE@Z 10104b40 f i disolarm.obj
 0001:00103b70       ?PushClipRect@ImDrawList@@QAEXUImVec2@@0_N@Z 10104b70 f   imgui_draw.obj
 0001:00103ca0       ?PushClipRectFullScreen@ImDrawList@@QAEXXZ 10104ca0 f   imgui_draw.obj
 0001:00103d10       ?PopClipRect@ImDrawList@@QAEXXZ 10104d10 f   imgui_draw.obj
 0001:00103d30       ?PushTextureID@ImDrawList@@QAEXABQAX@Z 10104d30 f   imgui_draw.obj
 0001:00103d60       ?PopTextureID@ImDrawList@@QAEXXZ 10104d60 f   imgui_draw.obj
 0001:00103d80       ?AddLine@ImDrawList@@QAEXABUImVec2@@0IM@Z 10104d80 f   imgui_draw.obj
 0001:00103e40       ?AddRect@ImDrawList@@QAEXABUImVec2@@0IMHM@Z 10104e40 f   imgui_draw.obj
 0001:00103f00       ?AddRectFilled@ImDrawList@@QAEXABUImVec2@@0IMH@Z 10104f00 f   imgui_draw.obj
 0001:00103f80       ?AddRectFilledMultiColor@ImDrawList@@QAEXABUImVec2@@0IIII@Z 10104f80 f   imgui_draw.obj
 0001:001040d0       ?AddQuad@ImDrawList@@QAEXABUImVec2@@000IM@Z 101050d0 f   imgui_draw.obj
 0001:00104140       ?AddQuadFilled@ImDrawList@@QAEXABUImVec2@@000I@Z 10105140 f   imgui_draw.obj
 0001:001041a0       ?AddTriangle@ImDrawList@@QAEXABUImVec2@@00IM@Z 101051a0 f   imgui_draw.obj
 0001:00104200       ?AddTriangleFilled@ImDrawList@@QAEXABUImVec2@@00I@Z 10105200 f   imgui_draw.obj
 0001:00104250       ?AddCircle@ImDrawList@@QAEXABUImVec2@@MIHM@Z 10105250 f   imgui_draw.obj
 0001:001042e0       ?AddCircleFilled@ImDrawList@@QAEXABUImVec2@@MIH@Z 101052e0 f   imgui_draw.obj
 0001:00104360       ?AddText@ImDrawList@@QAEXABUImVec2@@IPBD1@Z 10105360 f   imgui_draw.obj
 0001:001043a0       ?AddText@ImDrawList@@QAEXPBUImFont@@MABUImVec2@@IPBD2MPBUImVec4@@@Z 101053a0 f   imgui_draw.obj
 0001:00104530       ?AddImage@ImDrawList@@QAEXPAXABUImVec2@@111I@Z 10105530 f   imgui_draw.obj
 0001:001045d0       ?AddImageQuad@ImDrawList@@QAEXPAXABUImVec2@@1111111I@Z 101055d0 f   imgui_draw.obj
 0001:00104680       ?AddPolyline@ImDrawList@@QAEXPBUImVec2@@HI_NM1@Z 10105680 f   imgui_draw.obj
 0001:00105ad0       ?AddConvexPolyFilled@ImDrawList@@QAEXPBUImVec2@@HI_N@Z 10106ad0 f   imgui_draw.obj
 0001:00106090       ?AddBezierCurve@ImDrawList@@QAEXABUImVec2@@000IMH@Z 10107090 f   imgui_draw.obj
 0001:001060f0       ?PathArcTo@ImDrawList@@QAEXABUImVec2@@MMMH@Z 101070f0 f   imgui_draw.obj
 0001:00106200       ?PathArcToFast@ImDrawList@@QAEXABUImVec2@@MHH@Z 10107200 f   imgui_draw.obj
 0001:001063f0       ?PathBezierCurveTo@ImDrawList@@QAEXABUImVec2@@00H@Z 101073f0 f   imgui_draw.obj
 0001:00106600       ?PathRect@ImDrawList@@QAEXABUImVec2@@0MH@Z 10107600 f   imgui_draw.obj
 0001:00106950       ?ChannelsSplit@ImDrawList@@QAEXH@Z 10107950 f   imgui_draw.obj
 0001:00106b00       ?ChannelsMerge@ImDrawList@@QAEXXZ 10107b00 f   imgui_draw.obj
 0001:00106cd0       ?ChannelsSetCurrent@ImDrawList@@QAEXH@Z 10107cd0 f   imgui_draw.obj
 0001:00106d90       ?AddCallback@ImDrawList@@QAEXP6AXPBU1@PBUImDrawCmd@@@ZPAX@Z 10107d90 f   imgui_draw.obj
 0001:00106e10       ?AddDrawCmd@ImDrawList@@QAEXXZ 10107e10 f   imgui_draw.obj
 0001:00106eb0       ?Clear@ImDrawList@@QAEXXZ  10107eb0 f   imgui_draw.obj
 0001:00106f40       ?ClearFreeMemory@ImDrawList@@QAEXXZ 10107f40 f   imgui_draw.obj
 0001:00107040       ?PrimReserve@ImDrawList@@QAEXHH@Z 10108040 f   imgui_draw.obj
 0001:001070d0       ?PrimRect@ImDrawList@@QAEXABUImVec2@@0I@Z 101080d0 f   imgui_draw.obj
 0001:00107340       ?PrimRectUV@ImDrawList@@QAEXABUImVec2@@000I@Z 10108340 f   imgui_draw.obj
 0001:001075e0       ?PrimQuadUV@ImDrawList@@QAEXABUImVec2@@0000000I@Z 101085e0 f   imgui_draw.obj
 0001:00107800       ?UpdateClipRect@ImDrawList@@QAEXXZ 10108800 f   imgui_draw.obj
 0001:00107970       ?UpdateTextureID@ImDrawList@@QAEXXZ 10108970 f   imgui_draw.obj
 0001:00107a90       ?DeIndexAllBuffers@ImDrawData@@QAEXXZ 10108a90 f   imgui_draw.obj
 0001:00107be0       ?ScaleClipRects@ImDrawData@@QAEXABUImVec2@@@Z 10108be0 f   imgui_draw.obj
 0001:00107ce0       ??0ImFontConfig@@QAE@XZ    10108ce0 f   imgui_draw.obj
 0001:00107dd0       ??0ImFontAtlas@@QAE@XZ     10108dd0 f   imgui_draw.obj
 0001:00107ea0       ??1ImFontAtlas@@QAE@XZ     10108ea0 f   imgui_draw.obj
 0001:00107ef0       ?AddFont@ImFontAtlas@@QAEPAUImFont@@PBUImFontConfig@@@Z 10108ef0 f   imgui_draw.obj
 0001:00108020       ?AddFontDefault@ImFontAtlas@@QAEPAUImFont@@PBUImFontConfig@@@Z 10109020 f   imgui_draw.obj
 0001:001080f0       ?AddFontFromFileTTF@ImFontAtlas@@QAEPAUImFont@@PBDMPBUImFontConfig@@PBG@Z 101090f0 f   imgui_draw.obj
 0001:00108220       ?AddFontFromMemoryTTF@ImFontAtlas@@QAEPAUImFont@@PAXHMPBUImFontConfig@@PBG@Z 10109220 f   imgui_draw.obj
 0001:001082b0       ?AddFontFromMemoryCompressedTTF@ImFontAtlas@@QAEPAUImFont@@PBXHMPBUImFontConfig@@PBG@Z 101092b0 f   imgui_draw.obj
 0001:00108370       ?AddFontFromMemoryCompressedBase85TTF@ImFontAtlas@@QAEPAUImFont@@PBDMPBUImFontConfig@@PBG@Z 10109370 f   imgui_draw.obj
 0001:001083f0       ?ClearTexData@ImFontAtlas@@QAEXXZ 101093f0 f   imgui_draw.obj
 0001:00108440       ?ClearInputData@ImFontAtlas@@QAEXXZ 10109440 f   imgui_draw.obj
 0001:00108570       ?ClearFonts@ImFontAtlas@@QAEXXZ 10109570 f   imgui_draw.obj
 0001:001085e0       ?Clear@ImFontAtlas@@QAEXXZ 101095e0 f   imgui_draw.obj
 0001:00108610       ?GetTexDataAsAlpha8@ImFontAtlas@@QAEXPAPAEPAH11@Z 10109610 f   imgui_draw.obj
 0001:00108690       ?GetTexDataAsRGBA32@ImFontAtlas@@QAEXPAPAEPAH11@Z 10109690 f   imgui_draw.obj
 0001:00108780       ?GetGlyphRangesDefault@ImFontAtlas@@QAEPBGXZ 10109780 f   imgui_draw.obj
 0001:001087a0       ?GetGlyphRangesKorean@ImFontAtlas@@QAEPBGXZ 101097a0 f   imgui_draw.obj
 0001:001087c0       ?GetGlyphRangesJapanese@ImFontAtlas@@QAEPBGXZ 101097c0 f   imgui_draw.obj
 0001:00108890       ?GetGlyphRangesChinese@ImFontAtlas@@QAEPBGXZ 10109890 f   imgui_draw.obj
 0001:001088b0       ?GetGlyphRangesCyrillic@ImFontAtlas@@QAEPBGXZ 101098b0 f   imgui_draw.obj
 0001:001088d0       ?GetGlyphRangesThai@ImFontAtlas@@QAEPBGXZ 101098d0 f   imgui_draw.obj
 0001:001088f0       ?Build@ImFontAtlas@@QAE_NXZ 101098f0 f   imgui_draw.obj
 0001:00109540       ?RenderCustomTexData@ImFontAtlas@@QAEXHPAX@Z 1010a540 f   imgui_draw.obj
 0001:00109c10       ??0ImFont@@QAE@XZ          1010ac10 f   imgui_draw.obj
 0001:00109cb0       ??1ImFont@@QAE@XZ          1010acb0 f   imgui_draw.obj
 0001:00109d10       ?Clear@ImFont@@QAEXXZ      1010ad10 f   imgui_draw.obj
 0001:00109dd0       ?BuildLookupTable@ImFont@@QAEXXZ 1010add0 f   imgui_draw.obj
 0001:0010a020       ?FindGlyph@ImFont@@QBEPBUGlyph@1@G@Z 1010b020 f   imgui_draw.obj
 0001:0010a080       ?SetFallbackChar@ImFont@@QAEXG@Z 1010b080 f   imgui_draw.obj
 0001:0010a0a0       ?CalcTextSizeA@ImFont@@QBE?AUImVec2@@MMMPBD0PAPBD@Z 1010b0a0 f   imgui_draw.obj
 0001:0010a390       ?CalcWordWrapPositionA@ImFont@@QBEPBDMPBD0M@Z 1010b390 f   imgui_draw.obj
 0001:0010a5c0       ?RenderChar@ImFont@@QBEXPAUImDrawList@@MUImVec2@@IG@Z 1010b5c0 f   imgui_draw.obj
 0001:0010a750       ?RenderText@ImFont@@QBEXPAUImDrawList@@MUImVec2@@IABUImVec4@@PBD3M_N@Z 1010b750 f   imgui_draw.obj
 0001:0010af80       ?GrowIndex@ImFont@@QAEXH@Z 1010bf80 f   imgui_draw.obj
 0001:0010b010       ?AddRemapChar@ImFont@@QAEXGG_N@Z 1010c010 f   imgui_draw.obj
 0001:001149b0       ??0ImDrawChannel@@QAE@XZ   101159b0 f i imgui_draw.obj
 0001:00114a00       ??0ImDrawCmd@@QAE@XZ       10115a00 f i imgui_draw.obj
 0001:00114a80       ??A?$ImVector@UGlyph@ImFont@@@@QAEAAUGlyph@ImFont@@H@Z 10115a80 f i imgui_draw.obj
 0001:00114aa0       ??A?$ImVector@UImFontConfig@@@@QAEAAUImFontConfig@@H@Z 10115aa0 f i imgui_draw.obj
 0001:00114ac0       ??A?$ImVector@Ustbrp_rect@@@@QAEAAUstbrp_rect@@H@Z 10115ac0 f i imgui_draw.obj
 0001:00114ae0       ??_GImFont@@QAEPAXI@Z      10115ae0 f i imgui_draw.obj
 0001:00114b10       ?PrimWriteIdx@ImDrawList@@QAEXG@Z 10115b10 f i imgui_draw.obj
 0001:00114b40       ?PrimWriteVtx@ImDrawList@@QAEXABUImVec2@@0I@Z 10115b40 f i imgui_draw.obj
 0001:00114ba0       ?back@?$ImVector@UImFontConfig@@@@QAEAAUImFontConfig@@XZ 10115ba0 f i imgui_draw.obj
 0001:00114bc0       ?back@?$ImVector@UImVec2@@@@QAEAAUImVec2@@XZ 10115bc0 f i imgui_draw.obj
 0001:00114be0       ?push_back@?$ImVector@UImDrawCmd@@@@QAEXABUImDrawCmd@@@Z 10115be0 f i imgui_draw.obj
 0001:00114c40       ?push_back@?$ImVector@UImFontConfig@@@@QAEXABUImFontConfig@@@Z 10115c40 f i imgui_draw.obj
 0001:00114ca0       ?push_back@?$ImVector@UImVec4@@@@QAEXABUImVec4@@@Z 10115ca0 f i imgui_draw.obj
 0001:00114ca0       ?push_back@?$ImVector@Ustbrp_rect@@@@QAEXABUstbrp_rect@@@Z 10115ca0 f i imgui_draw.obj
 0001:00114d10       ?reserve@?$ImVector@UImDrawCmd@@@@QAEXH@Z 10115d10 f i imgui_draw.obj
 0001:00114d90       ?reserve@?$ImVector@UImFontConfig@@@@QAEXH@Z 10115d90 f i imgui_draw.obj
 0001:00114e00       ?reserve@?$ImVector@UImVec4@@@@QAEXH@Z 10115e00 f i imgui_draw.obj
 0001:00114e00       ?reserve@?$ImVector@Ustbrp_rect@@@@QAEXH@Z 10115e00 f i imgui_draw.obj
 0001:00114e80       ?resize@?$ImVector@UImDrawCmd@@@@QAEXH@Z 10115e80 f i imgui_draw.obj
 0001:00114ec0       ?resize@?$ImVector@UImDrawVert@@@@QAEXH@Z 10115ec0 f i imgui_draw.obj
 0001:00114f00       ?resize@?$ImVector@UImVec4@@@@QAEXH@Z 10115f00 f i imgui_draw.obj
 0001:00114f40       ?SetupValue@CConfig@@AAEXAAHHV?$basic_string@DU?$char_traits@D@std@@V?$allocator@D@2@@std@@1@Z 10115f40 f   Configuration.obj
 0001:00115020       ?SetupValue@CConfig@@AAEXAA_N_NV?$basic_string@DU?$char_traits@D@std@@V?$allocator@D@2@@std@@2@Z 10116020 f   Configuration.obj
 0001:00115100       ?SetupValue@CConfig@@AAEXAAMMV?$basic_string@DU?$char_traits@D@std@@V?$allocator@D@2@@std@@1@Z 10116100 f   Configuration.obj
 0001:001151e0       ?Setup@CConfig@@QAEXXZ     101161e0 f   Configuration.obj
 0001:001151f0       ?Save@CConfig@@QAEXXZ      101161f0 f   Configuration.obj
 0001:001156f0       ?Load@CConfig@@QAEXXZ      101166f0 f   Configuration.obj
 0001:00115c20       ??$?0PADX@?$basic_string@DU?$char_traits@D@std@@V?$allocator@D@2@@std@@QAE@PAD0ABV?$allocator@D@1@@Z 10116c20 f i Configuration.obj
 0001:00115ca0       ??$?HDU?$char_traits@D@std@@V?$allocator@D@1@@std@@YA?AV?$basic_string@DU?$char_traits@D@std@@V?$allocator@D@2@@0@$$QAV10@0@Z 10116ca0 f i Configuration.obj
 0001:00115d50       ??$?HDU?$char_traits@D@std@@V?$allocator@D@1@@std@@YA?AV?$basic_string@DU?$char_traits@D@std@@V?$allocator@D@2@@0@$$QAV10@QBD@Z 10116d50 f i Configuration.obj
 0001:00115d90       ??$_Copy_memmove@PAHPAH@std@@YAPAHPAH00@Z 10116d90 f i Utilities.obj
 0001:00115d90       ??$_Copy_memmove@PAPAV?$ConfigValue@M@@PAPAV1@@std@@YAPAPAV?$ConfigValue@M@@PAPAV1@00@Z 10116d90 f i Configuration.obj
 0001:00115d90       ??$_Copy_memmove@PAPAV?$ConfigValue@_N@@PAPAV1@@std@@YAPAPAV?$ConfigValue@_N@@PAPAV1@00@Z 10116d90 f i Configuration.obj
 0001:00115d90       ??$_Copy_memmove@PAPAV?$ConfigValue@H@@PAPAV1@@std@@YAPAPAV?$ConfigValue@H@@PAPAV1@00@Z 10116d90 f i Configuration.obj
 0001:00115d90       ??$_Copy_memmove@PAPAURecvTable@@PAPAU1@@std@@YAPAPAURecvTable@@PAPAU1@00@Z 10116d90 f i NetVarManager.obj
 0001:00115dd0       ??$_Emplace_back_with_unused_capacity@PAV?$ConfigValue@_N@@@?$vector@PAV?$ConfigValue@_N@@V?$allocator@PAV?$ConfigValue@_N@@@std@@@std@@AAEX$$QAPAV?$ConfigValue@_N@@@Z 10116dd0 f i Configuration.obj
 0001:00115dd0       ??$_Emplace_back_with_unused_capacity@H@?$vector@HV?$allocator@H@std@@@std@@AAEX$$QAH@Z 10116dd0 f i Utilities.obj
 0001:00115dd0       ??$_Emplace_back_with_unused_capacity@PAV?$ConfigValue@H@@@?$vector@PAV?$ConfigValue@H@@V?$allocator@PAV?$ConfigValue@H@@@std@@@std@@AAEX$$QAPAV?$ConfigValue@H@@@Z 10116dd0 f i Configuration.obj
 0001:00115dd0       ??$_Emplace_back_with_unused_capacity@PAV?$ConfigValue@M@@@?$vector@PAV?$ConfigValue@M@@V?$allocator@PAV?$ConfigValue@M@@@std@@@std@@AAEX$$QAPAV?$ConfigValue@M@@@Z 10116dd0 f i Configuration.obj
 0001:00115dd0       ??$_Emplace_back_with_unused_capacity@ABQAURecvTable@@@?$vector@PAURecvTable@@V?$allocator@PAURecvTable@@@std@@@std@@AAEXABQAURecvTable@@@Z 10116dd0 f i NetVarManager.obj
 0001:00115e50       ??$_Floating_to_string@M@std@@YA?AV?$basic_string@DU?$char_traits@D@std@@V?$allocator@D@2@@0@PBDM@Z 10116e50 f i Configuration.obj
 0001:00115f20       ??$_Get_size_of_n@$03@std@@YAII@Z 10116f20 f i Configuration.obj
 0001:00115f50       ??$_Integral_to_string@DH@std@@YA?AV?$basic_string@DU?$char_traits@D@std@@V?$allocator@D@2@@0@H@Z 10116f50 f i Configuration.obj
 0001:00115fe0       ??$_Pocca@V?$allocator@D@std@@@std@@YAXAAV?$allocator@D@0@ABV10@@Z 10116fe0 f i Configuration.obj
 0001:00116000       ??$_Pocma@V?$allocator@D@std@@@std@@YAXAAV?$allocator@D@0@0@Z 10117000 f i Configuration.obj
 0001:00116020       ??$_Pocma@V?$allocator@D@std@@@std@@YAXAAV?$allocator@D@0@0U?$integral_constant@_N$00@0@@Z 10117020 f i Configuration.obj
 0001:00116390       ??$_UIntegral_to_buff@DI@std@@YAPADPADI@Z 10117390 f i Configuration.obj
 0001:00116450       ??$_Uninitialized_move@PAHPAHV?$allocator@H@std@@@std@@YAPAHPAH00AAV?$allocator@H@0@@Z 10117450 f i Utilities.obj
 0001:00116450       ??$_Uninitialized_move@PAPAV?$ConfigValue@_N@@PAPAV1@V?$allocator@PAV?$ConfigValue@_N@@@std@@@std@@YAPAPAV?$ConfigValue@_N@@PAPAV1@00AAV?$allocator@PAV?$ConfigValue@_N@@@0@@Z 10117450 f i Configuration.obj
 0001:00116450       ??$_Uninitialized_move@PAPAV?$ConfigValue@H@@PAPAV1@V?$allocator@PAV?$ConfigValue@H@@@std@@@std@@YAPAPAV?$ConfigValue@H@@PAPAV1@00AAV?$allocator@PAV?$ConfigValue@H@@@0@@Z 10117450 f i Configuration.obj
 0001:00116450       ??$_Uninitialized_move@PAPAV?$ConfigValue@M@@PAPAV1@V?$allocator@PAV?$ConfigValue@M@@@std@@@std@@YAPAPAV?$ConfigValue@M@@PAPAV1@00AAV?$allocator@PAV?$ConfigValue@M@@@0@@Z 10117450 f i Configuration.obj
 0001:00116450       ??$_Uninitialized_move@PAPAURecvTable@@PAPAU1@V?$allocator@PAURecvTable@@@std@@@std@@YAPAPAURecvTable@@PAPAU1@00AAV?$allocator@PAURecvTable@@@0@@Z 10117450 f i NetVarManager.obj
 0001:001164d0       ??$_Uninitialized_move_al_unchecked@PAV?$ConfigValue@H@@PAV1@V?$allocator@PAV?$ConfigValue@H@@@std@@@std@@YAPAPAV?$ConfigValue@H@@PAPAV1@00AAV?$allocator@PAV?$ConfigValue@H@@@0@U_Really_trivial_ptr_iterator_tag@0@U?$integral_constant@_N$00@0@@Z 101174d0 f i Configuration.obj
 0001:001164d0       ??$_Uninitialized_move_al_unchecked@PAURecvTable@@PAU1@V?$allocator@PAURecvTable@@@std@@@std@@YAPAPAURecvTable@@PAPAU1@00AAV?$allocator@PAURecvTable@@@0@U_Really_trivial_ptr_iterator_tag@0@U?$integral_constant@_N$00@0@@Z 101174d0 f i NetVarManager.obj
 0001:001164d0       ??$_Uninitialized_move_al_unchecked@PAV?$ConfigValue@M@@PAV1@V?$allocator@PAV?$ConfigValue@M@@@std@@@std@@YAPAPAV?$ConfigValue@M@@PAPAV1@00AAV?$allocator@PAV?$ConfigValue@M@@@0@U_Really_trivial_ptr_iterator_tag@0@U?$integral_constant@_N$00@0@@Z 101174d0 f i Configuration.obj
 0001:001164d0       ??$_Uninitialized_move_al_unchecked@HHV?$allocator@H@std@@@std@@YAPAHPAH00AAV?$allocator@H@0@U_Really_trivial_ptr_iterator_tag@0@U?$integral_constant@_N$00@0@@Z 101174d0 f i Utilities.obj
 0001:001164d0       ??$_Uninitialized_move_al_unchecked@PAV?$ConfigValue@_N@@PAV1@V?$allocator@PAV?$ConfigValue@_N@@@std@@@std@@YAPAPAV?$ConfigValue@_N@@PAPAV1@00AAV?$allocator@PAV?$ConfigValue@_N@@@0@U_Really_trivial_ptr_iterator_tag@0@U?$integral_constant@_N$00@0@@Z 101174d0 f i Configuration.obj
 0001:001164f0       ??$emplace_back@PAV?$ConfigValue@_N@@@?$vector@PAV?$ConfigValue@_N@@V?$allocator@PAV?$ConfigValue@_N@@@std@@@std@@QAEX$$QAPAV?$ConfigValue@_N@@@Z 101174f0 f i Configuration.obj
 0001:001164f0       ??$emplace_back@ABQAURecvTable@@@?$vector@PAURecvTable@@V?$allocator@PAURecvTable@@@std@@@std@@QAEXABQAURecvTable@@@Z 101174f0 f i NetVarManager.obj
 0001:001164f0       ??$emplace_back@PAV?$ConfigValue@H@@@?$vector@PAV?$ConfigValue@H@@V?$allocator@PAV?$ConfigValue@H@@@std@@@std@@QAEX$$QAPAV?$ConfigValue@H@@@Z 101174f0 f i Configuration.obj
 0001:001164f0       ??$emplace_back@H@?$vector@HV?$allocator@H@std@@@std@@QAEX$$QAH@Z 101174f0 f i Utilities.obj
 0001:001164f0       ??$emplace_back@PAV?$ConfigValue@M@@@?$vector@PAV?$ConfigValue@M@@V?$allocator@PAV?$ConfigValue@M@@@std@@@std@@QAEX$$QAPAV?$ConfigValue@M@@@Z 101174f0 f i Configuration.obj
 0001:00116680       ??$end@D$0BF@@std@@YAPADAAY0BF@D@Z 10117680 f i Configuration.obj
 0001:00116690       ??0<unnamed-type-Colors>@Variables@@QAE@XZ 10117690 f i Configuration.obj
 0001:00116960       ??0<unnamed-type-LegitBot>@Variables@@QAE@XZ 10117960 f i Configuration.obj
 0001:001169f0       ??0<unnamed-type-Menu>@Variables@@QAE@XZ 101179f0 f i Configuration.obj
 0001:00116a20       ??0<unnamed-type-Visuals>@Variables@@QAE@XZ 10117a20 f i Configuration.obj
 0001:00116a50       ??0?$ConfigValue@H@@QAE@V?$basic_string@DU?$char_traits@D@std@@V?$allocator@D@2@@std@@0PAH@Z 10117a50 f i Configuration.obj
 0001:00116a50       ??0?$ConfigValue@_N@@QAE@V?$basic_string@DU?$char_traits@D@std@@V?$allocator@D@2@@std@@0PA_N@Z 10117a50 f i Configuration.obj
 0001:00116a50       ??0?$ConfigValue@M@@QAE@V?$basic_string@DU?$char_traits@D@std@@V?$allocator@D@2@@std@@0PAM@Z 10117a50 f i Configuration.obj
 0001:00116ae0       ??0?$basic_string@DU?$char_traits@D@std@@V?$allocator@D@2@@std@@QAE@ID@Z 10117ae0 f i Configuration.obj
 0001:00116b40       ??0CConfig@@QAE@XZ         10117b40 f i Configuration.obj
 0001:00116bb0       ??0Variables@@QAE@XZ       10117bb0 f i Configuration.obj
 0001:00116bf0       ??4?$basic_string@DU?$char_traits@D@std@@V?$allocator@D@2@@std@@QAEAAV01@$$QAV01@@Z 10117bf0 f i Configuration.obj
 0001:00116c70       ??4?$basic_string@DU?$char_traits@D@std@@V?$allocator@D@2@@std@@QAEAAV01@ABV01@@Z 10117c70 f i Configuration.obj
 0001:00116ce0       ??A?$basic_string@DU?$char_traits@D@std@@V?$allocator@D@2@@std@@QAEAADI@Z 10117ce0 f i Configuration.obj
 0001:00116e10       ?_Assign_rv_contents@?$basic_string@DU?$char_traits@D@std@@V?$allocator@D@2@@std@@QAEX$$QAV12@U?$integral_constant@_N$00@2@@Z 10117e10 f i Configuration.obj
 0001:00116e40       ?_Calculate_growth@?$vector@PAV?$ConfigValue@H@@V?$allocator@PAV?$ConfigValue@H@@@std@@@std@@ABEII@Z 10117e40 f i Configuration.obj
 0001:00116e40       ?_Calculate_growth@?$vector@PAV?$ConfigValue@_N@@V?$allocator@PAV?$ConfigValue@_N@@@std@@@std@@ABEII@Z 10117e40 f i Configuration.obj
 0001:00116e40       ?_Calculate_growth@?$vector@PAV?$ConfigValue@M@@V?$allocator@PAV?$ConfigValue@M@@@std@@@std@@ABEII@Z 10117e40 f i Configuration.obj
 0001:00116e40       ?_Calculate_growth@?$vector@HV?$allocator@H@std@@@std@@ABEII@Z 10117e40 f i Utilities.obj
 0001:00116e40       ?_Calculate_growth@?$vector@PAURecvTable@@V?$allocator@PAURecvTable@@@std@@@std@@ABEII@Z 10117e40 f i NetVarManager.obj
 0001:00116e90       ?_Change_array@?$vector@HV?$allocator@H@std@@@std@@AAEXQAHII@Z 10117e90 f i Utilities.obj
 0001:00116e90       ?_Change_array@?$vector@PAV?$ConfigValue@M@@V?$allocator@PAV?$ConfigValue@M@@@std@@@std@@AAEXQAPAV?$ConfigValue@M@@II@Z 10117e90 f i Configuration.obj
 0001:00116e90       ?_Change_array@?$vector@PAV?$ConfigValue@H@@V?$allocator@PAV?$ConfigValue@H@@@std@@@std@@AAEXQAPAV?$ConfigValue@H@@II@Z 10117e90 f i Configuration.obj
 0001:00116e90       ?_Change_array@?$vector@PAV?$ConfigValue@_N@@V?$allocator@PAV?$ConfigValue@_N@@@std@@@std@@AAEXQAPAV?$ConfigValue@_N@@II@Z 10117e90 f i Configuration.obj
 0001:00116e90       ?_Change_array@?$vector@PAURecvTable@@V?$allocator@PAURecvTable@@@std@@@std@@AAEXQAPAURecvTable@@II@Z 10117e90 f i NetVarManager.obj
 0001:00116f30       ?_Check_offset@?$_String_val@U?$_Simple_types@D@std@@@std@@QBEXI@Z 10117f30 f i Configuration.obj
 0001:00116f50       ?_Construct@?$basic_string@DU?$char_traits@D@std@@V?$allocator@D@2@@std@@QAEXQAD0Urandom_access_iterator_tag@2@@Z 10117f50 f i Configuration.obj
 0001:00116f90       ?_Copy_alloc@?$_String_alloc@U?$_String_base_types@DV?$allocator@D@std@@@std@@@std@@QAEXABV?$allocator@D@2@@Z 10117f90 f i Configuration.obj
 0001:00116fc0       ?_Eos@?$basic_string@DU?$char_traits@D@std@@V?$allocator@D@2@@std@@QAEXI@Z 10117fc0 f i Configuration.obj
 0001:00117000       ?_Has_unused_capacity@?$vector@PAV?$ConfigValue@M@@V?$allocator@PAV?$ConfigValue@M@@@std@@@std@@ABE_NXZ 10118000 f i Configuration.obj
 0001:00117000       ?_Has_unused_capacity@?$vector@PAV?$ConfigValue@_N@@V?$allocator@PAV?$ConfigValue@_N@@@std@@@std@@ABE_NXZ 10118000 f i Configuration.obj
 0001:00117000       ?_Has_unused_capacity@?$vector@HV?$allocator@H@std@@@std@@ABE_NXZ 10118000 f i Utilities.obj
 0001:00117000       ?_Has_unused_capacity@?$vector@PAURecvTable@@V?$allocator@PAURecvTable@@@std@@@std@@ABE_NXZ 10118000 f i NetVarManager.obj
 0001:00117000       ?_Has_unused_capacity@?$vector@PAV?$ConfigValue@H@@V?$allocator@PAV?$ConfigValue@H@@@std@@@std@@ABE_NXZ 10118000 f i Configuration.obj
 0001:00117000       ?_Has_unused_capacity@?$vector@VVector@@V?$allocator@VVector@@@std@@@std@@ABE_NXZ 10118000 f i GrenadePrediction.obj
 0001:00117040       ?_Move_alloc@?$_String_alloc@U?$_String_base_types@DV?$allocator@D@std@@@std@@@std@@QAEXAAV?$allocator@D@2@@Z 10118040 f i Configuration.obj
 0001:00117070       ?_Umove_if_noexcept1@?$vector@PAV?$ConfigValue@H@@V?$allocator@PAV?$ConfigValue@H@@@std@@@std@@AAEXPAPAV?$ConfigValue@H@@00U?$integral_constant@_N$00@2@@Z 10118070 f i Configuration.obj
 0001:00117070       ?_Umove_if_noexcept1@?$vector@PAV?$ConfigValue@M@@V?$allocator@PAV?$ConfigValue@M@@@std@@@std@@AAEXPAPAV?$ConfigValue@M@@00U?$integral_constant@_N$00@2@@Z 10118070 f i Configuration.obj
 0001:00117070       ?_Umove_if_noexcept1@?$vector@PAV?$ConfigValue@_N@@V?$allocator@PAV?$ConfigValue@_N@@@std@@@std@@AAEXPAPAV?$ConfigValue@_N@@00U?$integral_constant@_N$00@2@@Z 10118070 f i Configuration.obj
 0001:00117070       ?_Umove_if_noexcept1@?$vector@HV?$allocator@H@std@@@std@@AAEXPAH00U?$integral_constant@_N$00@2@@Z 10118070 f i Utilities.obj
 0001:00117070       ?_Umove_if_noexcept1@?$vector@PAURecvTable@@V?$allocator@PAURecvTable@@@std@@@std@@AAEXPAPAURecvTable@@00U?$integral_constant@_N$00@2@@Z 10118070 f i NetVarManager.obj
 0001:001170a0       ?_Umove_if_noexcept@?$vector@PAV?$ConfigValue@_N@@V?$allocator@PAV?$ConfigValue@_N@@@std@@@std@@AAEXPAPAV?$ConfigValue@_N@@00@Z 101180a0 f i Configuration.obj
 0001:001170a0       ?_Umove_if_noexcept@?$vector@PAV?$ConfigValue@M@@V?$allocator@PAV?$ConfigValue@M@@@std@@@std@@AAEXPAPAV?$ConfigValue@M@@00@Z 101180a0 f i Configuration.obj
 0001:001170a0       ?_Umove_if_noexcept@?$vector@HV?$allocator@H@std@@@std@@AAEXPAH00@Z 101180a0 f i Utilities.obj
 0001:001170a0       ?_Umove_if_noexcept@?$vector@PAV?$ConfigValue@H@@V?$allocator@PAV?$ConfigValue@H@@@std@@@std@@AAEXPAPAV?$ConfigValue@H@@00@Z 101180a0 f i Configuration.obj
 0001:001170a0       ?_Umove_if_noexcept@?$vector@PAURecvTable@@V?$allocator@PAURecvTable@@@std@@@std@@AAEXPAPAURecvTable@@00@Z 101180a0 f i NetVarManager.obj
 0001:001170d0       ?_Unchecked_begin@?$vector@PAV?$ConfigValue@_N@@V?$allocator@PAV?$ConfigValue@_N@@@std@@@std@@QAEPAPAV?$ConfigValue@_N@@XZ 101180d0 f i Configuration.obj
 0001:001170d0       ?_Unchecked_begin@?$vector@PAV?$ConfigValue@H@@V?$allocator@PAV?$ConfigValue@H@@@std@@@std@@QAEPAPAV?$ConfigValue@H@@XZ 101180d0 f i Configuration.obj
 0001:001170d0       ?_Unchecked_begin@?$vector@PAV?$ConfigValue@M@@V?$allocator@PAV?$ConfigValue@M@@@std@@@std@@QAEPAPAV?$ConfigValue@M@@XZ 101180d0 f i Configuration.obj
 0001:001170f0       ?_Unchecked_end@?$vector@PAV?$ConfigValue@_N@@V?$allocator@PAV?$ConfigValue@_N@@@std@@@std@@QAEPAPAV?$ConfigValue@_N@@XZ 101180f0 f i Configuration.obj
 0001:001170f0       ?_Unchecked_end@?$vector@PAV?$ConfigValue@M@@V?$allocator@PAV?$ConfigValue@M@@@std@@@std@@QAEPAPAV?$ConfigValue@M@@XZ 101180f0 f i Configuration.obj
 0001:001170f0       ?_Unchecked_end@?$vector@PAV?$ConfigValue@H@@V?$allocator@PAV?$ConfigValue@H@@@std@@@std@@QAEPAPAV?$ConfigValue@H@@XZ 101180f0 f i Configuration.obj
 0001:00117110       ?_Xran@?$_String_val@U?$_Simple_types@D@std@@@std@@SAXXZ 10118110 f i Configuration.obj
 0001:00117120       ?allocate@?$allocator@PAV?$ConfigValue@H@@@std@@QAEPAPAV?$ConfigValue@H@@I@Z 10118120 f i Configuration.obj
 0001:00117120       ?allocate@?$allocator@PAV?$ConfigValue@_N@@@std@@QAEPAPAV?$ConfigValue@_N@@I@Z 10118120 f i Configuration.obj
 0001:00117120       ?allocate@?$allocator@H@std@@QAEPAHI@Z 10118120 f i Utilities.obj
 0001:00117120       ?allocate@?$allocator@PAV?$ConfigValue@M@@@std@@QAEPAPAV?$ConfigValue@M@@I@Z 10118120 f i Configuration.obj
 0001:00117120       ?allocate@?$allocator@PAURecvTable@@@std@@QAEPAPAURecvTable@@I@Z 10118120 f i NetVarManager.obj
 0001:00117150       ?append@?$basic_string@DU?$char_traits@D@std@@V?$allocator@D@2@@std@@QAEAAV12@ID@Z 10118150 f i Configuration.obj
 0001:001171f0       ?assign@?$basic_string@DU?$char_traits@D@std@@V?$allocator@D@2@@std@@QAEAAV12@ID@Z 101181f0 f i Configuration.obj
 0001:00117280       ?assign@?$char_traits@D@std@@SAPADQADID@Z 10118280 f i Configuration.obj
 0001:001172a0       ?capacity@?$basic_string@DU?$char_traits@D@std@@V?$allocator@D@2@@std@@QBEIXZ 101182a0 f i Configuration.obj
 0001:001172c0       ?insert@?$basic_string@DU?$char_traits@D@std@@V?$allocator@D@2@@std@@QAEAAV12@IABV12@@Z 101182c0 f i Configuration.obj
 0001:00117300       ?insert@?$basic_string@DU?$char_traits@D@std@@V?$allocator@D@2@@std@@QAEAAV12@IQBDI@Z 10118300 f i Configuration.obj
 0001:00117420       ?max_size@?$_Default_allocator_traits@V?$allocator@PAURecvTable@@@std@@@std@@SAIABV?$allocator@PAURecvTable@@@2@@Z 10118420 f i NetVarManager.obj
 0001:00117420       ?max_size@?$_Default_allocator_traits@V?$allocator@PAV?$ConfigValue@H@@@std@@@std@@SAIABV?$allocator@PAV?$ConfigValue@H@@@2@@Z 10118420 f i Configuration.obj
 0001:00117420       ?max_size@?$_Default_allocator_traits@V?$allocator@PAV?$ConfigValue@_N@@@std@@@std@@SAIABV?$allocator@PAV?$ConfigValue@_N@@@2@@Z 10118420 f i Configuration.obj
 0001:00117420       ?max_size@?$_Default_allocator_traits@V?$allocator@PAV?$ConfigValue@M@@@std@@@std@@SAIABV?$allocator@PAV?$ConfigValue@M@@@2@@Z 10118420 f i Configuration.obj
 0001:00117420       ?max_size@?$_Default_allocator_traits@V?$allocator@H@std@@@std@@SAIABV?$allocator@H@2@@Z 10118420 f i Utilities.obj
 0001:00117430       ?max_size@?$vector@HV?$allocator@H@std@@@std@@QBEIXZ 10118430 f i Utilities.obj
 0001:00117430       ?max_size@?$vector@PAV?$ConfigValue@M@@V?$allocator@PAV?$ConfigValue@M@@@std@@@std@@QBEIXZ 10118430 f i Configuration.obj
 0001:00117430       ?max_size@?$vector@PAURecvTable@@V?$allocator@PAURecvTable@@@std@@@std@@QBEIXZ 10118430 f i NetVarManager.obj
 0001:00117430       ?max_size@?$vector@PAV?$ConfigValue@_N@@V?$allocator@PAV?$ConfigValue@_N@@@std@@@std@@QBEIXZ 10118430 f i Configuration.obj
 0001:00117430       ?max_size@?$vector@PAV?$ConfigValue@H@@V?$allocator@PAV?$ConfigValue@H@@@std@@@std@@QBEIXZ 10118430 f i Configuration.obj
 0001:00117470       ?push_back@?$vector@PAV?$ConfigValue@_N@@V?$allocator@PAV?$ConfigValue@_N@@@std@@@std@@QAEX$$QAPAV?$ConfigValue@_N@@@Z 10118470 f i Configuration.obj
 0001:00117470       ?push_back@?$vector@PAV?$ConfigValue@M@@V?$allocator@PAV?$ConfigValue@M@@@std@@@std@@QAEX$$QAPAV?$ConfigValue@M@@@Z 10118470 f i Configuration.obj
 0001:00117470       ?push_back@?$vector@HV?$allocator@H@std@@@std@@QAEX$$QAH@Z 10118470 f i Utilities.obj
 0001:00117470       ?push_back@?$vector@PAV?$ConfigValue@H@@V?$allocator@PAV?$ConfigValue@H@@@std@@@std@@QAEX$$QAPAV?$ConfigValue@H@@@Z 10118470 f i Configuration.obj
 0001:001174a0       ?resize@?$basic_string@DU?$char_traits@D@std@@V?$allocator@D@2@@std@@QAEXID@Z 101184a0 f i Configuration.obj
 0001:001174f0       ?size@?$vector@PAV?$ConfigValue@H@@V?$allocator@PAV?$ConfigValue@H@@@std@@@std@@QBEIXZ 101184f0 f i Configuration.obj
 0001:001174f0       ?size@?$vector@PAV?$ConfigValue@_N@@V?$allocator@PAV?$ConfigValue@_N@@@std@@@std@@QBEIXZ 101184f0 f i Configuration.obj
 0001:001174f0       ?size@?$vector@HV?$allocator@H@std@@@std@@QBEIXZ 101184f0 f i Utilities.obj
 0001:001174f0       ?size@?$vector@PAV?$ConfigValue@M@@V?$allocator@PAV?$ConfigValue@M@@@std@@@std@@QBEIXZ 101184f0 f i Configuration.obj
 0001:001174f0       ?size@?$vector@PAURecvTable@@V?$allocator@PAURecvTable@@@std@@@std@@QBEIXZ 101184f0 f i NetVarManager.obj
 0001:00117520       ?to_string@std@@YA?AV?$basic_string@DU?$char_traits@D@std@@V?$allocator@D@2@@1@H@Z 10118520 f i Configuration.obj
 0001:00117550       ?to_string@std@@YA?AV?$basic_string@DU?$char_traits@D@std@@V?$allocator@D@2@@1@M@Z 10118550 f i Configuration.obj
 0001:00117590       __scprintf                 10118590 f i Configuration.obj
 0001:001175d0       __vscprintf_l              101185d0 f i Configuration.obj
 0001:00117620       ?FakeSleep@@YGXK@Z         10118620 f   DLLMain.obj
 0001:00117640       ?FakeSleepEx@@YGKKH@Z      10118640 f   DLLMain.obj
 0001:00117660       ?GetProcessId@@YAKPBD@Z    10118660 f   DLLMain.obj
 0001:00117790       ?on_dll_attach@@YA_NPAX@Z  10118790 f   DLLMain.obj
 0001:001177f0       _DllMain@12                101187f0 f   DLLMain.obj
 0001:00117830       ??$_Unchecked@V?$_String_val@U?$_Simple_types@D@std@@@std@@@std@@YAPADABV?$_String_iterator@V?$_String_val@U?$_Simple_types@D@std@@@std@@@0@@Z 10118830 f i DLLMain.obj
 0001:00117850       ??$_Unchecked_n@V?$_String_iterator@V?$_String_val@U?$_Simple_types@D@std@@@std@@@std@@U_Distance_unknown@2@@std@@YAPADV?$_String_iterator@V?$_String_val@U?$_Simple_types@D@std@@@std@@@0@U_Distance_unknown@0@@Z 10118850 f i DLLMain.obj
 0001:00117870       ??$transform@V?$_String_iterator@V?$_String_val@U?$_Simple_types@D@std@@@std@@@std@@V12@P6AHH@Z@std@@YA?AV?$_String_iterator@V?$_String_val@U?$_Simple_types@D@std@@@std@@@0@V10@0V10@P6AHH@Z@Z 10118870 f i DLLMain.obj
 0001:00117930       ?begin@?$basic_string@DU?$char_traits@D@std@@V?$allocator@D@2@@std@@QAE?AV?$_String_iterator@V?$_String_val@U?$_Simple_types@D@std@@@std@@@2@XZ 10118930 f i DLLMain.obj
 0001:001179a0       ?end@?$basic_string@DU?$char_traits@D@std@@V?$allocator@D@2@@std@@QAE?AV?$_String_iterator@V?$_String_val@U?$_Simple_types@D@std@@@std@@@2@XZ 101189a0 f i DLLMain.obj
 0001:00117a10       ?Initialize@CNetVarManager@@QAEXXZ 10118a10 f   NetVarManager.obj
 0001:00117a70       ?GetOffset@CNetVarManager@@QAEHPBD0@Z 10118a70 f   NetVarManager.obj
 0001:00117ab0       ?HookProp@CNetVarManager@@QAE_NPBD0P6AXPBVCRecvProxyData@@PAX2@Z@Z 10118ab0 f   NetVarManager.obj
 0001:00117af0       ?hookProp@CNetVarManager@@QAEKPBD0PAX1@Z 10118af0 f   NetVarManager.obj
 0001:00117b40       ?Get_Prop@CNetVarManager@@AAEHPBD0PAPAURecvProp@@@Z 10118b40 f   NetVarManager.obj
 0001:00117b90       ?Get_Prop@CNetVarManager@@AAEHPAURecvTable@@PBDPAPAURecvProp@@@Z 10118b90 f   NetVarManager.obj
 0001:00117c60       ?GetTable@CNetVarManager@@AAEPAURecvTable@@PBD@Z 10118c60 f   NetVarManager.obj
 0001:00117d00       ??0CNetVarManager@@QAE@XZ  10118d00 f i NetVarManager.obj
 0001:00117d20       ??8?$_Vector_const_iterator@V?$_Vector_val@U?$_Simple_types@PAURecvTable@@@std@@@std@@@std@@QBE_NABV01@@Z 10118d20 f i NetVarManager.obj
 0001:00117d20       ??8?$_Vector_const_iterator@V?$_Vector_val@U?$_Simple_types@VVector@@@std@@@std@@@std@@QBE_NABV01@@Z 10118d20 f i GrenadePrediction.obj
 0001:00117d60       ??9?$_Vector_const_iterator@V?$_Vector_val@U?$_Simple_types@VVector@@@std@@@std@@@std@@QBE_NABV01@@Z 10118d60 f i GrenadePrediction.obj
 0001:00117d60       ??9?$_Vector_const_iterator@V?$_Vector_val@U?$_Simple_types@PAURecvTable@@@std@@@std@@@std@@QBE_NABV01@@Z 10118d60 f i NetVarManager.obj
 0001:00117da0       ??E?$_Vector_const_iterator@V?$_Vector_val@U?$_Simple_types@PAURecvTable@@@std@@@std@@@std@@QAEAAV01@XZ 10118da0 f i NetVarManager.obj
 0001:00117dc0       ?begin@?$vector@VVector@@V?$allocator@VVector@@@std@@@std@@QAE?AV?$_Vector_iterator@V?$_Vector_val@U?$_Simple_types@VVector@@@std@@@std@@@2@XZ 10118dc0 f i GrenadePrediction.obj
 0001:00117dc0       ?begin@?$vector@PAURecvTable@@V?$allocator@PAURecvTable@@@std@@@std@@QAE?AV?$_Vector_iterator@V?$_Vector_val@U?$_Simple_types@PAURecvTable@@@std@@@std@@@2@XZ 10118dc0 f i NetVarManager.obj
 0001:00117e20       ?clear@?$vector@VVector@@V?$allocator@VVector@@@std@@@std@@QAEXXZ 10118e20 f i GrenadePrediction.obj
 0001:00117e20       ?clear@?$vector@PAURecvTable@@V?$allocator@PAURecvTable@@@std@@@std@@QAEXXZ 10118e20 f i NetVarManager.obj
 0001:00117e90       ?empty@?$vector@PAURecvTable@@V?$allocator@PAURecvTable@@@std@@@std@@QBE_NXZ 10118e90 f i NetVarManager.obj
 0001:00117ed0       ?end@?$vector@VVector@@V?$allocator@VVector@@@std@@@std@@QAE?AV?$_Vector_iterator@V?$_Vector_val@U?$_Simple_types@VVector@@@std@@@std@@@2@XZ 10118ed0 f i GrenadePrediction.obj
 0001:00117ed0       ?end@?$vector@PAURecvTable@@V?$allocator@PAURecvTable@@@std@@@std@@QAE?AV?$_Vector_iterator@V?$_Vector_val@U?$_Simple_types@PAURecvTable@@@std@@@std@@@2@XZ 10118ed0 f i NetVarManager.obj
 0001:00117f30       ?push_back@?$vector@PAURecvTable@@V?$allocator@PAURecvTable@@@std@@@std@@QAEXABQAURecvTable@@@Z 10118f30 f i NetVarManager.obj
 0001:00117f50       ?MyColorPicker3@ImGui@@YA_NPBDQAMH@Z 10118f50 f   imguicolorpicker.obj
 0001:00118020       ?MyColorPicker4@ImGui@@YA_NPBDQAMH@Z 10119020 f   imguicolorpicker.obj
 0001:00118d30       ?MyColorEdit3@ImGui@@YA_NPBDQAMH@Z 10119d30 f   imguicolorpicker.obj
 0001:00118e00       ?MyColorEdit4@ImGui@@YA_NPBDQAMH@Z 10119e00 f   imguicolorpicker.obj
 0001:00119b60       __vsscanf_s_l              1011ab60 f i imguicolorpicker.obj
 0001:00119b90       _sscanf_s                  1011ab90 f i imguicolorpicker.obj
 0001:00119bd0       _vsscanf_s                 1011abd0 f i imguicolorpicker.obj
 0001:00119d40       ?OpenConsole@U@@YAXV?$basic_string@DU?$char_traits@D@std@@V?$allocator@D@2@@std@@@Z 1011ad40 f   Utilities.obj
 0001:00119dc0       ?CloseConsole@U@@YAXXZ     1011adc0 f   Utilities.obj
 0001:00119dd0       ?Log@U@@YAXPBDZZ           1011add0 f   Utilities.obj
 0001:00119f00       ?EnableLogFile@U@@YAXV?$basic_string@DU?$char_traits@D@std@@V?$allocator@D@2@@std@@@Z 1011af00 f   Utilities.obj
 0001:00119f70       ?SetConsoleColor@U@@YAXG@Z 1011af70 f   Utilities.obj
 0001:00119f90       ?GetTimeString@U@@YA?AV?$basic_string@DU?$char_traits@D@std@@V?$allocator@D@2@@std@@XZ 1011af90 f   Utilities.obj
 0001:00119ff0       ?WaitOnModuleHandle@U@@YAKV?$basic_string@DU?$char_traits@D@std@@V?$allocator@D@2@@std@@@Z 1011aff0 f   Utilities.obj
 0001:0011a040       ?FindPattern@U@@YAKV?$basic_string@DU?$char_traits@D@std@@V?$allocator@D@2@@std@@PAEPAD@Z 1011b040 f   Utilities.obj
 0001:0011a130       ?FindTextPattern@U@@YAKV?$basic_string@DU?$char_traits@D@std@@V?$allocator@D@2@@std@@PAD@Z 1011b130 f   Utilities.obj
 0001:0011a270       ?pattern_scan@U@@YAPAEPAXPBD@Z 1011b270 f   Utilities.obj
 0001:0011a3a0       ?bin_match@U@@YA_NPAEAAV?$vector@EV?$allocator@E@std@@@std@@@Z 1011b3a0 f   Utilities.obj
 0001:0011a400       ??0vfunc_hook@@QAE@XZ      1011b400 f   Utilities.obj
 0001:0011a440       ??0vfunc_hook@@QAE@PAX@Z   1011b440 f   Utilities.obj
 0001:0011a480       ??1vfunc_hook@@QAE@XZ      1011b480 f   Utilities.obj
 0001:0011a4d0       ?setup@vfunc_hook@@QAE_NPAX@Z 1011b4d0 f   Utilities.obj
 0001:0011a670       ?bCompare@@YA_NPBE0PBD@Z   1011b670 f   Utilities.obj
 0001:0011a6e0       ??$?0V?$allocator@H@std@@$$V@?$_Compressed_pair@V?$allocator@H@std@@V?$_Vector_val@U?$_Simple_types@H@std@@@2@$00@std@@QAE@U_One_then_variadic_args_t@1@$$QAV?$allocator@H@1@@Z 1011b6e0 f i Utilities.obj
 0001:0011a710       ??$?0V?$allocator@H@std@@X@?$_Vector_alloc@U?$_Vec_base_types@HV?$allocator@H@std@@@std@@@std@@QAE@$$QAV?$allocator@H@1@@Z 1011b710 f i Utilities.obj
 0001:0011a740       ??$?6U?$char_traits@D@std@@@std@@YAAAV?$basic_ostream@DU?$char_traits@D@std@@@0@AAV10@PBD@Z 1011b740 f i Utilities.obj
 0001:0011aa60       ??$_Fgetc@D@std@@YA_NAADPAU_iobuf@@@Z 1011ba60 f i Utilities.obj
 0001:0011aa90       ??$_Fputc@D@std@@YA_NDPAU_iobuf@@@Z 1011ba90 f i Utilities.obj
 0001:0011aad0       ??$_Ungetc@D@std@@YA_NABDPAU_iobuf@@@Z 1011bad0 f i Utilities.obj
 0001:0011ab10       ??$endl@DU?$char_traits@D@std@@@std@@YAAAV?$basic_ostream@DU?$char_traits@D@std@@@0@AAV10@@Z 1011bb10 f i Utilities.obj
 0001:0011ab50       ??$use_facet@V?$codecvt@DDU_Mbstatet@@@std@@@std@@YAABV?$codecvt@DDU_Mbstatet@@@0@ABVlocale@0@@Z 1011bb50 f i Utilities.obj
 0001:0011ac40       ??0?$basic_filebuf@DU?$char_traits@D@std@@@std@@QAE@PAU_iobuf@@@Z 1011bc40 f i Utilities.obj
 0001:0011aca0       ??0?$basic_ofstream@DU?$char_traits@D@std@@@std@@QAE@XZ 1011bca0 f i Utilities.obj
 0001:0011ad60       ??0?$fpos@U_Mbstatet@@@std@@QAE@U_Mbstatet@@_J@Z 1011bd60 f i Utilities.obj
 0001:0011ada0       ??0?$fpos@U_Mbstatet@@@std@@QAE@_J@Z 1011bda0 f i Utilities.obj
 0001:0011ade0       ??0?$vector@HV?$allocator@H@std@@@std@@QAE@$$QAV01@@Z 1011bde0 f i Utilities.obj
 0001:0011ae50       ??0_Sentry_base@?$basic_ostream@DU?$char_traits@D@std@@@std@@QAE@AAV12@@Z 1011be50 f i Utilities.obj
 0001:0011aeb0       ??0bad_cast@std@@QAE@ABV01@@Z 1011beb0 f i Utilities.obj
 0001:0011aee0       ??0bad_cast@std@@QAE@XZ    1011bee0 f i Utilities.obj
 0001:0011af10       ??0exception@std@@QAE@QBDH@Z 1011bf10 f i Utilities.obj
 0001:0011af40       ??0sentry@?$basic_ostream@DU?$char_traits@D@std@@@std@@QAE@AAV12@@Z 1011bf40 f i Utilities.obj
 0001:0011b010       ??1?$basic_filebuf@DU?$char_traits@D@std@@@std@@UAE@XZ 1011c010 f i Utilities.obj
 0001:0011b070       ??1?$basic_ofstream@DU?$char_traits@D@std@@@std@@UAE@XZ 1011c070 f i Utilities.obj
 0001:0011b0d0       ??1_Sentry_base@?$basic_ostream@DU?$char_traits@D@std@@@std@@QAE@XZ 1011c0d0 f i Utilities.obj
 0001:0011b150       ??1locale@std@@QAE@XZ      1011c150 f i Utilities.obj
 0001:0011b1d0       ??1sentry@?$basic_ostream@DU?$char_traits@D@std@@@std@@QAE@XZ 1011c1d0 f i Utilities.obj
 0001:0011b220       ??A?$vector@EV?$allocator@E@std@@@std@@QAEAAEI@Z 1011c220 f i Utilities.obj
 0001:0011b240       ??B?$fpos@U_Mbstatet@@@std@@QBE_JXZ 1011c240 f i Utilities.obj
 0001:0011b270       ??Bsentry@?$basic_ostream@DU?$char_traits@D@std@@@std@@QBE_NXZ 1011c270 f i Utilities.obj
 0001:0011b290       ??D?$_String_iterator@V?$_String_val@U?$_Simple_types@D@std@@@std@@@std@@QBEAADXZ 1011c290 f i Utilities.obj
 0001:0011b290       ??D?$_Vector_iterator@V?$_Vector_val@U?$_Simple_types@VVector@@@std@@@std@@@std@@QBEAAVVector@@XZ 1011c290 f i GrenadePrediction.obj
 0001:0011b3b0       ??_D?$basic_ofstream@DU?$char_traits@D@std@@@std@@QAEXXZ 1011c3b0 f i Utilities.obj
 0001:0011b3d2       ??_E?$basic_ofstream@DU?$char_traits@D@std@@@std@@$4PPPPPPPM@A@AEPAXI@Z 1011c3d2 f i Utilities.obj
 0001:0011b3e0       ??_G?$basic_filebuf@DU?$char_traits@D@std@@@std@@UAEPAXI@Z 1011c3e0 f i Utilities.obj
 0001:0011b3e0       ??_E?$basic_filebuf@DU?$char_traits@D@std@@@std@@UAEPAXI@Z 1011c3e0 f i Utilities.obj
 0001:0011b410       ??_G?$basic_ofstream@DU?$char_traits@D@std@@@std@@UAEPAXI@Z 1011c410 f i Utilities.obj
 0001:0011b410       ??_E?$basic_ofstream@DU?$char_traits@D@std@@@std@@UAEPAXI@Z 1011c410 f i Utilities.obj
 0001:0011b450       ?_Clamp_suffix_size@?$_String_val@U?$_Simple_types@D@std@@@std@@QBEIII@Z 1011c450 f i Utilities.obj
 0001:0011b480       ?_Endwrite@?$basic_filebuf@DU?$char_traits@D@std@@@std@@IAE_NXZ 1011c480 f i Utilities.obj
 0001:0011b680       ?_Getfacet@locale@std@@QBEPBVfacet@12@I@Z 1011c680 f i Utilities.obj
 0001:0011b710       ?_Init@?$basic_filebuf@DU?$char_traits@D@std@@@std@@IAEXPAU_iobuf@@W4_Initfl@12@@Z 1011c710 f i Utilities.obj
 0001:0011b7e0       ?_Initcvt@?$basic_filebuf@DU?$char_traits@D@std@@@std@@IAEXPBV?$codecvt@DDU_Mbstatet@@@2@@Z 1011c7e0 f i Utilities.obj
 0001:0011b820       ?_Lock@?$basic_filebuf@DU?$char_traits@D@std@@@std@@UAEXXZ 1011c820 f i Utilities.obj
 0001:0011b850       ?_Move_from@?$vector@HV?$allocator@H@std@@@std@@AAEX$$QAV12@U?$integral_constant@_N$00@2@@Z 1011c850 f i Utilities.obj
 0001:0011b900       ?_Reset_back@?$basic_filebuf@DU?$char_traits@D@std@@@std@@AAEXXZ 1011c900 f i Utilities.obj
 0001:0011b940       ?_Set_back@?$basic_filebuf@DU?$char_traits@D@std@@@std@@AAEXXZ 1011c940 f i Utilities.obj
 0001:0011b9a0       ?_Swap_all@?$_Vector_alloc@U?$_Vec_base_types@HV?$allocator@H@std@@@std@@@std@@QAEXAAV12@@Z 1011c9a0 f i Utilities.obj
 0001:0011b9d0       ?_Unlock@?$basic_filebuf@DU?$char_traits@D@std@@@std@@UAEXXZ 1011c9d0 f i Utilities.obj
 0001:0011ba00       ?close@?$basic_filebuf@DU?$char_traits@D@std@@@std@@QAEPAV12@XZ 1011ca00 f i Utilities.obj
 0001:0011ba70       ?data@?$vector@HV?$allocator@H@std@@@std@@QAEPAHXZ 1011ca70 f i Utilities.obj
 0001:0011bab0       ?eq_int_type@?$char_traits@D@std@@SA_NABH0@Z 1011cab0 f i Utilities.obj
 0001:0011bae0       ?erase@?$basic_string@DU?$char_traits@D@std@@V?$allocator@D@2@@std@@QAEAAV12@II@Z 1011cae0 f i Utilities.obj
 0001:0011bb70       ?estimate_vftbl_length@vfunc_hook@@CAIPAI@Z 1011cb70 f i Utilities.obj
 0001:0011bbc0       ?imbue@?$basic_filebuf@DU?$char_traits@D@std@@@std@@MAEXABVlocale@2@@Z 1011cbc0 f i Utilities.obj
 0001:0011bbf0       ?is_open@?$basic_filebuf@DU?$char_traits@D@std@@@std@@QBE_NXZ 1011cbf0 f i Utilities.obj
 0001:0011bc20       ?is_open@?$basic_ofstream@DU?$char_traits@D@std@@@std@@QBE_NXZ 1011cc20 f i Utilities.obj
 0001:0011bc40       ?not_eof@?$char_traits@D@std@@SAHABH@Z 1011cc40 f i Utilities.obj
 0001:0011bc90       ?open@?$basic_filebuf@DU?$char_traits@D@std@@@std@@QAEPAV12@PBDHH@Z 1011cc90 f i Utilities.obj
 0001:0011bd40       ?open@?$basic_ofstream@DU?$char_traits@D@std@@@std@@QAEXPBDHH@Z 1011cd40 f i Utilities.obj
 0001:0011bda0       ?overflow@?$basic_filebuf@DU?$char_traits@D@std@@@std@@MAEHH@Z 1011cda0 f i Utilities.obj
 0001:0011c0b0       ?pbackfail@?$basic_filebuf@DU?$char_traits@D@std@@@std@@MAEHH@Z 1011d0b0 f i Utilities.obj
 0001:0011c210       ?seekoff@?$basic_filebuf@DU?$char_traits@D@std@@@std@@MAE?AV?$fpos@U_Mbstatet@@@2@_JHH@Z 1011d210 f i Utilities.obj
 0001:0011c300       ?seekpos@?$basic_filebuf@DU?$char_traits@D@std@@@std@@MAE?AV?$fpos@U_Mbstatet@@@2@V32@H@Z 1011d300 f i Utilities.obj
 0001:0011c400       ?seekpos@?$fpos@U_Mbstatet@@@std@@QBE_JXZ 1011d400 f i Utilities.obj
 0001:0011c420       ?setbuf@?$basic_filebuf@DU?$char_traits@D@std@@@std@@MAEPAV?$basic_streambuf@DU?$char_traits@D@std@@@2@PAD_J@Z 1011d420 f i Utilities.obj
 0001:0011c490       ?size@?$vector@EV?$allocator@E@std@@@std@@QBEIXZ 1011d490 f i Utilities.obj
 0001:0011c4c0       ?state@?$fpos@U_Mbstatet@@@std@@QBE?AU_Mbstatet@@XZ 1011d4c0 f i Utilities.obj
 0001:0011c4f0       ?sync@?$basic_filebuf@DU?$char_traits@D@std@@@std@@MAEHXZ 1011d4f0 f i Utilities.obj
 0001:0011c570       ?to_char_type@?$char_traits@D@std@@SADABH@Z 1011d570 f i Utilities.obj
 0001:0011c580       ?to_int_type@?$char_traits@D@std@@SAHABD@Z 1011d580 f i Utilities.obj
 0001:0011c590       ?uflow@?$basic_filebuf@DU?$char_traits@D@std@@@std@@MAEHXZ 1011d590 f i Utilities.obj
 0001:0011c860       ?underflow@?$basic_filebuf@DU?$char_traits@D@std@@@std@@MAEHXZ 1011d860 f i Utilities.obj
 0001:0011c900       ?RelocateBundle@DETOUR_IA64_BUNDLE@@IBEIPAU1@0@Z 1011d900 f   disolia64.obj
 0001:0011c980       ?RelocateInstruction@DETOUR_IA64_BUNDLE@@IBE_NPAU1@E0@Z 1011d980 f   disolia64.obj
 0001:0011cdc0       ?GetTemplate@DETOUR_IA64_BUNDLE@@IBEEXZ 1011ddc0 f   disolia64.obj
 0001:0011cde0       ?GetInst0@DETOUR_IA64_BUNDLE@@IBEEXZ 1011dde0 f   disolia64.obj
 0001:0011ce00       ?GetInst1@DETOUR_IA64_BUNDLE@@IBEEXZ 1011de00 f   disolia64.obj
 0001:0011ce20       ?GetInst2@DETOUR_IA64_BUNDLE@@IBEEXZ 1011de20 f   disolia64.obj
 0001:0011ce50       ?GetUnit@DETOUR_IA64_BUNDLE@@IBEEE@Z 1011de50 f   disolia64.obj
 0001:0011cea0       ?GetUnit0@DETOUR_IA64_BUNDLE@@IBEEXZ 1011dea0 f   disolia64.obj
 0001:0011ced0       ?GetUnit1@DETOUR_IA64_BUNDLE@@IBEEXZ 1011ded0 f   disolia64.obj
 0001:0011cf00       ?GetUnit2@DETOUR_IA64_BUNDLE@@IBEEXZ 1011df00 f   disolia64.obj
 0001:0011cf30       ?GetData0@DETOUR_IA64_BUNDLE@@IBE_KXZ 1011df30 f   disolia64.obj
 0001:0011cf60       ?GetData1@DETOUR_IA64_BUNDLE@@IBE_KXZ 1011df60 f   disolia64.obj
 0001:0011cfd0       ?GetData2@DETOUR_IA64_BUNDLE@@IBE_KXZ 1011dfd0 f   disolia64.obj
 0001:0011d010       ?GetInstruction@DETOUR_IA64_BUNDLE@@IBE_KE@Z 1011e010 f   disolia64.obj
 0001:0011d060       ?GetInstruction0@DETOUR_IA64_BUNDLE@@IBE_KXZ 1011e060 f   disolia64.obj
 0001:0011d090       ?GetInstruction1@DETOUR_IA64_BUNDLE@@IBE_KXZ 1011e090 f   disolia64.obj
 0001:0011d110       ?GetInstruction2@DETOUR_IA64_BUNDLE@@IBE_KXZ 1011e110 f   disolia64.obj
 0001:0011d140       ?SetInstruction@DETOUR_IA64_BUNDLE@@IAEXE_K@Z 1011e140 f   disolia64.obj
 0001:0011d1a0       ?SetInstruction0@DETOUR_IA64_BUNDLE@@IAEX_K@Z 1011e1a0 f   disolia64.obj
 0001:0011d1f0       ?SetInstruction1@DETOUR_IA64_BUNDLE@@IAEX_K@Z 1011e1f0 f   disolia64.obj
 0001:0011d2b0       ?SetInstruction2@DETOUR_IA64_BUNDLE@@IAEX_K@Z 1011e2b0 f   disolia64.obj
 0001:0011d300       ?GetBits@DETOUR_IA64_BUNDLE@@KA_K_K00@Z 1011e300 f   disolia64.obj
 0001:0011d350       ?SetBits@DETOUR_IA64_BUNDLE@@KA_K_K000@Z 1011e350 f   disolia64.obj
 0001:0011d3c0       ?GetOpcode@DETOUR_IA64_BUNDLE@@KA_K_K@Z 1011e3c0 f   disolia64.obj
 0001:0011d3f0       ?GetX@DETOUR_IA64_BUNDLE@@KA_K_K@Z 1011e3f0 f   disolia64.obj
 0001:0011d420       ?GetX3@DETOUR_IA64_BUNDLE@@KA_K_K@Z 1011e420 f   disolia64.obj
 0001:0011d450       ?GetX6@DETOUR_IA64_BUNDLE@@KA_K_K@Z 1011e450 f   disolia64.obj
 0001:0011d480       ?GetImm7a@DETOUR_IA64_BUNDLE@@KA_K_K@Z 1011e480 f   disolia64.obj
 0001:0011d4b0       ?SetImm7a@DETOUR_IA64_BUNDLE@@KA_K_K0@Z 1011e4b0 f   disolia64.obj
 0001:0011d4f0       ?GetImm13c@DETOUR_IA64_BUNDLE@@KA_K_K@Z 1011e4f0 f   disolia64.obj
 0001:0011d520       ?SetImm13c@DETOUR_IA64_BUNDLE@@KA_K_K0@Z 1011e520 f   disolia64.obj
 0001:0011d560       ?GetSignBit@DETOUR_IA64_BUNDLE@@KA_K_K@Z 1011e560 f   disolia64.obj
 0001:0011d590       ?SetSignBit@DETOUR_IA64_BUNDLE@@KA_K_K0@Z 1011e590 f   disolia64.obj
 0001:0011d5d0       ?GetImm20a@DETOUR_IA64_BUNDLE@@KA_K_K@Z 1011e5d0 f   disolia64.obj
 0001:0011d600       ?SetImm20a@DETOUR_IA64_BUNDLE@@KA_K_K0@Z 1011e600 f   disolia64.obj
 0001:0011d640       ?GetImm20b@DETOUR_IA64_BUNDLE@@KA_K_K@Z 1011e640 f   disolia64.obj
 0001:0011d670       ?SetImm20b@DETOUR_IA64_BUNDLE@@KA_K_K0@Z 1011e670 f   disolia64.obj
 0001:0011d6b0       ?SignExtend@DETOUR_IA64_BUNDLE@@KA_K_K0@Z 1011e6b0 f   disolia64.obj
 0001:0011d710       ?IsMovlGp@DETOUR_IA64_BUNDLE@@IBEHXZ 1011e710 f   disolia64.obj
 0001:0011d7a0       ?SetInst@DETOUR_IA64_BUNDLE@@IAEXEE@Z 1011e7a0 f   disolia64.obj
 0001:0011d800       ?SetInst0@DETOUR_IA64_BUNDLE@@IAEXE@Z 1011e800 f   disolia64.obj
 0001:0011d840       ?SetInst1@DETOUR_IA64_BUNDLE@@IAEXE@Z 1011e840 f   disolia64.obj
 0001:0011d880       ?SetInst2@DETOUR_IA64_BUNDLE@@IAEXE@Z 1011e880 f   disolia64.obj
 0001:0011d8c0       ?SetData@DETOUR_IA64_BUNDLE@@IAEXE_K@Z 1011e8c0 f   disolia64.obj
 0001:0011d920       ?SetData0@DETOUR_IA64_BUNDLE@@IAEX_K@Z 1011e920 f   disolia64.obj
 0001:0011d980       ?SetData1@DETOUR_IA64_BUNDLE@@IAEX_K@Z 1011e980 f   disolia64.obj
 0001:0011da20       ?SetData2@DETOUR_IA64_BUNDLE@@IAEX_K@Z 1011ea20 f   disolia64.obj
 0001:0011da80       ?SetNop@DETOUR_IA64_BUNDLE@@IAEHE@Z 1011ea80 f   disolia64.obj
 0001:0011db30       ?SetNop0@DETOUR_IA64_BUNDLE@@IAEHXZ 1011eb30 f   disolia64.obj
 0001:0011db50       ?SetNop1@DETOUR_IA64_BUNDLE@@IAEHXZ 1011eb50 f   disolia64.obj
 0001:0011db70       ?SetNop2@DETOUR_IA64_BUNDLE@@IAEHXZ 1011eb70 f   disolia64.obj
 0001:0011db90       ?IsBrl@DETOUR_IA64_BUNDLE@@QBEHXZ 1011eb90 f   disolia64.obj
 0001:0011dc10       ?SetBrl@DETOUR_IA64_BUNDLE@@QAEXXZ 1011ec10 f   disolia64.obj
 0001:0011dc50       ?SetBrl@DETOUR_IA64_BUNDLE@@QAEX_K@Z 1011ec50 f   disolia64.obj
 0001:0011dc90       ?GetBrlTarget@DETOUR_IA64_BUNDLE@@QBE_KXZ 1011ec90 f   disolia64.obj
 0001:0011dcc0       ?SetBrlTarget@DETOUR_IA64_BUNDLE@@QAEX_K@Z 1011ecc0 f   disolia64.obj
 0001:0011dd00       ?SetBrlImm@DETOUR_IA64_BUNDLE@@QAEX_K@Z 1011ed00 f   disolia64.obj
 0001:0011dde0       ?GetBrlImm@DETOUR_IA64_BUNDLE@@QBE_KXZ 1011ede0 f   disolia64.obj
 0001:0011dea0       ?GetMovlGp@DETOUR_IA64_BUNDLE@@QBE_KXZ 1011eea0 f   disolia64.obj
 0001:0011dfe0       ?SetMovlGp@DETOUR_IA64_BUNDLE@@QAEX_K@Z 1011efe0 f   disolia64.obj
 0001:0011e0f0       ?SetStop@DETOUR_IA64_BUNDLE@@QAEXXZ 1011f0f0 f   disolia64.obj
 0001:0011e120       ?Copy@DETOUR_IA64_BUNDLE@@QBEIPAU1@0@Z 1011f120 f   disolia64.obj
 0001:0011e1c0       _DetourCopyInstructionIA64@20 1011f1c0 f   disolia64.obj
 0001:0011e290       _DetourSetCodeModuleIA64@8 1011f290 f   disolia64.obj
 0001:0011e2a0       ?NoSmoke@@YAXPBVCRecvProxyData@@PAX1@Z 1011f2a0 f   recvproxy.obj
 0001:0011e2c0       ?AnimationFixHook@@YAXXZ   1011f2c0 f   recvproxy.obj
 0001:0011e370       ?AnimationFixUnhook@@YAXXZ 1011f370 f   recvproxy.obj
 0001:0011e420       ?NetvarHook@@YAXXZ         1011f420 f   recvproxy.obj
 0001:0011e560       ?UnloadProxy@@YAXXZ        1011f560 f   recvproxy.obj
 0001:0011e690       ??0SpoofedConvar@@QAE@PBD@Z 1011f690 f   SpoofedConvar.obj
 0001:0011e6e0       ??0SpoofedConvar@@QAE@PAVConVar@@PAD@Z 1011f6e0 f   SpoofedConvar.obj
 0001:0011e720       ??1SpoofedConvar@@QAE@XZ   1011f720 f   SpoofedConvar.obj
 0001:0011e810       ?IsSpoofed@SpoofedConvar@@QAE_NXZ 1011f810 f   SpoofedConvar.obj
 0001:0011e840       ?Spoof@SpoofedConvar@@QAEXXZ 1011f840 f   SpoofedConvar.obj
 0001:0011e990       ?SetFlags@SpoofedConvar@@QAEXH@Z 1011f990 f   SpoofedConvar.obj
 0001:0011e9c0       ?GetFlags@SpoofedConvar@@QAEHXZ 1011f9c0 f   SpoofedConvar.obj
 0001:0011e9e0       ?SetBool@SpoofedConvar@@QAEX_N@Z 1011f9e0 f   SpoofedConvar.obj
 0001:0011ea10       ?SetInt@SpoofedConvar@@QAEXH@Z 1011fa10 f   SpoofedConvar.obj
 0001:0011ea40       ?SetFloat@SpoofedConvar@@QAEXM@Z 1011fa40 f   SpoofedConvar.obj
 0001:0011ea80       ?SetString@SpoofedConvar@@QAEXPBD@Z 1011fa80 f   SpoofedConvar.obj
 0001:0011eab0       ??0MinspecCvar@@QAE@PBDPADM@Z 1011fab0 f   SpoofedConvar.obj
 0001:0011eb10       ??1MinspecCvar@@QAE@XZ     1011fb10 f   SpoofedConvar.obj
 0001:0011eba0       ?ValidCvar@MinspecCvar@@QAE_NXZ 1011fba0 f   SpoofedConvar.obj
 0001:0011ebd0       ?Spoof@MinspecCvar@@QAEXXZ 1011fbd0 f   SpoofedConvar.obj
 0001:0011ec60       ?GetInt@MinspecCvar@@QAEHXZ 1011fc60 f   SpoofedConvar.obj
 0001:0011ec90       ?GetFloat@MinspecCvar@@QAEMXZ 1011fc90 f   SpoofedConvar.obj
 0001:0011ecc0       ?GetString@MinspecCvar@@QAEPBDXZ 1011fcc0 f   SpoofedConvar.obj
 0001:0011ecf0       ?GetInt@ConVar@@QAEHXZ     1011fcf0 f i SpoofedConvar.obj
 0001:0011ed10       ?GetString@ConVar@@QAEPBDXZ 1011fd10 f i SpoofedConvar.obj
 0001:0011ed30       ?SetValue@ConVar@@QAEXM@Z  1011fd30 f i SpoofedConvar.obj
 0001:0011ed60       ?SetupFonts@Render@@QAEXXZ 1011fd60 f   Render.obj
 0001:0011ee90       ?Clear@Render@@QAEXHHHHVColor@@@Z 1011fe90 f   Render.obj
 0001:0011eed0       ?DrawOutlinedRect@Render@@QAEXHHHHVColor@@@Z 1011fed0 f   Render.obj
 0001:0011ef10       ?Outline@Render@@QAEXHHHHVColor@@@Z 1011ff10 f   Render.obj
 0001:0011ef50       ?DrawString2@Render@@QAAXKHHVColor@@KPBDZZ 1011ff50 f   Render.obj
 0001:0011f0a0       ?OutlineRainbow@Render@@QAEXHHHHMAAM@Z 101200a0 f   Render.obj
 0001:0011f1b0       ?Line@Render@@QAEXHHHHVColor@@@Z 101201b0 f   Render.obj
 0001:0011f1f0       ?PolyLine@Render@@QAEXPAH0HVColor@@@Z 101201f0 f   Render.obj
 0001:0011f230       ?Polygon@Render@@QAEXHPAUVertex_t@@VColor@@@Z 10120230 f   Render.obj
 0001:0011f320       ?PolygonOutline@Render@@QAEXHPAUVertex_t@@VColor@@1@Z 10120320 f   Render.obj
 0001:0011f3b0       ?PolyLine@Render@@QAEXHPAUVertex_t@@VColor@@@Z 101203b0 f   Render.obj
 0001:0011f430       ?OutlineCircle@Render@@QAEXHHHHVColor@@@Z 10120430 f   Render.obj
 0001:0011f4c0       ?Pixel@Render@@QAEXHHVColor@@@Z 101204c0 f   Render.obj
 0001:0011f500       ?GradientV@Render@@QAEXHHHHVColor@@0@Z 10120500 f   Render.obj
 0001:0011f5e0       ?GradientH@Render@@QAEXHHHHVColor@@0@Z 101205e0 f   Render.obj
 0001:0011f6c0       ?Text@Render@@QAAXHHVColor@@KPBDZZ 101206c0 f   Render.obj
 0001:0011f760       ?Textf@Render@@QAAXHHVColor@@KPBDZZ 10120760 f   Render.obj
 0001:0011f830       ?Text@Render@@QAEXHHVColor@@KPB_W@Z 10120830 f   Render.obj
 0001:0011f890       ?Text@Render@@QAEXHHKPB_W@Z 10120890 f   Render.obj
 0001:0011f8e0       ?GetTextSize@Render@@QAE?AUtagRECT@@KPBD@Z 101208e0 f   Render.obj
 0001:0011f9e0       ?WorldToScreen@Render@@QAE_NAAVVector@@0@Z 101209e0 f   Render.obj
 0001:0011fcc0       ?GetViewport@Render@@QAE?AUtagRECT@@XZ 10120cc0 f   Render.obj
 0001:0011fd30       ??$vsprintf_s@$0EAA@@@YAHAAY0EAA@DPBDPAD@Z 10120d30 f i Render.obj
 0001:0011fd50       ??0Color@@QAE@HHH@Z        10120d50 f i Render.obj
 0001:0011fd80       ?CreateNewTextureID@ISurface@@QAEH_N@Z 10120d80 f i Render.obj
 0001:0011fdb0       ?DrawFilledRect@ISurface@@QAEXHHHH@Z 10120db0 f i Render.obj
 0001:0011fde0       ?DrawLine@ISurface@@QAEXHHHH@Z 10120de0 f i Render.obj
 0001:0011fe10       ?DrawOutlinedCircle@ISurface@@QAEXHHHH@Z 10120e10 f i Render.obj
 0001:0011fe40       ?DrawOutlinedRect@ISurface@@QAEXHHHH@Z 10120e40 f i Render.obj
 0001:0011fe70       ?DrawPolyLine@ISurface@@QAEXPAH0H@Z 10120e70 f i Render.obj
 0001:0011fea0       ?DrawPrintText@ISurface@@QAEXPB_WH@Z 10120ea0 f i Render.obj
 0001:0011fed0       ?DrawSetColor@ISurface@@QAEXHHHH@Z 10120ed0 f i Render.obj
 0001:0011ff00       ?DrawSetTextColor@ISurface@@QAEXHHHH@Z 10120f00 f i Render.obj
 0001:0011ff30       ?DrawSetTextColor@ISurface@@QAEXVColor@@@Z 10120f30 f i Render.obj
 0001:0011ff60       ?DrawSetTextFont@ISurface@@QAEXK@Z 10120f60 f i Render.obj
 0001:0011ff90       ?DrawSetTextPos@ISurface@@QAEXHH@Z 10120f90 f i Render.obj
 0001:0011ffc0       ?DrawSetTexture@ISurface@@QAEXH@Z 10120fc0 f i Render.obj
 0001:0011fff0       ?DrawSetTextureRGBA@ISurface@@QAEXHPBEHH@Z 10120ff0 f i Render.obj
 0001:00120020       ?DrawTexturedPolygon@ISurface@@QAEXHPAUVertex_t@@_N@Z 10121020 f i Render.obj
 0001:00120050       ?FontCreate@ISurface@@QAEKXZ 10121050 f i Render.obj
 0001:00120070       ?FromHSB@Color@@QAE?AV1@MMM@Z 10121070 f i Render.obj
 0001:00120360       ?GetColor@Color@@QBEXAAH000@Z 10121360 f i Render.obj
 0001:001203c0       ?GetTextSize@ISurface@@QAEXKPB_WAAH1@Z 101213c0 f i Render.obj
 0001:001203f0       ?SetFontGlyphSet@ISurface@@QAEXKPBDHHHHH@Z 101213f0 f i Render.obj
 0001:00120430       ?WorldToScreenMatrix@IVEngineClient@@QAEAAY123$$CBMXZ 10121430 f i Render.obj
 0001:00120450       __vsnprintf_s              10121450 f i Render.obj
 0001:00120480       __vsnprintf_s_l            10121480 f i Render.obj
 0001:001204e0       ?OnCreateMove@misc@@QAEXPAVCUserCmd@CInput@@PAVC_BaseEntity@@@Z 101214e0 f   Misc.obj
 0001:001204f0       ?AngleVectors@@YAXABVVector@@PAV1@@Z 101214f0 f   MathFunctions.obj
 0001:001205e0       ?VectorTransform@@YAXVVector@@QAY03MAAV1@@Z 101215e0 f   MathFunctions.obj
 0001:001207e0       ?SinCos@@YAXMPAM0@Z        101217e0 f   MathFunctions.obj
 0001:00120820       ?VectorAngles@@YAXVVector@@AAV1@@Z 10121820 f   MathFunctions.obj
 0001:00120a50       ?AngleVectors@@YAXABVVector@@PAV1@11@Z 10121a50 f   MathFunctions.obj
 0001:00120c40       ?Normalize@@YAXAAVVector@@0@Z 10121c40 f   MathFunctions.obj
 0001:00120cf0       ?CalcAngle@@YAXVVector@@0AAV1@@Z 10121cf0 f   MathFunctions.obj
 0001:00120dc0       ?AngleVectors2@@YAXABVVector@@AAV1@@Z 10121dc0 f   MathFunctions.obj
 0001:00120ea0       ?Clamp@@YA_NAAVVector@@@Z  10121ea0 f   MathFunctions.obj
 0001:00120f90       ?Normalize@@YAXAAVVector@@@Z 10121f90 f   MathFunctions.obj
 0001:00121040       ?ClampAngles@@YAXAAVVector@@@Z 10122040 f   MathFunctions.obj
 0001:001210e0       ?AverageDifference@@YAXABVVector@@0AAM@Z 101220e0 f   MathFunctions.obj
 0001:00121180       ?NormalizeInOut@@YAXAAVVector@@0@Z 10122180 f   MathFunctions.obj
 0001:00121230       ?CalcAngle2@@YA?AVVector@@V1@0@Z 10122230 f   MathFunctions.obj
 0001:001212a0       ?CalcAngle@@YA?AVVector@@AAV1@0@Z 101222a0 f   MathFunctions.obj
 0001:001213d0       ??$isinf@M@@YA_NM@Z        101223d0 f i MathFunctions.obj
 0001:00121410       ??$isnan@M@@YA_NM@Z        10122410 f i MathFunctions.obj
 0001:00121450       ??AVector@@QBEMH@Z         10122450 f i MathFunctions.obj
 0001:00121470       ?Init@Vector@@QAEXMMM@Z    10122470 f i MathFunctions.obj
 0001:001214b0       ?atan2@@YAMMM@Z            101224b0 f i MathFunctions.obj
 0001:001214e0       ?atan@@YAMM@Z              101224e0 f i MathFunctions.obj
 0001:00121500       ?fpclassify@@YAHM@Z        10122500 f i MathFunctions.obj
 0001:00121520       _atan2f                    10122520 f i MathFunctions.obj
 0001:00121550       _atanf                     10122550 f i MathFunctions.obj
 0001:00121580       ?Setup@grenade_prediction@@AAEXAAVVector@@0V2@@Z 10122580 f   GrenadePrediction.obj
 0001:00121830       ?Simulate@grenade_prediction@@AAEXPAUCViewSetup@@@Z 10122830 f   GrenadePrediction.obj
 0001:00121960       ?Step@grenade_prediction@@AAEHAAVVector@@0HM@Z 10122960 f   GrenadePrediction.obj
 0001:00121a40       ?CheckDetonate@grenade_prediction@@AAE_NABVVector@@ABVCGameTrace@@HM@Z 10122a40 f   GrenadePrediction.obj
 0001:00121b50       ?TraceHull@grenade_prediction@@AAEXAAVVector@@0AAVCGameTrace@@@Z 10122b50 f   GrenadePrediction.obj
 0001:00121c20       ?AddGravityMove@grenade_prediction@@AAEXAAVVector@@0M_N@Z 10122c20 f   GrenadePrediction.obj
 0001:00121d20       ?PushEntity@grenade_prediction@@AAEXAAVVector@@ABV2@AAVCGameTrace@@@Z 10122d20 f   GrenadePrediction.obj
 0001:00121d70       ?ResolveFlyCollisionCustom@grenade_prediction@@AAEXAAVCGameTrace@@AAVVector@@M@Z 10122d70 f   GrenadePrediction.obj
 0001:00121ec0       ?PhysicsClipVelocity@grenade_prediction@@AAEHABVVector@@0AAV2@M@Z 10122ec0 f   GrenadePrediction.obj
 0001:00121ff0       ?Tick@grenade_prediction@@QAEXH@Z 10122ff0 f   GrenadePrediction.obj
 0001:00122090       ?View@grenade_prediction@@QAEXPAUCViewSetup@@@Z 10123090 f   GrenadePrediction.obj
 0001:00122160       ?Paint@grenade_prediction@@QAEXXZ 10123160 f   GrenadePrediction.obj
 0001:00122340       ?angle_vectors2@@YAXABVVector@@PAV1@11@Z 10123340 f   GrenadePrediction.obj
 0001:00122570       ??$_Emplace_back_with_unused_capacity@ABVVector@@@?$vector@VVector@@V?$allocator@VVector@@@std@@@std@@AAEXABVVector@@@Z 10123570 f i GrenadePrediction.obj
 0001:001225f0       ??$_Get_size_of_n@$0M@@std@@YAII@Z 101235f0 f i GrenadePrediction.obj
 0001:00122620       ??$_Uninitialized_move@PAVVector@@PAV1@V?$allocator@VVector@@@std@@@std@@YAPAVVector@@PAV1@00AAV?$allocator@VVector@@@0@@Z 10123620 f i GrenadePrediction.obj
 0001:001226b0       ??$_Uninitialized_move_al_unchecked@PAVVector@@PAV1@V?$allocator@VVector@@@std@@@std@@YAPAVVector@@PAV1@00AAV?$allocator@VVector@@@0@U_General_ptr_iterator_tag@0@U_Unused_parameter@0@@Z 101236b0 f i GrenadePrediction.obj
 0001:00122780       ??$construct@VVector@@ABV1@@?$_Default_allocator_traits@V?$allocator@VVector@@@std@@@std@@SAXAAV?$allocator@VVector@@@1@QAVVector@@ABV3@@Z 10123780 f i GrenadePrediction.obj
 0001:00122780       ??$construct@VVector@@V1@@?$_Default_allocator_traits@V?$allocator@VVector@@@std@@@std@@SAXAAV?$allocator@VVector@@@1@QAVVector@@$$QAV3@@Z 10123780 f i GrenadePrediction.obj
 0001:001227c0       ??$emplace_back@ABVVector@@@?$vector@VVector@@V?$allocator@VVector@@@std@@@std@@QAEXABVVector@@@Z 101237c0 f i GrenadePrediction.obj
 0001:00122950       ??0CTraceFilterWorldAndPropsOnly@@QAE@XZ 10123950 f i GrenadePrediction.obj
 0001:00122970       ??A?$vector@VVector@@V?$allocator@VVector@@@std@@@std@@QAEAAVVector@@I@Z 10123970 f i GrenadePrediction.obj
 0001:00122990       ??E?$_Vector_const_iterator@V?$_Vector_val@U?$_Simple_types@VVector@@@std@@@std@@@std@@QAEAAV01@XZ 10123990 f i GrenadePrediction.obj
 0001:001229b0       ??E?$_Vector_iterator@V?$_Vector_val@U?$_Simple_types@VVector@@@std@@@std@@@std@@QAEAAV01@XZ 101239b0 f i GrenadePrediction.obj
 0001:001229d0       ??XVector@@QAEAAV0@M@Z     101239d0 f i GrenadePrediction.obj
 0001:00122a20       ??YVector@@QAEAAV0@ABV0@@Z 10123a20 f i GrenadePrediction.obj
 0001:00122a80       ??ZVector@@QAEAAV0@ABV0@@Z 10123a80 f i GrenadePrediction.obj
 0001:00122ae0       ?GetViewAngles@IVEngineClient@@QAEXAAVVector@@@Z 10123ae0 f i GrenadePrediction.obj
 0001:00122b10       ?Init@Ray_t@@QAEXABVVector@@000@Z 10123b10 f i GrenadePrediction.obj
 0001:00122c90       ?ShouldHitEntity@CTraceFilterWorldAndPropsOnly@@UAE_NPAVC_BaseEntity@@H@Z 10123c90 f i GrenadePrediction.obj
 0001:00122ca0       ?_Calculate_growth@?$vector@VVector@@V?$allocator@VVector@@@std@@@std@@ABEII@Z 10123ca0 f i GrenadePrediction.obj
 0001:00122cf0       ?_Change_array@?$vector@VVector@@V?$allocator@VVector@@@std@@@std@@AAEXQAVVector@@II@Z 10123cf0 f i GrenadePrediction.obj
 0001:00122d90       ?_Umove_if_noexcept1@?$vector@VVector@@V?$allocator@VVector@@@std@@@std@@AAEXPAVVector@@00U?$integral_constant@_N$00@2@@Z 10123d90 f i GrenadePrediction.obj
 0001:00122dc0       ?_Umove_if_noexcept@?$vector@VVector@@V?$allocator@VVector@@@std@@@std@@AAEXPAVVector@@00@Z 10123dc0 f i GrenadePrediction.obj
 0001:00122df0       ?allocate@?$allocator@VVector@@@std@@QAEPAVVector@@I@Z 10123df0 f i GrenadePrediction.obj
 0001:00122e20       ?max_size@?$_Default_allocator_traits@V?$allocator@VVector@@@std@@@std@@SAIABV?$allocator@VVector@@@2@@Z 10123e20 f i GrenadePrediction.obj
 0001:00122e30       ?max_size@?$vector@VVector@@V?$allocator@VVector@@@std@@@std@@QBEIXZ 10123e30 f i GrenadePrediction.obj
 0001:00122e70       ?push_back@?$vector@VVector@@V?$allocator@VVector@@@std@@@std@@QAEXABVVector@@@Z 10123e70 f i GrenadePrediction.obj
 0001:00122e90       ?size@?$vector@VVector@@V?$allocator@VVector@@@std@@@std@@QBEIXZ 10123e90 f i GrenadePrediction.obj
 0001:00122ebd       _GetProcAddress@8          10123ebd f   kernel32:KERNEL32.dll
 0001:00122ec3       _GetLastError@0            10123ec3 f   kernel32:KERNEL32.dll
 0001:00122ec9       _CreateFileW@28            10123ec9 f   kernel32:KERNEL32.dll
 0001:00122ecf       _CloseHandle@4             10123ecf f   kernel32:KERNEL32.dll
 0001:00122ed5       _GetSystemTime@4           10123ed5 f   kernel32:KERNEL32.dll
 0001:00122edb       _FreeLibrary@4             10123edb f   kernel32:KERNEL32.dll
 0001:00122ee1       _LoadLibraryA@4            10123ee1 f   kernel32:KERNEL32.dll
 0001:00122ee7       _SystemTimeToFileTime@8    10123ee7 f   kernel32:KERNEL32.dll
 0001:00122eed       _WaitForSingleObject@8     10123eed f   kernel32:KERNEL32.dll
 0001:00122ef3       _FlushFileBuffers@4        10123ef3 f   kernel32:KERNEL32.dll
 0001:00122ef9       _GetTickCount@0            10123ef9 f   kernel32:KERNEL32.dll
 0001:00122eff       _QueryPerformanceCounter@4 10123eff f   kernel32:KERNEL32.dll
 0001:00122f05       _MapViewOfFile@20          10123f05 f   kernel32:KERNEL32.dll
 0001:00122f0b       _CreateFileMappingW@24     10123f0b f   kernel32:KERNEL32.dll
 0001:00122f11       _FormatMessageA@28         10123f11 f   kernel32:KERNEL32.dll
 0001:00122f17       _GetSystemTimeAsFileTime@4 10123f17 f   kernel32:KERNEL32.dll
 0001:00122f1d       _WideCharToMultiByte@32    10123f1d f   kernel32:KERNEL32.dll
 0001:00122f23       _GetProcessHeap@0          10123f23 f   kernel32:KERNEL32.dll
 0001:00122f29       _GetCurrentProcessId@0     10123f29 f   kernel32:KERNEL32.dll
 0001:00122f2f       _GetFileSize@8             10123f2f f   kernel32:KERNEL32.dll
 0001:00122f35       _LockFileEx@24             10123f35 f   kernel32:KERNEL32.dll
 0001:00122f3b       _LocalFree@4               10123f3b f   kernel32:KERNEL32.dll
 0001:00122f41       _UnlockFile@20             10123f41 f   kernel32:KERNEL32.dll
 0001:00122f47       _HeapDestroy@4             10123f47 f   kernel32:KERNEL32.dll
 0001:00122f4d       _HeapCompact@8             10123f4d f   kernel32:KERNEL32.dll
 0001:00122f53       _HeapAlloc@12              10123f53 f   kernel32:KERNEL32.dll
 0001:00122f59       _LoadLibraryW@4            10123f59 f   kernel32:KERNEL32.dll
 0001:00122f5f       _GetSystemInfo@4           10123f5f f   kernel32:KERNEL32.dll
 0001:00122f65       _HeapReAlloc@16            10123f65 f   kernel32:KERNEL32.dll
 0001:00122f6b       _DeleteFileW@4             10123f6b f   kernel32:KERNEL32.dll
 0001:00122f71       _DeleteFileA@4             10123f71 f   kernel32:KERNEL32.dll
 0001:00122f77       _WaitForSingleObjectEx@12  10123f77 f   kernel32:KERNEL32.dll
 0001:00122f7d       _CreateFileA@28            10123f7d f   kernel32:KERNEL32.dll
 0001:00122f83       _FlushViewOfFile@8         10123f83 f   kernel32:KERNEL32.dll
 0001:00122f89       _OutputDebugStringW@4      10123f89 f   kernel32:KERNEL32.dll
 0001:00122f8f       _GetFileAttributesExW@12   10123f8f f   kernel32:KERNEL32.dll
 0001:00122f95       _GetFileAttributesA@4      10123f95 f   kernel32:KERNEL32.dll
 0001:00122f9b       _GetDiskFreeSpaceA@20      10123f9b f   kernel32:KERNEL32.dll
 0001:00122fa1       _FormatMessageW@28         10123fa1 f   kernel32:KERNEL32.dll
 0001:00122fa7       _GetTempPathA@8            10123fa7 f   kernel32:KERNEL32.dll
 0001:00122fad       _Sleep@4                   10123fad f   kernel32:KERNEL32.dll
 0001:00122fb3       _MultiByteToWideChar@24    10123fb3 f   kernel32:KERNEL32.dll
 0001:00122fb9       _HeapSize@12               10123fb9 f   kernel32:KERNEL32.dll
 0001:00122fbf       _HeapValidate@12           10123fbf f   kernel32:KERNEL32.dll
 0001:00122fc5       _UnmapViewOfFile@4         10123fc5 f   kernel32:KERNEL32.dll
 0001:00122fcb       _GetFileAttributesW@4      10123fcb f   kernel32:KERNEL32.dll
 0001:00122fd1       _CreateMutexW@12           10123fd1 f   kernel32:KERNEL32.dll
 0001:00122fd7       _GetTempPathW@8            10123fd7 f   kernel32:KERNEL32.dll
 0001:00122fdd       _UnlockFileEx@20           10123fdd f   kernel32:KERNEL32.dll
 0001:00122fe3       _SetEndOfFile@4            10123fe3 f   kernel32:KERNEL32.dll
 0001:00122fe9       _GetFullPathNameA@16       10123fe9 f   kernel32:KERNEL32.dll
 0001:00122fef       _SetFilePointer@16         10123fef f   kernel32:KERNEL32.dll
 0001:00122ff5       _LockFile@20               10123ff5 f   kernel32:KERNEL32.dll
 0001:00122ffe       _OutputDebugStringA@4      10123ffe f   kernel32:KERNEL32.dll
 0001:00123004       _GetDiskFreeSpaceW@20      10124004 f   kernel32:KERNEL32.dll
 0001:0012300a       _WriteFile@20              1012400a f   kernel32:KERNEL32.dll
 0001:00123010       _GetFullPathNameW@16       10124010 f   kernel32:KERNEL32.dll
 0001:00123016       _HeapFree@12               10124016 f   kernel32:KERNEL32.dll
 0001:0012301c       _HeapCreate@12             1012401c f   kernel32:KERNEL32.dll
 0001:00123022       _ReadFile@20               10124022 f   kernel32:KERNEL32.dll
 0001:00123028       _AreFileApisANSI@0         10124028 f   kernel32:KERNEL32.dll
 0001:0012302e       _CreateToolhelp32Snapshot@8 1012402e f   kernel32:KERNEL32.dll
 0001:00123034       _Process32First@8          10124034 f   kernel32:KERNEL32.dll
 0001:0012303a       _Process32Next@8           1012403a f   kernel32:KERNEL32.dll
 0001:00123040       _K32GetModuleInformation@16 10124040 f   kernel32:KERNEL32.dll
 0001:00123046       ?_Xlength_error@std@@YAXPBD@Z 10124046 f   msvcprt:MSVCP140.dll
 0001:0012304c       ?_Xout_of_range@std@@YAXPBD@Z 1012404c f   msvcprt:MSVCP140.dll
 0001:00123052       ?uncaught_exceptions@std@@YAHXZ 10124052 f   msvcprt:MSVCP140.dll
 0001:00123058       ??1_Fac_node@std@@QAE@XZ   10124058 f i msvcprt:locale0_implib.obj
 0001:001230b7       ??1_Fac_tidy_reg_t@std@@QAE@XZ 101240b7 f i msvcprt:locale0_implib.obj
 0001:001230de       ?_Facet_Register@std@@YAXPAV_Facet_base@1@@Z 101240de f   msvcprt:locale0_implib.obj
 0001:0012310c       ?_Getgloballocale@locale@std@@CAPAV_Locimp@12@XZ 1012410c f   msvcprt:MSVCP140.dll
 0001:00123112       ?_Fiopen@std@@YAPAU_iobuf@@PBDHH@Z 10124112 f   msvcprt:MSVCP140.dll
 0001:00123118       ?showmanyc@?$basic_streambuf@DU?$char_traits@D@std@@@std@@MAE_JXZ 10124118 f   msvcprt:MSVCP140.dll
 0001:0012311e       ?xsgetn@?$basic_streambuf@DU?$char_traits@D@std@@@std@@MAE_JPAD_J@Z 1012411e f   msvcprt:MSVCP140.dll
 0001:00123124       ?xsputn@?$basic_streambuf@DU?$char_traits@D@std@@@std@@MAE_JPBD_J@Z 10124124 f   msvcprt:MSVCP140.dll
 0001:0012312a       ??2@YAPAXI@Z               1012412a f   MSVCRT:new_scalar.obj
 0001:0012315a       ??3@YAXPAXI@Z              1012415a f   MSVCRT:delete_scalar_size.obj
 0001:001231ac       ___scrt_acquire_startup_lock 101241ac f   MSVCRT:utility.obj
 0001:001231e1       ___scrt_dllmain_after_initialize_c 101241e1 f   MSVCRT:utility.obj
 0001:0012320c       ___scrt_dllmain_before_initialize_c 1012420c f   MSVCRT:utility.obj
 0001:0012321a       ___scrt_dllmain_crt_thread_attach 1012421a f   MSVCRT:utility.obj
 0001:00123239       ___scrt_dllmain_crt_thread_detach 10124239 f   MSVCRT:utility.obj
 0001:00123246       ___scrt_dllmain_exception_filter 10124246 f   MSVCRT:utility.obj
 0001:00123279       ___scrt_dllmain_uninitialize_c 10124279 f   MSVCRT:utility.obj
 0001:0012329c       ___scrt_dllmain_uninitialize_critical 1012429c f   MSVCRT:utility.obj
 0001:001232a9       ___scrt_initialize_crt     101242a9 f   MSVCRT:utility.obj
 0001:001232e2       ___scrt_initialize_onexit_tables 101242e2 f   MSVCRT:utility.obj
 0001:0012338c       ___scrt_is_nonwritable_in_current_image 1012438c f   MSVCRT:utility.obj
 0001:00123416       ___scrt_release_startup_lock 10124416 f   MSVCRT:utility.obj
 0001:00123433       ___scrt_uninitialize_crt   10124433 f   MSVCRT:utility.obj
 0001:0012345b       __onexit                   1012445b f   MSVCRT:utility.obj
 0001:00123496       _atexit                    10124496 f   MSVCRT:utility.obj
 0001:001235be       __Init_thread_abort        101245be f   MSVCRT:thread_safe_statics.obj
 0001:001235e2       __Init_thread_footer       101245e2 f   MSVCRT:thread_safe_statics.obj
 0001:0012362c       __Init_thread_header       1012462c f   MSVCRT:thread_safe_statics.obj
 0001:0012367e       __Init_thread_notify       1012467e f   MSVCRT:thread_safe_statics.obj
 0001:001236bf       __Init_thread_wait         101246bf f   MSVCRT:thread_safe_statics.obj
 0001:00123730       __aullshr                  10124730 f   MSVCRT:ullshr.obj
 0001:00123750       __allmul                   10124750 f   MSVCRT:llmul.obj
 0001:00123790       __allshl                   10124790 f   MSVCRT:llshl.obj
 0001:001237b0       __allshr                   101247b0 f   MSVCRT:llshr.obj
 0001:001237e0       __aulldiv                  101247e0 f   MSVCRT:ulldiv.obj
 0001:00123850       __chkstk                   10124850 f   MSVCRT:chkstk.obj
 0001:00123850       __alloca_probe             10124850 f   MSVCRT:chkstk.obj
 0001:00123880       __ftoui3                   10124880 f   MSVCRT:_ftol3_.obj
 0001:0012388f       __ftoul3                   1012488f f   MSVCRT:_ftol3_.obj
 0001:0012389e       __ftol3                    1012489e f   MSVCRT:_ftol3_.obj
 0001:001238ab       __ftol3_NaN                101248ab f   MSVCRT:_ftol3_.obj
 0001:001238c3       __ftol3_work               101248c3 f   MSVCRT:_ftol3_.obj
 0001:00123949       __ftol3_common             10124949 f   MSVCRT:_ftol3_.obj
 0001:00123a0b       __ftol3_arg_error          10124a0b f   MSVCRT:_ftol3_.obj
 0001:00123a1d       __ftol3_except             10124a1d f   MSVCRT:_ftol3_.obj
 0001:00123a61       __dtoui3                   10124a61 f   MSVCRT:_ftol3_.obj
 0001:00123a70       __dtoul3                   10124a70 f   MSVCRT:_ftol3_.obj
 0001:00123a7f       __dtol3                    10124a7f f   MSVCRT:_ftol3_.obj
 0001:00123a8c       __dtol3_NaN                10124a8c f   MSVCRT:_ftol3_.obj
 0001:00123aa9       __dtol3_work               10124aa9 f   MSVCRT:_ftol3_.obj
 0001:00123b90       __ultod3                   10124b90 f   MSVCRT:_ftol3_.obj
 0001:00123bd0       __ltod3                    10124bd0 f   MSVCRT:_ftol3_.obj
 0001:00123bf7       ??_Gtype_info@@UAEPAXI@Z   10124bf7 f i MSVCRT:std_type_info_static.obj
 0001:00123bf7       ??_Etype_info@@UAEPAXI@Z   10124bf7 f i MSVCRT:std_type_info_static.obj
 0001:00123c20       __ftol2_sse                10124c20 f   MSVCRT:_ftol2_.obj
 0001:00123c29       __ftol2_pentium4           10124c29 f   MSVCRT:_ftol2_.obj
 0001:00123c3c       __ftol2_sse_excpt          10124c3c f   MSVCRT:_ftol2_.obj
 0001:00123c60       __ftol2                    10124c60 f   MSVCRT:_ftol2_.obj
 0001:00123cd5       ??_U@YAPAXI@Z              10124cd5 f   MSVCRT:new_array.obj
 0001:00123cde       ??_V@YAXPAX@Z              10124cde f   MSVCRT:delete_array.obj
 0001:00123cf0       __alldiv                   10124cf0 f   MSVCRT:lldiv.obj
 0001:00123da0       __allrem                   10124da0 f   MSVCRT:llrem.obj
 0001:00123e60       __aullrem                  10124e60 f   MSVCRT:ullrem.obj
 0001:00123ed5       ??_L@YGXPAXIIP6EX0@Z1@Z    10124ed5 f   MSVCRT:ehvecctr.obj
 0001:00123f3e       ??_M@YGXPAXIIP6EX0@Z@Z     10124f3e f   MSVCRT:ehvecdtr.obj
 0001:00123fb8       ?__ArrayUnwind@@YGXPAXIIP6EX0@Z@Z 10124fb8 f   MSVCRT:ehvecdtr.obj
 0001:00124026       ??_V@YAXPAXI@Z             10125026 f   MSVCRT:delete_array_size.obj
 0001:00124040       __alloca_probe_16          10125040 f   MSVCRT:alloca16.obj
 0001:00124056       __alloca_probe_8           10125056     MSVCRT:alloca16.obj
 0001:00124379       __DllMainCRTStartup@12     10125379 f   MSVCRT:dll_dllmain.obj
 0001:0012439c       @__security_check_cookie@4 1012539c f   MSVCRT:_secchk_.obj
 0001:001243ad       @_guard_check_icall@4      101253ad f i MSVCRT:checkcfg.obj
 0001:001243b3       ??0bad_alloc@std@@QAE@ABV01@@Z 101253b3 f i MSVCRT:throw_bad_alloc.obj
 0001:001243ce       ??0bad_alloc@std@@QAE@XZ   101253ce f i MSVCRT:throw_bad_alloc.obj
 0001:001243e6       ??0bad_array_new_length@std@@QAE@ABV01@@Z 101253e6 f i MSVCRT:throw_bad_alloc.obj
 0001:00124401       ??0bad_array_new_length@std@@QAE@XZ 10125401 f i MSVCRT:throw_bad_alloc.obj
 0001:00124419       ??1bad_array_new_length@std@@UAE@XZ 10125419 f i MSVCRT:throw_bad_alloc.obj
 0001:00124419       ??1bad_alloc@std@@UAE@XZ   10125419 f i MSVCRT:throw_bad_alloc.obj
 0001:0012442a       ??_Ebad_array_new_length@std@@UAEPAXI@Z 1012542a f i MSVCRT:throw_bad_alloc.obj
 0001:0012442a       ??_Gbad_array_new_length@std@@UAEPAXI@Z 1012542a f i MSVCRT:throw_bad_alloc.obj
 0001:0012442a       ??_Ebad_alloc@std@@UAEPAXI@Z 1012542a f i MSVCRT:throw_bad_alloc.obj
 0001:0012442a       ??_Gbad_alloc@std@@UAEPAXI@Z 1012542a f i MSVCRT:throw_bad_alloc.obj
 0001:00124457       ?__scrt_throw_std_bad_alloc@@YAXXZ 10125457 f   MSVCRT:throw_bad_alloc.obj
 0001:00124474       ?__scrt_throw_std_bad_array_new_length@@YAXXZ 10125474 f   MSVCRT:throw_bad_alloc.obj
 0001:00124491       ??3@YAXPAX@Z               10125491 f   MSVCRT:delete_scalar.obj
 0001:00124496       ___isa_available_init      10125496 f   MSVCRT:_cpu_disp_.obj
 0001:0012462f       __get_startup_argv_mode    1012562f f   MSVCRT:argv_mode.obj
 0001:00124633       ___scrt_is_ucrt_dll_in_use 10125633 f   MSVCRT:ucrt_detection.obj
 0001:0012463f       ___scrt_fastfail           1012563f f   MSVCRT:utility_desktop.obj
 0001:0012475b       __crt_debugger_hook        1012575b f   MSVCRT:utility_desktop.obj
 0001:00124770       __SEH_prolog4              10125770 f   MSVCRT:_sehprolg4_.obj
 0001:001247b6       __SEH_epilog4              101257b6 f   MSVCRT:_sehprolg4_.obj
 0001:001247cb       __except_handler4          101257cb f   MSVCRT:_chandler4gs_.obj
 0001:0012483d       ___security_init_cookie    1012583d f   MSVCRT:gs_support.obj
 0001:00124888       ?__scrt_initialize_type_info@@YAXXZ 10125888 f   MSVCRT:tncleanup.obj
 0001:00124894       ?__scrt_uninitialize_type_info@@YAXXZ 10125894 f   MSVCRT:tncleanup.obj
 0001:001248a0       ___scrt_initialize_default_local_stdio_options 101258a0 f   MSVCRT:default_local_stdio_options.obj
 0001:001248bd       ___scrt_get_dyn_tls_init_callback 101258bd f   MSVCRT:dyn_tls_init.obj
 0001:001248c3       __RTC_Initialize           101258c3 f   MSVCRT:_initsect_.obj
 0001:001248ee       __RTC_Terminate            101258ee f   MSVCRT:_initsect_.obj
 0001:00124919       ___raise_securityfailure   10125919 f   MSVCRT:gs_report.obj
 0001:00124941       ___report_gsfailure        10125941 f   MSVCRT:gs_report.obj
 0001:00124a3c       @_guard_check_icall_nop@4  10125a3c f i MSVCRT:guard_support.obj
 0001:00124a3d       _ImmGetContext@4           10125a3d f   imm32:IMM32.dll
 0001:00124a43       _ImmSetCompositionWindow@8 10125a43 f   imm32:IMM32.dll
 0001:00124a49       _memcpy                    10125a49 f   vcruntime:VCRUNTIME140.dll
 0001:00124a4f       _memmove                   10125a4f f   vcruntime:VCRUNTIME140.dll
 0001:00124a55       __CxxThrowException@8      10125a55 f   vcruntime:VCRUNTIME140.dll
 0001:00124a5b       ___CxxFrameHandler3        10125a5b f   vcruntime:VCRUNTIME140.dll
 0001:00124a61       _memset                    10125a61 f   vcruntime:VCRUNTIME140.dll
 0001:00124a67       __except_handler3          10125a67 f   vcruntime:VCRUNTIME140.dll
 0001:00124a6d       _memcmp                    10125a6d f   vcruntime:VCRUNTIME140.dll
 0001:00124a73       _strchr                    10125a73 f   vcruntime:VCRUNTIME140.dll
 0001:00124a79       _strstr                    10125a79 f   vcruntime:VCRUNTIME140.dll
 0001:00124a7f       __purecall                 10125a7f f   vcruntime:VCRUNTIME140.dll
 0001:00124a85       ___std_exception_copy      10125a85 f   vcruntime:VCRUNTIME140.dll
 0001:00124a8b       ___std_exception_destroy   10125a8b f   vcruntime:VCRUNTIME140.dll
 0001:00124a91       ___vcrt_InitializeCriticalSectionEx 10125a91 f   vcruntime:VCRUNTIME140.dll
 0001:00124a97       __except_handler4_common   10125a97 f   vcruntime:VCRUNTIME140.dll
 0001:00124a9d       ___std_type_info_destroy_list 10125a9d f   vcruntime:VCRUNTIME140.dll
 0001:00124aa3       _strlen                    10125aa3 f   ucrt:api-ms-win-crt-string-l1-1-0.dll
 0001:00124aa9       _malloc                    10125aa9 f   ucrt:api-ms-win-crt-heap-l1-1-0.dll
 0001:00124aaf       _free                      10125aaf f   ucrt:api-ms-win-crt-heap-l1-1-0.dll
 0001:00124ab5       _strcmp                    10125ab5 f   ucrt:api-ms-win-crt-string-l1-1-0.dll
 0001:00124abb       _sqrt                      10125abb f   ucrt:api-ms-win-crt-math-l1-1-0.dll
 0001:00124ac1       _exp                       10125ac1 f   ucrt:api-ms-win-crt-math-l1-1-0.dll
 0001:00124ac7       _strcpy                    10125ac7 f   ucrt:api-ms-win-crt-string-l1-1-0.dll
 0001:00124acd       _fabs                      10125acd f   ucrt:api-ms-win-crt-math-l1-1-0.dll
 0001:00124ad3       _fmod                      10125ad3 f   ucrt:api-ms-win-crt-math-l1-1-0.dll
 0001:00124ad9       _pow                       10125ad9 f   ucrt:api-ms-win-crt-math-l1-1-0.dll
 0001:00124adf       _cos                       10125adf f   ucrt:api-ms-win-crt-math-l1-1-0.dll
 0001:00124ae5       _sin                       10125ae5 f   ucrt:api-ms-win-crt-math-l1-1-0.dll
 0001:00124aeb       _atan                      10125aeb f   ucrt:api-ms-win-crt-math-l1-1-0.dll
 0001:00124af1       _atan2                     10125af1 f   ucrt:api-ms-win-crt-math-l1-1-0.dll
 0001:00124af7       __callnewh                 10125af7 f   ucrt:api-ms-win-crt-heap-l1-1-0.dll
 0001:00124afd       __seh_filter_dll           10125afd f   ucrt:api-ms-win-crt-runtime-l1-1-0.dll
 0001:00124b03       __configure_narrow_argv    10125b03 f   ucrt:api-ms-win-crt-runtime-l1-1-0.dll
 0001:00124b09       __initialize_narrow_environment 10125b09 f   ucrt:api-ms-win-crt-runtime-l1-1-0.dll
 0001:00124b0f       __initialize_onexit_table  10125b0f f   ucrt:api-ms-win-crt-runtime-l1-1-0.dll
 0001:00124b15       __register_onexit_function 10125b15 f   ucrt:api-ms-win-crt-runtime-l1-1-0.dll
 0001:00124b1b       __execute_onexit_table     10125b1b f   ucrt:api-ms-win-crt-runtime-l1-1-0.dll
 0001:00124b21       __crt_atexit               10125b21 f   ucrt:api-ms-win-crt-runtime-l1-1-0.dll
 0001:00124b27       __cexit                    10125b27 f   ucrt:api-ms-win-crt-runtime-l1-1-0.dll
 0001:00124b2d       __except1                  10125b2d f   ucrt:api-ms-win-crt-math-l1-1-0.dll
 0001:00124b33       _terminate                 10125b33 f   ucrt:api-ms-win-crt-runtime-l1-1-0.dll
 0001:00124b39       __initterm                 10125b39 f   ucrt:api-ms-win-crt-runtime-l1-1-0.dll
 0001:00124b3f       __initterm_e               10125b3f f   ucrt:api-ms-win-crt-runtime-l1-1-0.dll
 0001:00124b45       _IsProcessorFeaturePresent@4 10125b45 f   kernel32:KERNEL32.dll
 0001:00124b4b       ___scrt_stub_for_acrt_initialize 10125b4b f   MSVCRT:ucrt_stubs.obj
 0001:00124b4b       ___vcrt_initialize         10125b4b f   MSVCRT:ucrt_stubs.obj
 0001:00124b4b       ___acrt_thread_detach      10125b4b f   MSVCRT:ucrt_stubs.obj
 0001:00124b4b       ___scrt_stub_for_acrt_uninitialize_critical 10125b4b f   MSVCRT:ucrt_stubs.obj
 0001:00124b4b       ___scrt_stub_for_acrt_thread_detach 10125b4b f   MSVCRT:ucrt_stubs.obj
 0001:00124b4b       ___vcrt_thread_attach      10125b4b f   MSVCRT:ucrt_stubs.obj
 0001:00124b4b       ___vcrt_uninitialize_critical 10125b4b f   MSVCRT:ucrt_stubs.obj
 0001:00124b4b       ___vcrt_uninitialize       10125b4b f   MSVCRT:ucrt_stubs.obj
 0001:00124b4b       ___acrt_uninitialize       10125b4b f   MSVCRT:ucrt_stubs.obj
 0001:00124b4b       ___scrt_stub_for_acrt_uninitialize 10125b4b f   MSVCRT:ucrt_stubs.obj
 0001:00124b4b       ___acrt_initialize         10125b4b f   MSVCRT:ucrt_stubs.obj
 0001:00124b4b       ___acrt_uninitialize_critical 10125b4b f   MSVCRT:ucrt_stubs.obj
 0001:00124b4b       ___acrt_thread_attach      10125b4b f   MSVCRT:ucrt_stubs.obj
 0001:00124b4b       ___scrt_stub_for_acrt_thread_attach 10125b4b f   MSVCRT:ucrt_stubs.obj
 0001:00124b4b       ___vcrt_thread_detach      10125b4b f   MSVCRT:ucrt_stubs.obj
 0001:00124b4e       ___scrt_stub_for_is_c_termination_complete 10125b4e f   MSVCRT:ucrt_stubs.obj
 0001:00124b4e       __is_c_termination_complete 10125b4e f   MSVCRT:ucrt_stubs.obj
 0001:001259a0       ??__Finst@?1??instance@?$singleton@Vgrenade_prediction@@@@SAAAVgrenade_prediction@@XZ@YAXXZ 101269a0 f i Hooks.obj
 0001:001259b0       ??__Finst@?1??instance@?$singleton@Vmisc@@@@SAAAVmisc@@XZ@YAXXZ 101269b0 f i Hooks.obj
 0001:001259c0       ??__Finst@?1??instance@?$singleton@Vvisuals@@@@SAAAVvisuals@@XZ@YAXXZ 101269c0 f i Hooks.obj
 0002:00000000       __imp__ImmGetContext@4     10127000     imm32:IMM32.dll
 0002:00000004       __imp__ImmSetCompositionWindow@8 10127004     imm32:IMM32.dll
 0002:00000008       \177IMM32_NULL_THUNK_DATA  10127008     imm32:IMM32.dll
 0002:0000000c       __imp__GetLastError@0      1012700c     kernel32:KERNEL32.dll
 0002:00000010       __imp__GetCurrentProcess@0 10127010     kernel32:KERNEL32.dll
 0002:00000014       __imp__GetCurrentThread@0  10127014     kernel32:KERNEL32.dll
 0002:00000018       __imp__GetCurrentThreadId@0 10127018     kernel32:KERNEL32.dll
 0002:0000001c       __imp__SuspendThread@4     1012701c     kernel32:KERNEL32.dll
 0002:00000020       __imp__ResumeThread@4      10127020     kernel32:KERNEL32.dll
 0002:00000024       __imp__GetThreadContext@8  10127024     kernel32:KERNEL32.dll
 0002:00000028       __imp__SetThreadContext@8  10127028     kernel32:KERNEL32.dll
 0002:0000002c       __imp__FlushInstructionCache@12 1012702c     kernel32:KERNEL32.dll
 0002:00000030       __imp__VirtualAlloc@16     10127030     kernel32:KERNEL32.dll
 0002:00000034       __imp__VirtualProtect@16   10127034     kernel32:KERNEL32.dll
 0002:00000038       __imp__VirtualFree@12      10127038     kernel32:KERNEL32.dll
 0002:0000003c       __imp__VirtualQuery@12     1012703c     kernel32:KERNEL32.dll
 0002:00000040       __imp__VirtualProtectEx@20 10127040     kernel32:KERNEL32.dll
 0002:00000044       __imp__VirtualQueryEx@16   10127044     kernel32:KERNEL32.dll
 0002:00000048       __imp__GetStdHandle@4      10127048     kernel32:KERNEL32.dll
 0002:0000004c       __imp__GetEnvironmentVariableA@12 1012704c     kernel32:KERNEL32.dll
 0002:00000050       __imp__SetCurrentDirectoryW@4 10127050     kernel32:KERNEL32.dll
 0002:00000054       __imp__CreateFileW@28      10127054     kernel32:KERNEL32.dll
 0002:00000058       __imp__FindClose@4         10127058     kernel32:KERNEL32.dll
 0002:0000005c       __imp__FindFirstFileW@8    1012705c     kernel32:KERNEL32.dll
 0002:00000060       __imp__SetFileTime@16      10127060     kernel32:KERNEL32.dll
 0002:00000064       __imp__CloseHandle@4       10127064     kernel32:KERNEL32.dll
 0002:00000068       __imp__GetSystemTime@4     10127068     kernel32:KERNEL32.dll
 0002:0000006c       __imp__FreeLibrary@4       1012706c     kernel32:KERNEL32.dll
 0002:00000070       __imp__LoadLibraryA@4      10127070     kernel32:KERNEL32.dll
 0002:00000074       __imp__SystemTimeToFileTime@8 10127074     kernel32:KERNEL32.dll
 0002:00000078       __imp__GetConsoleScreenBufferInfo@8 10127078     kernel32:KERNEL32.dll
 0002:0000007c       __imp__SetConsoleTextAttribute@8 1012707c     kernel32:KERNEL32.dll
 0002:00000080       __imp__SetConsoleCtrlHandler@8 10127080     kernel32:KERNEL32.dll
 0002:00000084       __imp__GetModuleHandleA@4  10127084     kernel32:KERNEL32.dll
 0002:00000088       __imp__GetTickCount64@0    10127088     kernel32:KERNEL32.dll
 0002:0000008c       __imp__GetEnvironmentVariableW@12 1012708c     kernel32:KERNEL32.dll
 0002:00000090       __imp__WaitForSingleObject@8 10127090     kernel32:KERNEL32.dll
 0002:00000094       __imp__ExitProcess@4       10127094     kernel32:KERNEL32.dll
 0002:00000098       __imp__TerminateProcess@8  10127098     kernel32:KERNEL32.dll
 0002:0000009c       __imp__GetExitCodeProcess@8 1012709c     kernel32:KERNEL32.dll
 0002:000000a0       __imp__CreateProcessA@40   101270a0     kernel32:KERNEL32.dll
 0002:000000a4       __imp__CreateProcessW@40   101270a4     kernel32:KERNEL32.dll
 0002:000000a8       __imp__OpenProcess@12      101270a8     kernel32:KERNEL32.dll
 0002:000000ac       __imp__VirtualAllocEx@20   101270ac     kernel32:KERNEL32.dll
 0002:000000b0       __imp__ReadProcessMemory@20 101270b0     kernel32:KERNEL32.dll
 0002:000000b4       __imp__WriteProcessMemory@20 101270b4     kernel32:KERNEL32.dll
 0002:000000b8       __imp__IsWow64Process@8    101270b8     kernel32:KERNEL32.dll
 0002:000000bc       __imp__FlushFileBuffers@4  101270bc     kernel32:KERNEL32.dll
 0002:000000c0       __imp__GetTickCount@0      101270c0     kernel32:KERNEL32.dll
 0002:000000c4       __imp__QueryPerformanceCounter@4 101270c4     kernel32:KERNEL32.dll
 0002:000000c8       __imp__MapViewOfFile@20    101270c8     kernel32:KERNEL32.dll
 0002:000000cc       __imp__CreateFileMappingW@24 101270cc     kernel32:KERNEL32.dll
 0002:000000d0       __imp__FormatMessageA@28   101270d0     kernel32:KERNEL32.dll
 0002:000000d4       __imp__GetSystemTimeAsFileTime@4 101270d4     kernel32:KERNEL32.dll
 0002:000000d8       __imp__WideCharToMultiByte@32 101270d8     kernel32:KERNEL32.dll
 0002:000000dc       __imp__GetProcessHeap@0    101270dc     kernel32:KERNEL32.dll
 0002:000000e0       __imp__GetCurrentProcessId@0 101270e0     kernel32:KERNEL32.dll
 0002:000000e4       __imp__GetFileSize@8       101270e4     kernel32:KERNEL32.dll
 0002:000000e8       __imp__LockFileEx@24       101270e8     kernel32:KERNEL32.dll
 0002:000000ec       __imp__LocalFree@4         101270ec     kernel32:KERNEL32.dll
 0002:000000f0       __imp__UnlockFile@20       101270f0     kernel32:KERNEL32.dll
 0002:000000f4       __imp__HeapDestroy@4       101270f4     kernel32:KERNEL32.dll
 0002:000000f8       __imp__HeapCompact@8       101270f8     kernel32:KERNEL32.dll
 0002:000000fc       __imp__HeapAlloc@12        101270fc     kernel32:KERNEL32.dll
 0002:00000100       __imp__LoadLibraryW@4      10127100     kernel32:KERNEL32.dll
 0002:00000104       __imp__GetSystemInfo@4     10127104     kernel32:KERNEL32.dll
 0002:00000108       __imp__HeapReAlloc@16      10127108     kernel32:KERNEL32.dll
 0002:0000010c       __imp__DeleteFileW@4       1012710c     kernel32:KERNEL32.dll
 0002:00000110       __imp__GetProcAddress@8    10127110     kernel32:KERNEL32.dll
 0002:00000114       __imp__WaitForSingleObjectEx@12 10127114     kernel32:KERNEL32.dll
 0002:00000118       __imp__CreateFileA@28      10127118     kernel32:KERNEL32.dll
 0002:0000011c       __imp__FlushViewOfFile@8   1012711c     kernel32:KERNEL32.dll
 0002:00000120       __imp__OutputDebugStringW@4 10127120     kernel32:KERNEL32.dll
 0002:00000124       __imp__GetFileAttributesExW@12 10127124     kernel32:KERNEL32.dll
 0002:00000128       __imp__GetFileAttributesA@4 10127128     kernel32:KERNEL32.dll
 0002:0000012c       __imp__GetDiskFreeSpaceA@20 1012712c     kernel32:KERNEL32.dll
 0002:00000130       __imp__FormatMessageW@28   10127130     kernel32:KERNEL32.dll
 0002:00000134       __imp__GetTempPathA@8      10127134     kernel32:KERNEL32.dll
 0002:00000138       __imp__Sleep@4             10127138     kernel32:KERNEL32.dll
 0002:0000013c       __imp__MultiByteToWideChar@24 1012713c     kernel32:KERNEL32.dll
 0002:00000140       __imp__HeapSize@12         10127140     kernel32:KERNEL32.dll
 0002:00000144       __imp__HeapValidate@12     10127144     kernel32:KERNEL32.dll
 0002:00000148       __imp__UnmapViewOfFile@4   10127148     kernel32:KERNEL32.dll
 0002:0000014c       __imp__GetFileAttributesW@4 1012714c     kernel32:KERNEL32.dll
 0002:00000150       __imp__CreateMutexW@12     10127150     kernel32:KERNEL32.dll
 0002:00000154       __imp__GetTempPathW@8      10127154     kernel32:KERNEL32.dll
 0002:00000158       __imp__UnlockFileEx@20     10127158     kernel32:KERNEL32.dll
 0002:0000015c       __imp__SetEndOfFile@4      1012715c     kernel32:KERNEL32.dll
 0002:00000160       __imp__GetFullPathNameA@16 10127160     kernel32:KERNEL32.dll
 0002:00000164       __imp__SetFilePointer@16   10127164     kernel32:KERNEL32.dll
 0002:00000168       __imp__LockFile@20         10127168     kernel32:KERNEL32.dll
 0002:0000016c       __imp__OutputDebugStringA@4 1012716c     kernel32:KERNEL32.dll
 0002:00000170       __imp__GetDiskFreeSpaceW@20 10127170     kernel32:KERNEL32.dll
 0002:00000174       __imp__WriteFile@20        10127174     kernel32:KERNEL32.dll
 0002:00000178       __imp__GetFullPathNameW@16 10127178     kernel32:KERNEL32.dll
 0002:0000017c       __imp__HeapFree@12         1012717c     kernel32:KERNEL32.dll
 0002:00000180       __imp__HeapCreate@12       10127180     kernel32:KERNEL32.dll
 0002:00000184       __imp__ReadFile@20         10127184     kernel32:KERNEL32.dll
 0002:00000188       __imp__AreFileApisANSI@0   10127188     kernel32:KERNEL32.dll
 0002:0000018c       __imp__InitializeCriticalSection@4 1012718c     kernel32:KERNEL32.dll
 0002:00000190       __imp__EnterCriticalSection@4 10127190     kernel32:KERNEL32.dll
 0002:00000194       __imp__LeaveCriticalSection@4 10127194     kernel32:KERNEL32.dll
 0002:00000198       __imp__TryEnterCriticalSection@4 10127198     kernel32:KERNEL32.dll
 0002:0000019c       __imp__DeleteCriticalSection@4 1012719c     kernel32:KERNEL32.dll
 0002:000001a0       __imp__MapViewOfFileEx@24  101271a0     kernel32:KERNEL32.dll
 0002:000001a4       __imp__LoadLibraryExA@12   101271a4     kernel32:KERNEL32.dll
 0002:000001a8       __imp__LoadLibraryExW@12   101271a8     kernel32:KERNEL32.dll
 0002:000001ac       __imp__GlobalAlloc@8       101271ac     kernel32:KERNEL32.dll
 0002:000001b0       __imp__GlobalUnlock@4      101271b0     kernel32:KERNEL32.dll
 0002:000001b4       __imp__GlobalLock@4        101271b4     kernel32:KERNEL32.dll
 0002:000001b8       __imp__QueryPerformanceFrequency@4 101271b8     kernel32:KERNEL32.dll
 0002:000001bc       __imp__CreateDirectoryA@8  101271bc     kernel32:KERNEL32.dll
 0002:000001c0       __imp__GetPrivateProfileStringA@24 101271c0     kernel32:KERNEL32.dll
 0002:000001c4       __imp__WritePrivateProfileStringA@16 101271c4     kernel32:KERNEL32.dll
 0002:000001c8       __imp__SleepEx@8           101271c8     kernel32:KERNEL32.dll
 0002:000001cc       __imp__CreateThread@24     101271cc     kernel32:KERNEL32.dll
 0002:000001d0       __imp__FreeLibraryAndExitThread@8 101271d0     kernel32:KERNEL32.dll
 0002:000001d4       __imp__lstrcmpA@8          101271d4     kernel32:KERNEL32.dll
 0002:000001d8       __imp__CreateToolhelp32Snapshot@8 101271d8     kernel32:KERNEL32.dll
 0002:000001dc       __imp__Process32First@8    101271dc     kernel32:KERNEL32.dll
 0002:000001e0       __imp__Process32Next@8     101271e0     kernel32:KERNEL32.dll
 0002:000001e4       __imp__FreeConsole@0       101271e4     kernel32:KERNEL32.dll
 0002:000001e8       __imp__SetConsoleTitleA@4  101271e8     kernel32:KERNEL32.dll
 0002:000001ec       __imp__AllocConsole@0      101271ec     kernel32:KERNEL32.dll
 0002:000001f0       __imp__K32GetModuleInformation@16 101271f0     kernel32:KERNEL32.dll
 0002:000001f4       __imp__DebugBreak@0        101271f4     kernel32:KERNEL32.dll
 0002:000001f8       __imp__SetUnhandledExceptionFilter@4 101271f8     kernel32:KERNEL32.dll
 0002:000001fc       __imp__UnhandledExceptionFilter@4 101271fc     kernel32:KERNEL32.dll
 0002:00000200       __imp__IsDebuggerPresent@0 10127200     kernel32:KERNEL32.dll
 0002:00000204       __imp__IsProcessorFeaturePresent@4 10127204     kernel32:KERNEL32.dll
 0002:00000208       __imp__CreateEventW@16     10127208     kernel32:KERNEL32.dll
 0002:0000020c       __imp__ResetEvent@4        1012720c     kernel32:KERNEL32.dll
 0002:00000210       __imp__SetEvent@4          10127210     kernel32:KERNEL32.dll
 0002:00000214       __imp__SetLastError@4      10127214     kernel32:KERNEL32.dll
 0002:00000218       __imp__DeleteFileA@4       10127218     kernel32:KERNEL32.dll
 0002:0000021c       __imp__GetModuleHandleW@4  1012721c     kernel32:KERNEL32.dll
 0002:00000220       __imp__InitializeSListHead@4 10127220     kernel32:KERNEL32.dll
 0002:00000224       \177KERNEL32_NULL_THUNK_DATA 10127224     kernel32:KERNEL32.dll
 0002:00000228       __imp_?_Gninc@?$basic_streambuf@DU?$char_traits@D@std@@@std@@IAEPADXZ 10127228     msvcprt:MSVCP140.dll
 0002:0000022c       __imp_?id@?$codecvt@DDU_Mbstatet@@@std@@2V0locale@2@A 1012722c     msvcprt:MSVCP140.dll
 0002:00000230       __imp_?_Xlength_error@std@@YAXPBD@Z 10127230     msvcprt:MSVCP140.dll
 0002:00000234       __imp_?_Xout_of_range@std@@YAXPBD@Z 10127234     msvcprt:MSVCP140.dll
 0002:00000238       __imp_??0_Lockit@std@@QAE@H@Z 10127238     msvcprt:MSVCP140.dll
 0002:0000023c       __imp_??1_Lockit@std@@QAE@XZ 1012723c     msvcprt:MSVCP140.dll
 0002:00000240       __imp_?uncaught_exceptions@std@@YAHXZ 10127240     msvcprt:MSVCP140.dll
 0002:00000244       __imp_??Bid@locale@std@@QAEIXZ 10127244     msvcprt:MSVCP140.dll
 0002:00000248       __imp_?_Getgloballocale@locale@std@@CAPAV_Locimp@12@XZ 10127248     msvcprt:MSVCP140.dll
 0002:0000024c       __imp_?always_noconv@codecvt_base@std@@QBE_NXZ 1012724c     msvcprt:MSVCP140.dll
 0002:00000250       __imp_?in@?$codecvt@DDU_Mbstatet@@@std@@QBEHAAU_Mbstatet@@PBD1AAPBDPAD3AAPAD@Z 10127250     msvcprt:MSVCP140.dll
 0002:00000254       __imp_?out@?$codecvt@DDU_Mbstatet@@@std@@QBEHAAU_Mbstatet@@PBD1AAPBDPAD3AAPAD@Z 10127254     msvcprt:MSVCP140.dll
 0002:00000258       __imp_?unshift@?$codecvt@DDU_Mbstatet@@@std@@QBEHAAU_Mbstatet@@PAD1AAPAD@Z 10127258     msvcprt:MSVCP140.dll
 0002:0000025c       __imp_?_Getcat@?$codecvt@DDU_Mbstatet@@@std@@SAIPAPBVfacet@locale@2@PBV42@@Z 1012725c     msvcprt:MSVCP140.dll
 0002:00000260       __imp_?good@ios_base@std@@QBE_NXZ 10127260     msvcprt:MSVCP140.dll
 0002:00000264       __imp_?flags@ios_base@std@@QBEHXZ 10127264     msvcprt:MSVCP140.dll
 0002:00000268       __imp_?width@ios_base@std@@QBE_JXZ 10127268     msvcprt:MSVCP140.dll
 0002:0000026c       __imp_?width@ios_base@std@@QAE_J_J@Z 1012726c     msvcprt:MSVCP140.dll
 0002:00000270       __imp_??0?$basic_streambuf@DU?$char_traits@D@std@@@std@@IAE@XZ 10127270     msvcprt:MSVCP140.dll
 0002:00000274       __imp_??1?$basic_streambuf@DU?$char_traits@D@std@@@std@@UAE@XZ 10127274     msvcprt:MSVCP140.dll
 0002:00000278       __imp_?getloc@?$basic_streambuf@DU?$char_traits@D@std@@@std@@QBE?AVlocale@2@XZ 10127278     msvcprt:MSVCP140.dll
 0002:0000027c       __imp_?sputc@?$basic_streambuf@DU?$char_traits@D@std@@@std@@QAEHD@Z 1012727c     msvcprt:MSVCP140.dll
 0002:00000280       __imp_?sputn@?$basic_streambuf@DU?$char_traits@D@std@@@std@@QAE_JPBD_J@Z 10127280     msvcprt:MSVCP140.dll
 0002:00000284       __imp_?eback@?$basic_streambuf@DU?$char_traits@D@std@@@std@@IBEPADXZ 10127284     msvcprt:MSVCP140.dll
 0002:00000288       __imp_?gptr@?$basic_streambuf@DU?$char_traits@D@std@@@std@@IBEPADXZ 10127288     msvcprt:MSVCP140.dll
 0002:0000028c       __imp_?pptr@?$basic_streambuf@DU?$char_traits@D@std@@@std@@IBEPADXZ 1012728c     msvcprt:MSVCP140.dll
 0002:00000290       __imp_?egptr@?$basic_streambuf@DU?$char_traits@D@std@@@std@@IBEPADXZ 10127290     msvcprt:MSVCP140.dll
 0002:00000294       __imp_?setg@?$basic_streambuf@DU?$char_traits@D@std@@@std@@IAEXPAD00@Z 10127294     msvcprt:MSVCP140.dll
 0002:00000298       __imp_?epptr@?$basic_streambuf@DU?$char_traits@D@std@@@std@@IBEPADXZ 10127298     msvcprt:MSVCP140.dll
 0002:0000029c       __imp_?_Gndec@?$basic_streambuf@DU?$char_traits@D@std@@@std@@IAEPADXZ 1012729c     msvcprt:MSVCP140.dll
 0002:000002a0       __imp_?_BADOFF@std@@3_JB   101272a0     msvcprt:MSVCP140.dll
 0002:000002a4       __imp_?_Pninc@?$basic_streambuf@DU?$char_traits@D@std@@@std@@IAEPADXZ 101272a4     msvcprt:MSVCP140.dll
 0002:000002a8       __imp_?_Init@?$basic_streambuf@DU?$char_traits@D@std@@@std@@IAEXXZ 101272a8     msvcprt:MSVCP140.dll
 0002:000002ac       __imp_?_Init@?$basic_streambuf@DU?$char_traits@D@std@@@std@@IAEXPAPAD0PAH001@Z 101272ac     msvcprt:MSVCP140.dll
 0002:000002b0       __imp_??1?$basic_ios@DU?$char_traits@D@std@@@std@@UAE@XZ 101272b0     msvcprt:MSVCP140.dll
 0002:000002b4       __imp_?clear@?$basic_ios@DU?$char_traits@D@std@@@std@@QAEXH_N@Z 101272b4     msvcprt:MSVCP140.dll
 0002:000002b8       __imp_?setstate@?$basic_ios@DU?$char_traits@D@std@@@std@@QAEXH_N@Z 101272b8     msvcprt:MSVCP140.dll
 0002:000002bc       __imp_?tie@?$basic_ios@DU?$char_traits@D@std@@@std@@QBEPAV?$basic_ostream@DU?$char_traits@D@std@@@2@XZ 101272bc     msvcprt:MSVCP140.dll
 0002:000002c0       __imp_?rdbuf@?$basic_ios@DU?$char_traits@D@std@@@std@@QBEPAV?$basic_streambuf@DU?$char_traits@D@std@@@2@XZ 101272c0     msvcprt:MSVCP140.dll
 0002:000002c4       __imp_?fill@?$basic_ios@DU?$char_traits@D@std@@@std@@QBEDXZ 101272c4     msvcprt:MSVCP140.dll
 0002:000002c8       __imp_?widen@?$basic_ios@DU?$char_traits@D@std@@@std@@QBEDD@Z 101272c8     msvcprt:MSVCP140.dll
 0002:000002cc       __imp_??0?$basic_ios@DU?$char_traits@D@std@@@std@@IAE@XZ 101272cc     msvcprt:MSVCP140.dll
 0002:000002d0       __imp_??0?$basic_ostream@DU?$char_traits@D@std@@@std@@QAE@PAV?$basic_streambuf@DU?$char_traits@D@std@@@1@_N@Z 101272d0     msvcprt:MSVCP140.dll
 0002:000002d4       __imp_??1?$basic_ostream@DU?$char_traits@D@std@@@std@@UAE@XZ 101272d4     msvcprt:MSVCP140.dll
 0002:000002d8       __imp_?_Osfx@?$basic_ostream@DU?$char_traits@D@std@@@std@@QAEXXZ 101272d8     msvcprt:MSVCP140.dll
 0002:000002dc       __imp_??6?$basic_ostream@DU?$char_traits@D@std@@@std@@QAEAAV01@P6AAAV01@AAV01@@Z@Z 101272dc     msvcprt:MSVCP140.dll
 0002:000002e0       __imp_?put@?$basic_ostream@DU?$char_traits@D@std@@@std@@QAEAAV12@D@Z 101272e0     msvcprt:MSVCP140.dll
 0002:000002e4       __imp_?flush@?$basic_ostream@DU?$char_traits@D@std@@@std@@QAEAAV12@XZ 101272e4     msvcprt:MSVCP140.dll
 0002:000002e8       __imp_?_Fiopen@std@@YAPAU_iobuf@@PBDHH@Z 101272e8     msvcprt:MSVCP140.dll
 0002:000002ec       __imp_?showmanyc@?$basic_streambuf@DU?$char_traits@D@std@@@std@@MAE_JXZ 101272ec     msvcprt:MSVCP140.dll
 0002:000002f0       __imp_?xsgetn@?$basic_streambuf@DU?$char_traits@D@std@@@std@@MAE_JPAD_J@Z 101272f0     msvcprt:MSVCP140.dll
 0002:000002f4       __imp_?xsputn@?$basic_streambuf@DU?$char_traits@D@std@@@std@@MAE_JPBD_J@Z 101272f4     msvcprt:MSVCP140.dll
 0002:000002f8       \177MSVCP140_NULL_THUNK_DATA 101272f8     msvcprt:MSVCP140.dll
 0002:000002fc       __imp__SHGetFolderPathA@20 101272fc     shell32:SHELL32.dll
 0002:00000300       \177SHELL32_NULL_THUNK_DATA 10127300     shell32:SHELL32.dll
 0002:00000304       __imp__GetKeyState@4       10127304     user32:USER32.dll
 0002:00000308       __imp__EmptyClipboard@0    10127308     user32:USER32.dll
 0002:0000030c       __imp__GetClientRect@8     1012730c     user32:USER32.dll
 0002:00000310       __imp__SetCursor@4         10127310     user32:USER32.dll
 0002:00000314       __imp__FindWindowA@8       10127314     user32:USER32.dll
 0002:00000318       __imp__CallWindowProcA@20  10127318     user32:USER32.dll
 0002:0000031c       __imp__SetWindowLongA@12   1012731c     user32:USER32.dll
 0002:00000320       __imp__OpenClipboard@4     10127320     user32:USER32.dll
 0002:00000324       __imp__CloseClipboard@0    10127324     user32:USER32.dll
 0002:00000328       __imp__SetClipboardData@8  10127328     user32:USER32.dll
 0002:0000032c       __imp__GetClipboardData@4  1012732c     user32:USER32.dll
 0002:00000330       \177USER32_NULL_THUNK_DATA 10127330     user32:USER32.dll
 0002:00000334       __imp___purecall           10127334     vcruntime:VCRUNTIME140.dll
 0002:00000338       __imp____std_exception_copy 10127338     vcruntime:VCRUNTIME140.dll
 0002:0000033c       __imp____std_exception_destroy 1012733c     vcruntime:VCRUNTIME140.dll
 0002:00000340       __imp____vcrt_InitializeCriticalSectionEx 10127340     vcruntime:VCRUNTIME140.dll
 0002:00000344       __imp___except_handler4_common 10127344     vcruntime:VCRUNTIME140.dll
 0002:00000348       __imp____std_type_info_destroy_list 10127348     vcruntime:VCRUNTIME140.dll
 0002:0000034c       __imp__strchr              1012734c     vcruntime:VCRUNTIME140.dll
 0002:00000350       __imp__memcmp              10127350     vcruntime:VCRUNTIME140.dll
 0002:00000354       __imp__memcpy              10127354     vcruntime:VCRUNTIME140.dll
 0002:00000358       __imp___except_handler3    10127358     vcruntime:VCRUNTIME140.dll
 0002:0000035c       __imp__memmove             1012735c     vcruntime:VCRUNTIME140.dll
 0002:00000360       __imp__memset              10127360     vcruntime:VCRUNTIME140.dll
 0002:00000364       __imp____CxxFrameHandler3  10127364     vcruntime:VCRUNTIME140.dll
 0002:00000368       __imp___CxxThrowException@8 10127368     vcruntime:VCRUNTIME140.dll
 0002:0000036c       __imp__strstr              1012736c     vcruntime:VCRUNTIME140.dll
 0002:00000370       \177VCRUNTIME140_NULL_THUNK_DATA 10127370     vcruntime:VCRUNTIME140.dll
 0002:00000374       __imp__mbstowcs_s          10127374     ucrt:api-ms-win-crt-convert-l1-1-0.dll
 0002:00000378       __imp__atoi                10127378     ucrt:api-ms-win-crt-convert-l1-1-0.dll
 0002:0000037c       __imp__atof                1012737c     ucrt:api-ms-win-crt-convert-l1-1-0.dll
 0002:00000380       __imp__strtoul             10127380     ucrt:api-ms-win-crt-convert-l1-1-0.dll
 0002:00000384       __imp__strtol              10127384     ucrt:api-ms-win-crt-convert-l1-1-0.dll
 0002:00000388       \177api-ms-win-crt-convert-l1-1-0_NULL_THUNK_DATA 10127388     ucrt:api-ms-win-crt-convert-l1-1-0.dll
 0002:0000038c       __imp__getenv              1012738c     ucrt:api-ms-win-crt-environment-l1-1-0.dll
 0002:00000390       \177api-ms-win-crt-environment-l1-1-0_NULL_THUNK_DATA 10127390     ucrt:api-ms-win-crt-environment-l1-1-0.dll
 0002:00000394       __imp___findnext64i32      10127394     ucrt:api-ms-win-crt-filesystem-l1-1-0.dll
 0002:00000398       __imp___findclose          10127398     ucrt:api-ms-win-crt-filesystem-l1-1-0.dll
 0002:0000039c       __imp___lock_file          1012739c     ucrt:api-ms-win-crt-filesystem-l1-1-0.dll
 0002:000003a0       __imp___findfirst64i32     101273a0     ucrt:api-ms-win-crt-filesystem-l1-1-0.dll
 0002:000003a4       __imp___mkdir              101273a4     ucrt:api-ms-win-crt-filesystem-l1-1-0.dll
 0002:000003a8       __imp___chmod              101273a8     ucrt:api-ms-win-crt-filesystem-l1-1-0.dll
 0002:000003ac       __imp___access             101273ac     ucrt:api-ms-win-crt-filesystem-l1-1-0.dll
 0002:000003b0       __imp___wunlink            101273b0     ucrt:api-ms-win-crt-filesystem-l1-1-0.dll
 0002:000003b4       __imp___unlock_file        101273b4     ucrt:api-ms-win-crt-filesystem-l1-1-0.dll
 0002:000003b8       __imp___stat64i32          101273b8     ucrt:api-ms-win-crt-filesystem-l1-1-0.dll
 0002:000003bc       __imp___unlink             101273bc     ucrt:api-ms-win-crt-filesystem-l1-1-0.dll
 0002:000003c0       \177api-ms-win-crt-filesystem-l1-1-0_NULL_THUNK_DATA 101273c0     ucrt:api-ms-win-crt-filesystem-l1-1-0.dll
 0002:000003c4       __imp__realloc             101273c4     ucrt:api-ms-win-crt-heap-l1-1-0.dll
 0002:000003c8       __imp___callnewh           101273c8     ucrt:api-ms-win-crt-heap-l1-1-0.dll
 0002:000003cc       __imp__free                101273cc     ucrt:api-ms-win-crt-heap-l1-1-0.dll
 0002:000003d0       __imp___msize              101273d0     ucrt:api-ms-win-crt-heap-l1-1-0.dll
 0002:000003d4       __imp__malloc              101273d4     ucrt:api-ms-win-crt-heap-l1-1-0.dll
 0002:000003d8       \177api-ms-win-crt-heap-l1-1-0_NULL_THUNK_DATA 101273d8     ucrt:api-ms-win-crt-heap-l1-1-0.dll
 0002:000003dc       __imp__sin                 101273dc     ucrt:api-ms-win-crt-math-l1-1-0.dll
 0002:000003e0       __imp__fabs                101273e0     ucrt:api-ms-win-crt-math-l1-1-0.dll
 0002:000003e4       __imp__ceil                101273e4     ucrt:api-ms-win-crt-math-l1-1-0.dll
 0002:000003e8       __imp___except1            101273e8     ucrt:api-ms-win-crt-math-l1-1-0.dll
 0002:000003ec       __imp__atan2               101273ec     ucrt:api-ms-win-crt-math-l1-1-0.dll
 0002:000003f0       __imp__atan                101273f0     ucrt:api-ms-win-crt-math-l1-1-0.dll
 0002:000003f4       __imp__exp                 101273f4     ucrt:api-ms-win-crt-math-l1-1-0.dll
 0002:000003f8       __imp__sqrt                101273f8     ucrt:api-ms-win-crt-math-l1-1-0.dll
 0002:000003fc       __imp__fmod                101273fc     ucrt:api-ms-win-crt-math-l1-1-0.dll
 0002:00000400       __imp__floor               10127400     ucrt:api-ms-win-crt-math-l1-1-0.dll
 0002:00000404       __imp__cos                 10127404     ucrt:api-ms-win-crt-math-l1-1-0.dll
 0002:00000408       __imp___fdtest             10127408     ucrt:api-ms-win-crt-math-l1-1-0.dll
 0002:0000040c       __imp__pow                 1012740c     ucrt:api-ms-win-crt-math-l1-1-0.dll
 0002:00000410       \177api-ms-win-crt-math-l1-1-0_NULL_THUNK_DATA 10127410     ucrt:api-ms-win-crt-math-l1-1-0.dll
 0002:00000414       __imp__exit                10127414     ucrt:api-ms-win-crt-runtime-l1-1-0.dll
 0002:00000418       __imp___errno              10127418     ucrt:api-ms-win-crt-runtime-l1-1-0.dll
 0002:0000041c       __imp___initterm_e         1012741c     ucrt:api-ms-win-crt-runtime-l1-1-0.dll
 0002:00000420       __imp___initterm           10127420     ucrt:api-ms-win-crt-runtime-l1-1-0.dll
 0002:00000424       __imp__terminate           10127424     ucrt:api-ms-win-crt-runtime-l1-1-0.dll
 0002:00000428       __imp___seh_filter_dll     10127428     ucrt:api-ms-win-crt-runtime-l1-1-0.dll
 0002:0000042c       __imp___configure_narrow_argv 1012742c     ucrt:api-ms-win-crt-runtime-l1-1-0.dll
 0002:00000430       __imp___initialize_narrow_environment 10127430     ucrt:api-ms-win-crt-runtime-l1-1-0.dll
 0002:00000434       __imp___initialize_onexit_table 10127434     ucrt:api-ms-win-crt-runtime-l1-1-0.dll
 0002:00000438       __imp___invalid_parameter_noinfo 10127438     ucrt:api-ms-win-crt-runtime-l1-1-0.dll
 0002:0000043c       __imp___beginthreadex      1012743c     ucrt:api-ms-win-crt-runtime-l1-1-0.dll
 0002:00000440       __imp___endthreadex        10127440     ucrt:api-ms-win-crt-runtime-l1-1-0.dll
 0002:00000444       __imp___invalid_parameter_noinfo_noreturn 10127444     ucrt:api-ms-win-crt-runtime-l1-1-0.dll
 0002:00000448       __imp___register_onexit_function 10127448     ucrt:api-ms-win-crt-runtime-l1-1-0.dll
 0002:0000044c       __imp___execute_onexit_table 1012744c     ucrt:api-ms-win-crt-runtime-l1-1-0.dll
 0002:00000450       __imp___crt_atexit         10127450     ucrt:api-ms-win-crt-runtime-l1-1-0.dll
 0002:00000454       __imp__system              10127454     ucrt:api-ms-win-crt-runtime-l1-1-0.dll
 0002:00000458       __imp___cexit              10127458     ucrt:api-ms-win-crt-runtime-l1-1-0.dll
 0002:0000045c       \177api-ms-win-crt-runtime-l1-1-0_NULL_THUNK_DATA 1012745c     ucrt:api-ms-win-crt-runtime-l1-1-0.dll
 0002:00000460       __imp____stdio_common_vsprintf_s 10127460     ucrt:api-ms-win-crt-stdio-l1-1-0.dll
 0002:00000464       __imp____stdio_common_vsscanf 10127464     ucrt:api-ms-win-crt-stdio-l1-1-0.dll
 0002:00000468       __imp___wfopen             10127468     ucrt:api-ms-win-crt-stdio-l1-1-0.dll
 0002:0000046c       __imp____acrt_iob_func     1012746c     ucrt:api-ms-win-crt-stdio-l1-1-0.dll
 0002:00000470       __imp__fclose              10127470     ucrt:api-ms-win-crt-stdio-l1-1-0.dll
 0002:00000474       __imp__fflush              10127474     ucrt:api-ms-win-crt-stdio-l1-1-0.dll
 0002:00000478       __imp__fgetc               10127478     ucrt:api-ms-win-crt-stdio-l1-1-0.dll
 0002:0000047c       __imp___get_stream_buffer_pointers 1012747c     ucrt:api-ms-win-crt-stdio-l1-1-0.dll
 0002:00000480       __imp__fgetpos             10127480     ucrt:api-ms-win-crt-stdio-l1-1-0.dll
 0002:00000484       __imp__freopen             10127484     ucrt:api-ms-win-crt-stdio-l1-1-0.dll
 0002:00000488       __imp__fsetpos             10127488     ucrt:api-ms-win-crt-stdio-l1-1-0.dll
 0002:0000048c       __imp___fseeki64           1012748c     ucrt:api-ms-win-crt-stdio-l1-1-0.dll
 0002:00000490       __imp__ungetc              10127490     ucrt:api-ms-win-crt-stdio-l1-1-0.dll
 0002:00000494       __imp____stdio_common_vswprintf 10127494     ucrt:api-ms-win-crt-stdio-l1-1-0.dll
 0002:00000498       __imp__fgets               10127498     ucrt:api-ms-win-crt-stdio-l1-1-0.dll
 0002:0000049c       __imp___fileno             1012749c     ucrt:api-ms-win-crt-stdio-l1-1-0.dll
 0002:000004a0       __imp__fopen               101274a0     ucrt:api-ms-win-crt-stdio-l1-1-0.dll
 0002:000004a4       __imp__fputc               101274a4     ucrt:api-ms-win-crt-stdio-l1-1-0.dll
 0002:000004a8       __imp____stdio_common_vsprintf 101274a8     ucrt:api-ms-win-crt-stdio-l1-1-0.dll
 0002:000004ac       __imp___setmode            101274ac     ucrt:api-ms-win-crt-stdio-l1-1-0.dll
 0002:000004b0       __imp____stdio_common_vsnprintf_s 101274b0     ucrt:api-ms-win-crt-stdio-l1-1-0.dll
 0002:000004b4       __imp___isatty             101274b4     ucrt:api-ms-win-crt-stdio-l1-1-0.dll
 0002:000004b8       __imp__fputs               101274b8     ucrt:api-ms-win-crt-stdio-l1-1-0.dll
 0002:000004bc       __imp__fread               101274bc     ucrt:api-ms-win-crt-stdio-l1-1-0.dll
 0002:000004c0       __imp__ftell               101274c0     ucrt:api-ms-win-crt-stdio-l1-1-0.dll
 0002:000004c4       __imp__fwrite              101274c4     ucrt:api-ms-win-crt-stdio-l1-1-0.dll
 0002:000004c8       __imp___pclose             101274c8     ucrt:api-ms-win-crt-stdio-l1-1-0.dll
 0002:000004cc       __imp___popen              101274cc     ucrt:api-ms-win-crt-stdio-l1-1-0.dll
 0002:000004d0       __imp__fseek               101274d0     ucrt:api-ms-win-crt-stdio-l1-1-0.dll
 0002:000004d4       __imp____stdio_common_vfprintf 101274d4     ucrt:api-ms-win-crt-stdio-l1-1-0.dll
 0002:000004d8       __imp__setvbuf             101274d8     ucrt:api-ms-win-crt-stdio-l1-1-0.dll
 0002:000004dc       __imp__rewind              101274dc     ucrt:api-ms-win-crt-stdio-l1-1-0.dll
 0002:000004e0       \177api-ms-win-crt-stdio-l1-1-0_NULL_THUNK_DATA 101274e0     ucrt:api-ms-win-crt-stdio-l1-1-0.dll
 0002:000004e4       __imp__isdigit             101274e4     ucrt:api-ms-win-crt-string-l1-1-0.dll
 0002:000004e8       __imp__isspace             101274e8     ucrt:api-ms-win-crt-string-l1-1-0.dll
 0002:000004ec       __imp__isalnum             101274ec     ucrt:api-ms-win-crt-string-l1-1-0.dll
 0002:000004f0       __imp__isprint             101274f0     ucrt:api-ms-win-crt-string-l1-1-0.dll
 0002:000004f4       __imp__tolower             101274f4     ucrt:api-ms-win-crt-string-l1-1-0.dll
 0002:000004f8       __imp__wcslen              101274f8     ucrt:api-ms-win-crt-string-l1-1-0.dll
 0002:000004fc       __imp__strcmp              101274fc     ucrt:api-ms-win-crt-string-l1-1-0.dll
 0002:00000500       __imp__strncmp             10127500     ucrt:api-ms-win-crt-string-l1-1-0.dll
 0002:00000504       __imp__isalpha             10127504     ucrt:api-ms-win-crt-string-l1-1-0.dll
 0002:00000508       __imp__strncpy             10127508     ucrt:api-ms-win-crt-string-l1-1-0.dll
 0002:0000050c       __imp__toupper             1012750c     ucrt:api-ms-win-crt-string-l1-1-0.dll
 0002:00000510       __imp__strcpy              10127510     ucrt:api-ms-win-crt-string-l1-1-0.dll
 0002:00000514       __imp__strlen              10127514     ucrt:api-ms-win-crt-string-l1-1-0.dll
 0002:00000518       __imp__strcspn             10127518     ucrt:api-ms-win-crt-string-l1-1-0.dll
 0002:0000051c       __imp___stricmp            1012751c     ucrt:api-ms-win-crt-string-l1-1-0.dll
 0002:00000520       \177api-ms-win-crt-string-l1-1-0_NULL_THUNK_DATA 10127520     ucrt:api-ms-win-crt-string-l1-1-0.dll
 0002:00000524       __imp___localtime64        10127524     ucrt:api-ms-win-crt-time-l1-1-0.dll
 0002:00000528       __imp__strftime            10127528     ucrt:api-ms-win-crt-time-l1-1-0.dll
 0002:0000052c       __imp___time64             1012752c     ucrt:api-ms-win-crt-time-l1-1-0.dll
 0002:00000530       __imp___localtime64_s      10127530     ucrt:api-ms-win-crt-time-l1-1-0.dll
 0002:00000534       \177api-ms-win-crt-time-l1-1-0_NULL_THUNK_DATA 10127534     ucrt:api-ms-win-crt-time-l1-1-0.dll
 0002:00000538       __imp__rand                10127538     ucrt:api-ms-win-crt-utility-l1-1-0.dll
 0002:0000053c       __imp__qsort               1012753c     ucrt:api-ms-win-crt-utility-l1-1-0.dll
 0002:00000540       \177api-ms-win-crt-utility-l1-1-0_NULL_THUNK_DATA 10127540     ucrt:api-ms-win-crt-utility-l1-1-0.dll
 0002:00000544       ___guard_check_icall_fptr  10127544     MSVCRT:guard_support.obj
 0002:00000548       ___xc_a                    10127548     MSVCRT:initializers.obj
 0002:000007a8       ___xc_z                    101277a8     MSVCRT:initializers.obj
 0002:000007ac       ___xi_a                    101277ac     MSVCRT:initializers.obj
 0002:000007b4       ___xi_z                    101277b4     MSVCRT:initializers.obj
 0002:000007b8       ___xl_a                    101277b8     MSVCRT:tlssup.obj
 0002:000007bc       ___xl_z                    101277bc     MSVCRT:tlssup.obj
 0002:000007c0       ___xp_a                    101277c0     MSVCRT:initializers.obj
 0002:000007c4       ___xp_z                    101277c4     MSVCRT:initializers.obj
 0002:000007c8       ___xt_a                    101277c8     MSVCRT:initializers.obj
 0002:000007cc       ___xt_z                    101277cc     MSVCRT:initializers.obj
 0002:000026fc       ??_C@_0BA@OBHPCBFP@CreateInterface?$AA@ 101296fc     Interfaces.obj
 0002:0000270c       ??_C@_0BA@JFNIOLAK@string?5too?5long?$AA@ 1012970c     Interfaces.obj
 0002:0000271c       ??_C@_0BE@JONHPENG@map?1set?$DMT?$DO?5too?5long?$AA@ 1012971c     Interfaces.obj
 0002:00002730       __real@7f7fffff            10129730     Interfaces.obj
 0002:00005f7c       __real@3f800000            1012cf7c     Chams.obj
 0002:00005f80       __real@437f0000            1012cf80     Chams.obj
 0002:00008478       __real@0000000000000000    1012f478     shell.obj
 0002:00008480       __real@3f50624dd2f1a9fc    1012f480     shell.obj
 0002:00008488       __real@3ff0000000000000    1012f488     shell.obj
 0002:00008490       __real@4024000000000000    1012f490     shell.obj
 0002:00008498       __real@4059000000000000    1012f498     shell.obj
 0002:000084a0       __real@40b3880000000000    1012f4a0     shell.obj
 0002:000084a8       __real@412e848000000000    1012f4a8     shell.obj
 0002:000084b0       __real@416312d000000000    1012f4b0     shell.obj
 0002:000084b8       __real@4194997000000000    1012f4b8     shell.obj
 0002:000084c0       __real@4310000000000000    1012f4c0     shell.obj
 0002:0000a02c       ??_7ITraceFilter@@6B@      1013102c     MiscFunctions.obj
 0002:0000a038       ??_7CTraceFilter@@6B@      10131038     MiscFunctions.obj
 0002:0000a040       __real@00000000            10131040     MiscFunctions.obj
 0002:0000a044       __real@3f000000            10131044     MiscFunctions.obj
 0002:0000a048       __real@3f666666            10131048     MiscFunctions.obj
 0002:0000a04c       __real@42b20000            1013104c     MiscFunctions.obj
 0002:0000a050       __real@4333ffff            10131050     MiscFunctions.obj
 0002:0000a054       __real@43340000            10131054     MiscFunctions.obj
 0002:0000a058       __real@43b40000            10131058     MiscFunctions.obj
 0002:0000a05c       __real@46fffe00            1013105c     MiscFunctions.obj
 0002:0000a060       __real@c2b20000            10131060     MiscFunctions.obj
 0002:0000a064       __real@c333ffff            10131064     MiscFunctions.obj
 0002:0000a068       __real@c3340000            10131068     MiscFunctions.obj
 0002:0000c5e8       ??_7exception@std@@6B@     101335e8     Hooks.obj
 0002:0000c5f0       ??_C@_0BC@EOODALEL@Unknown?5exception?$AA@ 101335f0     Hooks.obj
 0002:0000c608       ??_7runtime_error@std@@6B@ 10133608     Hooks.obj
 0002:0000c610       ??_C@_0BK@MLNPCNP@Failed?5to?5protect?5region?4?$AA@ 10133610     Hooks.obj
 0002:0000c62c       ??_C@_0L@PHFEFMEF@client?4dll?$AA@ 1013362c     Hooks.obj
 0002:0000c638       ??_C@_0P@MPIICOFE@xxxxx?$DP?$DP?$DP?$DPx?$DP?$DP?$DP?$DP?$AA@ 10133638     Hooks.obj
 0002:0000c648       ??_C@_0P@FDDMDPMC@U?$IL?l?$IL?$AN?$AA?$AA?$AA?$AAh?$AA?$AA?$AA?$AA?$AA@ 10133648     Hooks.obj
 0002:0000c658       __real@3c23d70a            10133658     Hooks.obj
 0002:0000c65c       __real@3ca3d70a            1013365c     Hooks.obj
 0002:0000c660       __real@3d782b1f            10133660     Hooks.obj
 0002:0000c664       __real@3da09460            10133664     Hooks.obj
 0002:0000c668       __real@3da3d70a            10133668     Hooks.obj
 0002:0000c66c       __real@3da50e78            1013366c     Hooks.obj
 0002:0000c670       __real@3dcccccd            10133670     Hooks.obj
 0002:0000c674       __real@3e0f5c29            10133674     Hooks.obj
 0002:0000c678       __real@3e570a3d            10133678     Hooks.obj
 0002:0000c67c       __real@3e6147ae            1013367c     Hooks.obj
 0002:0000c680       __real@3e6b851f            10133680     Hooks.obj
 0002:0000c684       __real@3e851eb8            10133684     Hooks.obj
 0002:0000c688       __real@3e99999a            10133688     Hooks.obj
 0002:0000c68c       __real@3ea8f5c3            1013368c     Hooks.obj
 0002:0000c690       __real@3eae147b            10133690     Hooks.obj
 0002:0000c694       __real@3eb33333            10133694     Hooks.obj
 0002:0000c698       __real@3edc28f6            10133698     Hooks.obj
 0002:0000c69c       __real@3ee147ae            1013369c     Hooks.obj
 0002:0000c6a0       __real@3f028f5c            101336a0     Hooks.obj
 0002:0000c6a4       __real@3f07ae14            101336a4     Hooks.obj
 0002:0000c6a8       __real@3f0a3d71            101336a8     Hooks.obj
 0002:0000c6ac       __real@3f11eb85            101336ac     Hooks.obj
 0002:0000c6b0       __real@3f170a3d            101336b0     Hooks.obj
 0002:0000c6b4       __real@3f19999a            101336b4     Hooks.obj
 0002:0000c6b8       __real@3f1c28f6            101336b8     Hooks.obj
 0002:0000c6bc       __real@3f2065f9            101336bc     Hooks.obj
 0002:0000c6c0       __real@3f2285db            101336c0     Hooks.obj
 0002:0000c6c4       __real@3f266666            101336c4     Hooks.obj
 0002:0000c6c8       __real@3f2b851f            101336c8     Hooks.obj
 0002:0000c6cc       __real@3f333333            101336cc     Hooks.obj
 0002:0000c6d0       __real@3f3ae148            101336d0     Hooks.obj
 0002:0000c6d4       __real@3f400000            101336d4     Hooks.obj
 0002:0000c6d8       __real@3f428f5c            101336d8     Hooks.obj
 0002:0000c6dc       __real@3f4ccccd            101336dc     Hooks.obj
 0002:0000c6e0       __real@3f4f5c29            101336e0     Hooks.obj
 0002:0000c6e4       __real@3f518890            101336e4     Hooks.obj
 0002:0000c6e8       __real@3f5252df            101336e8     Hooks.obj
 0002:0000c6ec       __real@3f70a3d7            101336ec     Hooks.obj
 0002:0000c6f0       __real@3f7ae148            101336f0     Hooks.obj
 0002:0000c6f4       __real@3f8ccccd            101336f4     Hooks.obj
 0002:0000c6f8       __real@3ff199999999999a    101336f8     Hooks.obj
 0002:0000c700       __real@41000000            10133700     Hooks.obj
 0002:0000c704       __real@41600000            10133704     Hooks.obj
 0002:0000c708       __real@42200000            10133708     Hooks.obj
 0002:0000c70c       __real@431a0000            1013370c     Hooks.obj
 0002:0000c710       __real@43750000            10133710     Hooks.obj
 0002:0000c714       __real@bf800000            10133714     Hooks.obj
 0002:0000e6fa       ??_C@_00CNPNBAHC@?$AA@     101356fa     ESP.obj
 0002:0000e6fc       ??_C@_05BPFOPNCG@Knife?$AA@ 101356fc     ESP.obj
 0002:0000e704       ??_C@_04KDDOELFP@AK47?$AA@ 10135704     ESP.obj
 0002:0000e70c       ??_C@_03CIFMCKCC@AUG?$AA@  1013570c     ESP.obj
 0002:0000e710       ??_C@_08OKMAADFD@Revolver?$AA@ 10135710     ESP.obj
 0002:0000e71c       ??_C@_03COFLHKNK@AWP?$AA@  1013571c     ESP.obj
 0002:0000e720       ??_C@_05CEPIGKML@Bizon?$AA@ 10135720     ESP.obj
 0002:0000e728       ??_C@_04GPGPLFMI@Bomb?$AA@ 10135728     ESP.obj
 0002:0000e730       ??_C@_04BCLPEBO@CZ75?$AA@  10135730     ESP.obj
 0002:0000e738       ??_C@_06NBAKNDOD@Deagle?$AA@ 10135738     ESP.obj
 0002:0000e740       ??_C@_05BPMDPIFE@Decoy?$AA@ 10135740     ESP.obj
 0002:0000e748       ??_C@_06DBOHLEHH@Elites?$AA@ 10135748     ESP.obj
 0002:0000e750       ??_C@_05LHCFENCM@Famas?$AA@ 10135750     ESP.obj
 0002:0000e758       ??_C@_09OMFOBOAC@FiveSeven?$AA@ 10135758     ESP.obj
 0002:0000e764       ??_C@_05LDPHIKKB@Flash?$AA@ 10135764     ESP.obj
 0002:0000e76c       ??_C@_05NANBJKGF@G3SG1?$AA@ 1013576c     ESP.obj
 0002:0000e774       ??_C@_05HIMKGMK@Galil?$AA@ 10135774     ESP.obj
 0002:0000e77c       ??_C@_05KPHPNOIE@Glock?$AA@ 1013577c     ESP.obj
 0002:0000e784       ??_C@_07OPFMIBLN@Molotov?$AA@ 10135784     ESP.obj
 0002:0000e78c       ??_C@_05GAJJNIIE@Scout?$AA@ 1013578c     ESP.obj
 0002:0000e794       ??_C@_07GIIHBBNN@Grenade?$AA@ 10135794     ESP.obj
 0002:0000e79c       ??_C@_04OOHKGEMG@M249?$AA@ 1013579c     ESP.obj
 0002:0000e7a4       ??_C@_04FBPCBLKJ@M4A1?$AA@ 101357a4     ESP.obj
 0002:0000e7ac       ??_C@_05OLCGHIJA@MAC10?$AA@ 101357ac     ESP.obj
 0002:0000e7b4       ??_C@_04FPMEJADD@MAG7?$AA@ 101357b4     ESP.obj
 0002:0000e7bc       ??_C@_03ELHOCOIH@MP7?$AA@  101357bc     ESP.obj
 0002:0000e7c0       ??_C@_03NFPNADAJ@MP9?$AA@  101357c0     ESP.obj
 0002:0000e7c4       ??_C@_04JBMBEHJL@Nova?$AA@ 101357c4     ESP.obj
 0002:0000e7cc       ??_C@_05LLDFNFHM@Negev?$AA@ 101357cc     ESP.obj
 0002:0000e7d4       ??_C@_04KGAKOGIL@P250?$AA@ 101357d4     ESP.obj
 0002:0000e7dc       ??_C@_03OBEKMHKN@P90?$AA@  101357dc     ESP.obj
 0002:0000e7e0       ??_C@_08OPKGKENO@SawedOff?$AA@ 101357e0     ESP.obj
 0002:0000e7ec       ??_C@_06FFMBKLE@SCAR20?$AA@ 101357ec     ESP.obj
 0002:0000e7f4       ??_C@_05JKMIMLIP@Smoke?$AA@ 101357f4     ESP.obj
 0002:0000e7fc       ??_C@_05ECLNBOMB@SG556?$AA@ 101357fc     ESP.obj
 0002:0000e804       ??_C@_04CENMHHMF@TEC9?$AA@ 10135804     ESP.obj
 0002:0000e80c       ??_C@_05JCFEJGIP@P2000?$AA@ 1013580c     ESP.obj
 0002:0000e814       ??_C@_03PGCJBCMO@USP?$AA@  10135814     ESP.obj
 0002:0000e818       ??_C@_03OAJBJMLE@UMP?$AA@  10135818     ESP.obj
 0002:0000e81c       ??_C@_06DDIGILCE@XM1014?$AA@ 1013581c     ESP.obj
 0002:0000e824       ??_C@_04BBKOFIDH@Zeus?$AA@ 10135824     ESP.obj
 0002:0000e82c       ??_C@_06FEKDEEJK@M4A1?9S?$AA@ 1013582c     ESP.obj
 0002:0000e834       ??_C@_0BD@OLBABOEK@vector?$DMT?$DO?5too?5long?$AA@ 10135834     ESP.obj
 0002:0000e848       __real@4004666666666666    10135848     ESP.obj
 0002:0000e850       __real@406fe00000000000    10135850     ESP.obj
 0002:0000e858       __real@40800000            10135858     ESP.obj
 0002:0000e85c       __real@41200000            1013585c     ESP.obj
 0002:0000e860       __real@42975c29            10135860     ESP.obj
 0002:0000e864       __real@43e1599a            10135864     ESP.obj
 0002:0000e868       __real@44454ccd            10135868     ESP.obj
 0002:0000e86c       __real@c0000000            1013586c     ESP.obj
 0002:0000e870       __xmm@80000000800000008000000080000000 10135870     ESP.obj
 0002:0000e880       _DETOUR_EXE_HELPER_GUID    10135880     creatwth.obj
 0002:00012484       _sqlite3_version           10139484     sqlite3.obj
 0002:00016030       __real@3e45798ee2308c3a    1013d030     sqlite3.obj
 0002:00016038       __real@3fb999999999999a    1013d038     sqlite3.obj
 0002:00016040       __real@3fe0000000000000    1013d040     sqlite3.obj
 0002:00016048       __real@401c000000000000    1013d048     sqlite3.obj
 0002:00016050       __real@4034000000000000    1013d050     sqlite3.obj
 0002:00016058       __real@403e99a027525461    1013d058     sqlite3.obj
 0002:00016060       __real@4048000000000000    1013d060     sqlite3.obj
 0002:00016068       __real@404dffdf3b645a1d    1013d068     sqlite3.obj
 0002:00016070       __real@405e866666666666    1013d070     sqlite3.obj
 0002:00016078       __real@4076d40000000000    1013d078     sqlite3.obj
 0002:00016080       __real@408f400000000000    1013d080     sqlite3.obj
 0002:00016088       __real@4097d20000000000    1013d088     sqlite3.obj
 0002:00016090       __real@40e1d58800000000    1013d090     sqlite3.obj
 0002:00016098       __real@413c7dd040000000    1013d098     sqlite3.obj
 0002:000160a0       __real@41547f8b20000000    1013d0a0     sqlite3.obj
 0002:000160a8       __real@4197d78400000000    1013d0a8     sqlite3.obj
 0002:000160b0       __real@41a0000000000000    1013d0b0     sqlite3.obj
 0002:000160b8       __real@41ddcd6500000000    1013d0b8     sqlite3.obj
 0002:000160c0       __real@41dfffffffc00000    1013d0c0     sqlite3.obj
 0002:000160c8       __real@4202a05f20000000    1013d0c8     sqlite3.obj
 0002:000160d0       __real@42e7f907ca644000    1013d0d0     sqlite3.obj
 0002:000160d8       __real@42fa6401072fe000    1013d0d8     sqlite3.obj
 0002:000160e0       __real@43e0000000000000    1013d0e0     sqlite3.obj
 0002:000160e8       __real@546d42aea2879f2e    1013d0e8     sqlite3.obj
 0002:000160f0       __real@54b249ad2594c37d    1013d0f0     sqlite3.obj
 0002:000160f8       __real@7f800000            1013d0f8     sqlite3.obj
 0002:00016100       __real@7fe1ccf385ebc8a0    1013d100     sqlite3.obj
 0002:00016108       __real@8000000000000000    1013d108     sqlite3.obj
 0002:00016110       __real@bfe0000000000000    1013d110     sqlite3.obj
 0002:00016118       __real@bff0000000000000    1013d118     sqlite3.obj
 0002:00016120       __real@c3e0000000000000    1013d120     sqlite3.obj
 0002:00016130       __xmm@80000000000000008000000000000000 1013d130     sqlite3.obj
 0002:00016160       _DETOUR_EXE_RESTORE_GUID   1013d160     modules.obj
 0002:00017428       ??_C@_09GBFFKCDJ@?$CD?$CDOverlay?$AA@ 1013e428     imgui.obj
 0002:0001745c       ??_C@_0CF@IMBENNLG@?$CFs?3?5?8?$CFs?8?5?$CFd?5vtx?0?5?$CFd?5indices?0?5?$CFd?5@ 1013e45c     imgui.obj
 0002:00017484       ??_C@_0BE@LDCFEMCB@CURRENTLY?5APPENDING?$AA@ 1013e484     imgui.obj
 0002:00017498       ??_C@_0BK@FDNBBNBF@Callback?5?$CFp?0?5user_data?5?$CFp?$AA@ 1013e498     imgui.obj
 0002:000174b4       ??_C@_07KNEBDGNE@indexed?$AA@ 1013e4b4     imgui.obj
 0002:000174bc       ??_C@_0M@NGJKDAN@non?9indexed?$AA@ 1013e4bc     imgui.obj
 0002:000174c8       ??_C@_0EB@GBKAKAEN@Draw?5?$CF?94d?5?$CFs?5vtx?0?5tex?5?$DN?5?$CFp?0?5clip@ 1013e4c8     imgui.obj
 0002:0001750c       ??_C@_03CEPBOMNB@vtx?$AA@  1013e50c     imgui.obj
 0002:00017510       ??_C@_03NDEAONJP@?5?5?5?$AA@ 1013e510     imgui.obj
 0002:00017514       ??_C@_0DP@LIPFHOCP@?$CFs?5?$CF04d?5?$HL?5pos?5?$DN?5?$CI?$CF8?42f?0?$CF8?42f?$CJ?0?5u@ 1013e514     imgui.obj
 0002:00017554       ??_C@_07JMKCEEPK@?$CFs?5?$CI?$CFd?$CJ?$AA@ 1013e554     imgui.obj
 0002:0001755c       ??_C@_06BKKJGDHO@Window?$AA@ 1013e55c     imgui.obj
 0002:00017564       ??_C@_0BD@KOKNLAED@?$CFs?5?8?$CFs?8?0?5?$CFd?5?$EA?50x?$CFp?$AA@ 1013e564     imgui.obj
 0002:00017578       ??_C@_08IJNCDCKF@DrawList?$AA@ 1013e578     imgui.obj
 0002:00017584       ??_C@_0BB@OALIFMJB@Pos?3?5?$CI?$CF?41f?0?$CF?41f?$CJ?$AA@ 1013e584     imgui.obj
 0002:00017598       ??_C@_0CM@FNPKCFJC@Size?3?5?$CI?$CF?41f?0?$CF?41f?$CJ?0?5SizeContents?5@ 1013e598     imgui.obj
 0002:000175c4       ??_C@_0BE@LFBJHAFP@Scroll?3?5?$CI?$CF?42f?0?$CF?42f?$CJ?$AA@ 1013e5c4     imgui.obj
 0002:000175d8       ??_C@_0L@EHLMOHOL@RootWindow?$AA@ 1013e5d8     imgui.obj
 0002:000175e4       ??_C@_0N@BGDHDNPO@ChildWindows?$AA@ 1013e5e4     imgui.obj
 0002:000175f4       ??_C@_0BC@PDGNHIHG@Storage?3?5?$CFd?5bytes?$AA@ 1013e5f4     imgui.obj
 0002:00017608       __real@1e3ce508            1013e608     imgui.obj
 0002:0001760c       __real@358637bd            1013e60c     imgui.obj
 0002:00017610       __real@3727c5ac            1013e610     imgui.obj
 0002:00017614       __real@38d1b717            1013e614     imgui.obj
 0002:00017618       __real@3a83126f            1013e618     imgui.obj
 0002:0001761c       __real@3b808081            1013e61c     imgui.obj
 0002:00017620       __real@3c888889            1013e620     imgui.obj
 0002:00017624       __real@3d4ccccd            1013e624     imgui.obj
 0002:00017628       __real@3e19999a            1013e628     imgui.obj
 0002:0001762c       __real@3e2aaaab            1013e62c     imgui.obj
 0002:00017630       __real@3e4ccccd            1013e630     imgui.obj
 0002:00017634       __real@3e800000            1013e634     imgui.obj
 0002:00017638       __real@3e8a3d71            1013e638     imgui.obj
 0002:0001763c       __real@3e9d2f1b            1013e63c     imgui.obj
 0002:00017640       __real@3ea3d70a            1013e640     imgui.obj
 0002:00017644       __real@3ecccccd            1013e644     imgui.obj
 0002:00017648       __real@3ee66666            1013e648     imgui.obj
 0002:0001764c       __real@3f0ccccd            1013e64c     imgui.obj
 0002:00017650       __real@3f2147ae            1013e650     imgui.obj
 0002:00017654       __real@3f350481            1013e654     imgui.obj
 0002:00017658       __real@3f547ae1            1013e658     imgui.obj
 0002:0001765c       __real@3f5db22d            1013e65c     imgui.obj
 0002:00017660       __real@3f5eb852            1013e660     imgui.obj
 0002:00017664       __real@3f733333            1013e664     imgui.obj
 0002:00017668       __real@3f7d70a4            1013e668     imgui.obj
 0002:0001766c       __real@3f7ff972            1013e66c     imgui.obj
 0002:00017670       __real@3f7fff58            1013e670     imgui.obj
 0002:00017674       __real@3f800054            1013e674     imgui.obj
 0002:00017678       __real@3f99999a            1013e678     imgui.obj
 0002:0001767c       __real@3fa00000            1013e67c     imgui.obj
 0002:00017680       __real@3faccccd            1013e680     imgui.obj
 0002:00017684       __real@3fc00000            1013e684     imgui.obj
 0002:00017688       __real@40000000            1013e688     imgui.obj
 0002:0001768c       __real@40200000            1013e68c     imgui.obj
 0002:00017690       __real@40400000            1013e690     imgui.obj
 0002:00017694       __real@40a00000            1013e694     imgui.obj
 0002:00017698       __real@40c00000            1013e698     imgui.obj
 0002:0001769c       __real@40c90fdb            1013e69c     imgui.obj
 0002:000176a0       __real@40e00000            1013e6a0     imgui.obj
 0002:000176a4       __real@40eccccd            1013e6a4     imgui.obj
 0002:000176a8       __real@41100000            1013e6a8     imgui.obj
 0002:000176ac       __real@41800000            1013e6ac     imgui.obj
 0002:000176b0       __real@41a80000            1013e6b0     imgui.obj
 0002:000176b4       __real@41b00000            1013e6b4     imgui.obj
 0002:000176b8       __real@41c00000            1013e6b8     imgui.obj
 0002:000176bc       __real@41f00000            1013e6bc     imgui.obj
 0002:000176c0       __real@42000000            1013e6c0     imgui.obj
 0002:000176c4       __real@42700000            1013e6c4     imgui.obj
 0002:000176c8       __real@42a00000            1013e6c8     imgui.obj
 0002:000176cc       __real@42c80000            1013e6cc     imgui.obj
 0002:000176d0       __real@42f00000            1013e6d0     imgui.obj
 0002:000176d4       __real@43c80000            1013e6d4     imgui.obj
 0002:000176d8       __real@447a0000            1013e6d8     imgui.obj
 0002:000176dc       __real@461c3c00            1013e6dc     imgui.obj
 0002:000176e0       __real@be99999a            1013e6e0     imgui.obj
 0002:000176e4       __real@beaaaaab            1013e6e4     imgui.obj
 0002:000176e8       __real@bf000000            1013e6e8     imgui.obj
 0002:000176ec       __real@bf5db22d            1013e6ec     imgui.obj
 0002:000176f0       __real@c2c80000            1013e6f0     imgui.obj
 0002:000176f4       __real@c61c3c00            1013e6f4     imgui.obj
 0002:000176f8       __real@ff7fffff            1013e6f8     imgui.obj
 0002:00017700       __xmm@41f00000000000000000000000000000 1013e700     imgui.obj
 0002:00019244       __real@40490fdb            10140244     LagComp.obj
 0002:0001db44       __real@3ffeb852            10144b44     imgui_draw.obj
 0002:0001db48       __real@41300000            10144b48     imgui_draw.obj
 0002:0001db4c       __real@41400000            10144b4c     imgui_draw.obj
 0002:0001db50       __real@41500000            10144b50     imgui_draw.obj
 0002:0001db54       __real@41880000            10144b54     imgui_draw.obj
 0002:0001db58       __real@41900000            10144b58     imgui_draw.obj
 0002:0001db5c       __real@41980000            10144b5c     imgui_draw.obj
 0002:0001db60       __real@41b80000            10144b60     imgui_draw.obj
 0002:0001db64       __real@41f80000            10144b64     imgui_draw.obj
 0002:0001db68       __real@425c0000            10144b68     imgui_draw.obj
 0002:0001db6c       __real@42920000            10144b6c     imgui_draw.obj
 0002:0001db70       __real@42b60000            10144b70     imgui_draw.obj
 0002:0001db74       __real@46000000            10144b74     imgui_draw.obj
 0002:0001db78       __real@46800000            10144b78     imgui_draw.obj
 0002:0001db7c       __real@47800000            10144b7c     imgui_draw.obj
 0002:0001db80       __real@c6000000            10144b80     imgui_draw.obj
 0002:0001f758       ??_C@_02NJPGOMH@?$CFf?$AA@ 10146758     Configuration.obj
 0002:0001f75c       ??_C@_0BI@CFPLBAOH@invalid?5string?5position?$AA@ 1014675c     Configuration.obj
 0002:0001f774       __real@428a0000            10146774     Configuration.obj
 0002:00022f14       __real@43800000            10149f14     imguicolorpicker.obj
 0002:00022f58       ??_7bad_cast@std@@6B@      10149f58     Utilities.obj
 0002:00022f60       ??_C@_08EPJLHIJG@bad?5cast?$AA@ 10149f60     Utilities.obj
 0002:00022f70       ??_7?$basic_filebuf@DU?$char_traits@D@std@@@std@@6B@ 10149f70     Utilities.obj
 0002:00022fb0       ??_7?$basic_ofstream@DU?$char_traits@D@std@@@std@@6B@ 10149fb0     Utilities.obj
 0002:00022fb4       ??_8?$basic_ofstream@DU?$char_traits@D@std@@@std@@7B@ 10149fb4     Utilities.obj
 0002:00029dac       __real@3c8efa35            10150dac     MathFunctions.obj
 0002:00029db0       __real@3f91df46a2529d39    10150db0     MathFunctions.obj
 0002:00029db8       __real@404ca5dc20000000    10150db8     MathFunctions.obj
 0002:00029dc0       __real@42652ee1            10150dc0     MathFunctions.obj
 0002:0002b900       ??_7CTraceFilterWorldAndPropsOnly@@6B@ 10152900     GrenadePrediction.obj
 0002:0002b918       __real@3eb0c6f7a0b5ed8d    10152918     GrenadePrediction.obj
 0002:0002b920       __real@3f91df46a0000000    10152920     GrenadePrediction.obj
 0002:0002b928       __real@42b40000            10152928     GrenadePrediction.obj
 0002:0002b92c       __real@43a00000            1015292c     GrenadePrediction.obj
 0002:0002b930       __real@4428c000            10152930     GrenadePrediction.obj
 0002:0002b934       __real@bdcccccd            10152934     GrenadePrediction.obj
 0002:0002b938       __real@c2b40000            10152938     GrenadePrediction.obj
 0002:0002b940       ??_C@_1EC@JIJBPKFM@?$AAa?$AAp?$AAi?$AA?9?$AAm?$AAs?$AA?9?$AAw?$AAi?$AAn?$AA?9?$AAc?$AAo?$AAr?$AAe?$AA?9?$AAs?$AAy?$AAn?$AAc?$AAh?$AA?9?$AAl?$AA1?$AA?9?$AA2?$AA?9?$AA0?$AA?4?$AAd?$AAl?$AAl@ 10152940     MSVCRT:thread_safe_statics.obj
 0002:0002b984       ??_C@_1BK@MGMFAEKH@?$AAk?$AAe?$AAr?$AAn?$AAe?$AAl?$AA3?$AA2?$AA?4?$AAd?$AAl?$AAl?$AA?$AA@ 10152984     MSVCRT:thread_safe_statics.obj
 0002:0002b9a0       ??_C@_0BM@HLJJNPAH@InitializeConditionVariable?$AA@ 101529a0     MSVCRT:thread_safe_statics.obj
 0002:0002b9bc       ??_C@_0BJ@JEBJOJFJ@SleepConditionVariableCS?$AA@ 101529bc     MSVCRT:thread_safe_statics.obj
 0002:0002b9d8       ??_C@_0BJ@PGPPEPCC@WakeAllConditionVariable?$AA@ 101529d8     MSVCRT:thread_safe_statics.obj
 0002:0002ba88       ??_7type_info@@6B@         10152a88     MSVCRT:std_type_info_static.obj
 0002:0002ba8c       __pDefaultRawDllMain       10152a8c     MSVCRT:dll_dllmain.obj
 0002:0002ba8c       __pRawDllMain              10152a8c     MSVCRT:dll_dllmain.obj
 0002:0002ba94       ??_7bad_alloc@std@@6B@     10152a94     MSVCRT:throw_bad_alloc.obj
 0002:0002ba9c       ??_C@_0P@GHFPNOJB@bad?5allocation?$AA@ 10152a9c     MSVCRT:throw_bad_alloc.obj
 0002:0002bab0       ??_7bad_array_new_length@std@@6B@ 10152ab0     MSVCRT:throw_bad_alloc.obj
 0002:0002bab8       ??_C@_0BF@KINCDENJ@bad?5array?5new?5length?$AA@ 10152ab8     MSVCRT:throw_bad_alloc.obj
 0002:0002bb38       __load_config_used         10152b38     MSVCRT:loadcfg.obj
 0002:0002bbd8       __tls_used                 10152bd8     MSVCRT:tlssup.obj
 0002:0002bbf0       ??_R4ITraceFilter@@6B@     10152bf0     MiscFunctions.obj
 0002:0002bc04       ??_R3ITraceFilter@@8       10152c04     MiscFunctions.obj
 0002:0002bc14       ??_R2ITraceFilter@@8       10152c14     MiscFunctions.obj
 0002:0002bc1c       ??_R1A@?0A@EA@ITraceFilter@@8 10152c1c     MiscFunctions.obj
 0002:0002bc38       ??_R4CTraceFilter@@6B@     10152c38     MiscFunctions.obj
 0002:0002bc4c       ??_R3CTraceFilter@@8       10152c4c     MiscFunctions.obj
 0002:0002bc5c       ??_R2CTraceFilter@@8       10152c5c     MiscFunctions.obj
 0002:0002bc68       ??_R1A@?0A@EA@CTraceFilter@@8 10152c68     MiscFunctions.obj
 0002:0002bc84       ??_R4exception@std@@6B@    10152c84     Hooks.obj
 0002:0002bc98       ??_R3exception@std@@8      10152c98     Hooks.obj
 0002:0002bca8       ??_R2exception@std@@8      10152ca8     Hooks.obj
 0002:0002bcb0       ??_R1A@?0A@EA@exception@std@@8 10152cb0     Hooks.obj
 0002:0002bccc       ??_R4runtime_error@std@@6B@ 10152ccc     Hooks.obj
 0002:0002bce0       ??_R3runtime_error@std@@8  10152ce0     Hooks.obj
 0002:0002bcf0       ??_R2runtime_error@std@@8  10152cf0     Hooks.obj
 0002:0002bcfc       ??_R1A@?0A@EA@runtime_error@std@@8 10152cfc     Hooks.obj
 0002:0002bd18       ??_R4?$basic_filebuf@DU?$char_traits@D@std@@@std@@6B@ 10152d18     Utilities.obj
 0002:0002bd2c       ??_R3?$basic_filebuf@DU?$char_traits@D@std@@@std@@8 10152d2c     Utilities.obj
 0002:0002bd3c       ??_R2?$basic_filebuf@DU?$char_traits@D@std@@@std@@8 10152d3c     Utilities.obj
 0002:0002bd48       ??_R1A@?0A@EA@?$basic_filebuf@DU?$char_traits@D@std@@@std@@8 10152d48     Utilities.obj
 0002:0002bd64       ??_R1A@?0A@EA@?$basic_streambuf@DU?$char_traits@D@std@@@std@@8 10152d64     Utilities.obj
 0002:0002bd80       ??_R3?$basic_streambuf@DU?$char_traits@D@std@@@std@@8 10152d80     Utilities.obj
 0002:0002bd90       ??_R2?$basic_streambuf@DU?$char_traits@D@std@@@std@@8 10152d90     Utilities.obj
 0002:0002bd98       ??_R4?$basic_ofstream@DU?$char_traits@D@std@@@std@@6B@ 10152d98     Utilities.obj
 0002:0002bdac       ??_R3?$basic_ofstream@DU?$char_traits@D@std@@@std@@8 10152dac     Utilities.obj
 0002:0002bdbc       ??_R2?$basic_ofstream@DU?$char_traits@D@std@@@std@@8 10152dbc     Utilities.obj
 0002:0002bdd4       ??_R1A@?0A@EA@?$basic_ofstream@DU?$char_traits@D@std@@@std@@8 10152dd4     Utilities.obj
 0002:0002bdf0       ??_R1A@?0A@EA@?$basic_ostream@DU?$char_traits@D@std@@@std@@8 10152df0     Utilities.obj
 0002:0002be0c       ??_R3?$basic_ostream@DU?$char_traits@D@std@@@std@@8 10152e0c     Utilities.obj
 0002:0002be1c       ??_R2?$basic_ostream@DU?$char_traits@D@std@@@std@@8 10152e1c     Utilities.obj
 0002:0002be30       ??_R1A@A@3FA@?$basic_ios@DU?$char_traits@D@std@@@std@@8 10152e30     Utilities.obj
 0002:0002be4c       ??_R3?$basic_ios@DU?$char_traits@D@std@@@std@@8 10152e4c     Utilities.obj
 0002:0002be5c       ??_R2?$basic_ios@DU?$char_traits@D@std@@@std@@8 10152e5c     Utilities.obj
 0002:0002be6c       ??_R1A@?0A@EA@?$basic_ios@DU?$char_traits@D@std@@@std@@8 10152e6c     Utilities.obj
 0002:0002be88       ??_R1A@?0A@EA@ios_base@std@@8 10152e88     Utilities.obj
 0002:0002bea4       ??_R3ios_base@std@@8       10152ea4     Utilities.obj
 0002:0002beb4       ??_R2ios_base@std@@8       10152eb4     Utilities.obj
 0002:0002bec0       ??_R17?0A@EA@?$_Iosb@H@std@@8 10152ec0     Utilities.obj
 0002:0002bedc       ??_R3?$_Iosb@H@std@@8      10152edc     Utilities.obj
 0002:0002beec       ??_R2?$_Iosb@H@std@@8      10152eec     Utilities.obj
 0002:0002bef4       ??_R1A@?0A@EA@?$_Iosb@H@std@@8 10152ef4     Utilities.obj
 0002:0002bf10       ??_R1A@A@3EA@ios_base@std@@8 10152f10     Utilities.obj
 0002:0002bf2c       ??_R17A@3EA@?$_Iosb@H@std@@8 10152f2c     Utilities.obj
 0002:0002bf48       ??_R4bad_cast@std@@6B@     10152f48     Utilities.obj
 0002:0002bf5c       ??_R3bad_cast@std@@8       10152f5c     Utilities.obj
 0002:0002bf6c       ??_R2bad_cast@std@@8       10152f6c     Utilities.obj
 0002:0002bf78       ??_R1A@?0A@EA@bad_cast@std@@8 10152f78     Utilities.obj
 0002:0002bf94       ??_R4CTraceFilterWorldAndPropsOnly@@6B@ 10152f94     GrenadePrediction.obj
 0002:0002bfa8       ??_R3CTraceFilterWorldAndPropsOnly@@8 10152fa8     GrenadePrediction.obj
 0002:0002bfb8       ??_R2CTraceFilterWorldAndPropsOnly@@8 10152fb8     GrenadePrediction.obj
 0002:0002bfc4       ??_R1A@?0A@EA@CTraceFilterWorldAndPropsOnly@@8 10152fc4     GrenadePrediction.obj
 0002:0002bfe0       ??_R4type_info@@6B@        10152fe0     MSVCRT:std_type_info_static.obj
 0002:0002bff4       ??_R3type_info@@8          10152ff4     MSVCRT:std_type_info_static.obj
 0002:0002c004       ??_R2type_info@@8          10153004     MSVCRT:std_type_info_static.obj
 0002:0002c00c       ??_R1A@?0A@EA@type_info@@8 1015300c     MSVCRT:std_type_info_static.obj
 0002:0002c028       ??_R4bad_alloc@std@@6B@    10153028     MSVCRT:throw_bad_alloc.obj
 0002:0002c03c       ??_R3bad_alloc@std@@8      1015303c     MSVCRT:throw_bad_alloc.obj
 0002:0002c04c       ??_R2bad_alloc@std@@8      1015304c     MSVCRT:throw_bad_alloc.obj
 0002:0002c058       ??_R1A@?0A@EA@bad_alloc@std@@8 10153058     MSVCRT:throw_bad_alloc.obj
 0002:0002c074       ??_R4bad_array_new_length@std@@6B@ 10153074     MSVCRT:throw_bad_alloc.obj
 0002:0002c088       ??_R3bad_array_new_length@std@@8 10153088     MSVCRT:throw_bad_alloc.obj
 0002:0002c098       ??_R2bad_array_new_length@std@@8 10153098     MSVCRT:throw_bad_alloc.obj
 0002:0002c0a8       ??_R1A@?0A@EA@bad_array_new_length@std@@8 101530a8     MSVCRT:throw_bad_alloc.obj
 0002:0002c0d0       ___safe_se_handler_table   101530d0     <linker-defined>
 0002:0002c5fc       ___rtc_iaa                 101535fc     MSVCRT:_initsect_.obj
 0002:0002c600       ___rtc_izz                 10153600     MSVCRT:_initsect_.obj
 0002:0002c604       ___rtc_taa                 10153604     MSVCRT:_initsect_.obj
 0002:0002c608       ___rtc_tzz                 10153608     MSVCRT:_initsect_.obj
 0002:0002c60c       __tls_start                1015360c     MSVCRT:tlssup.obj
 0002:0002c610       __Init_thread_epoch        10153610     MSVCRT:thread_safe_statics.obj
 0002:0002c614       __tls_end                  10153614     MSVCRT:tlssup.obj
 0002:0002cc00       __TI2?AVruntime_error@std@@ 10153c00     Hooks.obj
 0002:0002cc10       __CTA2?AVruntime_error@std@@ 10153c10     Hooks.obj
 0002:0002cc1c       __CT??_R0?AVruntime_error@std@@@8??0runtime_error@std@@QAE@ABV01@@Z12 10153c1c     Hooks.obj
 0002:0002cc38       __CT??_R0?AVexception@std@@@8??0exception@std@@QAE@ABV01@@Z12 10153c38     Hooks.obj
 0002:0002daf8       __TI2?AVbad_cast@std@@     10154af8     Utilities.obj
 0002:0002db08       __CTA2?AVbad_cast@std@@    10154b08     Utilities.obj
 0002:0002db14       __CT??_R0?AVbad_cast@std@@@8??0bad_cast@std@@QAE@ABV01@@Z12 10154b14     Utilities.obj
 0002:0002dd34       __TI2?AVbad_alloc@std@@    10154d34     MSVCRT:throw_bad_alloc.obj
 0002:0002dd44       __CTA2?AVbad_alloc@std@@   10154d44     MSVCRT:throw_bad_alloc.obj
 0002:0002dd50       __CT??_R0?AVbad_alloc@std@@@8??0bad_alloc@std@@QAE@ABV01@@Z12 10154d50     MSVCRT:throw_bad_alloc.obj
 0002:0002dd6c       __TI3?AVbad_array_new_length@std@@ 10154d6c     MSVCRT:throw_bad_alloc.obj
 0002:0002dd7c       __CTA3?AVbad_array_new_length@std@@ 10154d7c     MSVCRT:throw_bad_alloc.obj
 0002:0002dd8c       __CT??_R0?AVbad_array_new_length@std@@@8??0bad_array_new_length@std@@QAE@ABV01@@Z12 10154d8c     MSVCRT:throw_bad_alloc.obj
 0002:0002dda8       __IMPORT_DESCRIPTOR_KERNEL32 10154da8     kernel32:KERNEL32.dll
 0002:0002ddbc       __IMPORT_DESCRIPTOR_USER32 10154dbc     user32:USER32.dll
 0002:0002ddd0       __IMPORT_DESCRIPTOR_SHELL32 10154dd0     shell32:SHELL32.dll
 0002:0002dde4       __IMPORT_DESCRIPTOR_MSVCP140 10154de4     msvcprt:MSVCP140.dll
 0002:0002ddf8       __IMPORT_DESCRIPTOR_IMM32  10154df8     imm32:IMM32.dll
 0002:0002de0c       __IMPORT_DESCRIPTOR_VCRUNTIME140 10154e0c     vcruntime:VCRUNTIME140.dll
 0002:0002de20       __IMPORT_DESCRIPTOR_api-ms-win-crt-runtime-l1-1-0 10154e20     ucrt:api-ms-win-crt-runtime-l1-1-0.dll
 0002:0002de34       __IMPORT_DESCRIPTOR_api-ms-win-crt-string-l1-1-0 10154e34     ucrt:api-ms-win-crt-string-l1-1-0.dll
 0002:0002de48       __IMPORT_DESCRIPTOR_api-ms-win-crt-heap-l1-1-0 10154e48     ucrt:api-ms-win-crt-heap-l1-1-0.dll
 0002:0002de5c       __IMPORT_DESCRIPTOR_api-ms-win-crt-stdio-l1-1-0 10154e5c     ucrt:api-ms-win-crt-stdio-l1-1-0.dll
 0002:0002de70       __IMPORT_DESCRIPTOR_api-ms-win-crt-convert-l1-1-0 10154e70     ucrt:api-ms-win-crt-convert-l1-1-0.dll
 0002:0002de84       __IMPORT_DESCRIPTOR_api-ms-win-crt-environment-l1-1-0 10154e84     ucrt:api-ms-win-crt-environment-l1-1-0.dll
 0002:0002de98       __IMPORT_DESCRIPTOR_api-ms-win-crt-filesystem-l1-1-0 10154e98     ucrt:api-ms-win-crt-filesystem-l1-1-0.dll
 0002:0002deac       __IMPORT_DESCRIPTOR_api-ms-win-crt-utility-l1-1-0 10154eac     ucrt:api-ms-win-crt-utility-l1-1-0.dll
 0002:0002dec0       __IMPORT_DESCRIPTOR_api-ms-win-crt-math-l1-1-0 10154ec0     ucrt:api-ms-win-crt-math-l1-1-0.dll
 0002:0002ded4       __IMPORT_DESCRIPTOR_api-ms-win-crt-time-l1-1-0 10154ed4     ucrt:api-ms-win-crt-time-l1-1-0.dll
 0002:0002dee8       __NULL_IMPORT_DESCRIPTOR   10154ee8     kernel32:KERNEL32.dll
 0003:00000000       ?ChamMode@G@@3HA           10158000     Global.obj
 0003:00000004       ?SendPacket@G@@3_NA        10158004     Global.obj
 0003:00000008       ?BestTarget@G@@3HA         10158008     Global.obj
 0003:00007b90       ?colors@@3PAPBDA           1015fb90     Hooks.obj
 0003:00007ba4       ?ATab@@3HA                 1015fba4     Hooks.obj
 0003:00007ba8       ?keyNames@@3PAPBDA         1015fba8     Hooks.obj
 0003:00007d98       ?once@@3_NA                1015fd98     Hooks.obj
 0003:0000e7d0       ?GImGui@@3PAUImGuiContext@@A 101667d0     imgui.obj
 0003:0000e7f0       ___scrt_native_dllmain_reason 101667f0     MSVCRT:utility.obj
 0003:0000e7f4       __Init_global_epoch        101667f4     MSVCRT:thread_safe_statics.obj
 0003:0000e7f8       __fltused                  101667f8     MSVCRT:fltused.obj
 0003:0000e800       ___security_cookie         10166800     MSVCRT:gs_cookie.obj
 0003:0000e804       ___security_cookie_complement 10166804     MSVCRT:gs_cookie.obj
 0003:0000e808       ___isa_enabled             10166808     MSVCRT:_cpu_disp_.obj
 0003:0000e810       ___scrt_ucrt_dll_is_in_use 10166810     MSVCRT:ucrt_stubs.obj
 0003:0000e814       ??_R0?AVITraceFilter@@@8   10166814     MiscFunctions.obj
 0003:0000e830       ??_R0?AVCTraceFilter@@@8   10166830     MiscFunctions.obj
 0003:0000e84c       ??_R0?AVruntime_error@std@@@8 1016684c     Hooks.obj
 0003:0000e86c       ??_R0?AVexception@std@@@8  1016686c     Hooks.obj
 0003:0000e888       ??_R0?AVbad_cast@std@@@8   10166888     Utilities.obj
 0003:0000e8a4       ??_R0?AV?$basic_filebuf@DU?$char_traits@D@std@@@std@@@8 101668a4     Utilities.obj
 0003:0000e8e0       ??_R0?AV?$basic_streambuf@DU?$char_traits@D@std@@@std@@@8 101668e0     Utilities.obj
 0003:0000e91c       ??_R0?AV?$basic_ofstream@DU?$char_traits@D@std@@@std@@@8 1016691c     Utilities.obj
 0003:0000e958       ??_R0?AV?$basic_ostream@DU?$char_traits@D@std@@@std@@@8 10166958     Utilities.obj
 0003:0000e994       ??_R0?AV?$basic_ios@DU?$char_traits@D@std@@@std@@@8 10166994     Utilities.obj
 0003:0000e9cc       ??_R0?AVios_base@std@@@8   101669cc     Utilities.obj
 0003:0000e9e8       ??_R0?AV?$_Iosb@H@std@@@8  101669e8     Utilities.obj
 0003:0000ea04       ??_R0?AVCTraceFilterWorldAndPropsOnly@@@8 10166a04     GrenadePrediction.obj
 0003:0000ea30       ??_R0?AVtype_info@@@8      10166a30     MSVCRT:std_type_info_static.obj
 0003:0000ea48       ??_R0?AVbad_alloc@std@@@8  10166a48     MSVCRT:throw_bad_alloc.obj
 0003:0000ea64       ??_R0?AVbad_array_new_length@std@@@8 10166a64     MSVCRT:throw_bad_alloc.obj
 0003:0000ea90       ?g_CHLClient@@3PAVIBaseClientDLL@@A 10166a90     Interfaces.obj
 0003:0000ea94       ?g_Engine@@3PAVIVEngineClient@@A 10166a94     Interfaces.obj
 0003:0000ea98       ?g_Panel@@3PAVIPanel@@A    10166a98     Interfaces.obj
 0003:0000ea9c       ?g_EntityList@@3PAVC_BaseEntityList@@A 10166a9c     Interfaces.obj
 0003:0000eaa0       ?g_Surface@@3PAVISurface@@A 10166aa0     Interfaces.obj
 0003:0000eaa4       ?g_DebugOverlay@@3PAVIVDebugOverlay@@A 10166aa4     Interfaces.obj
 0003:0000eaa8       ?g_ClientMode@@3PAVIClientMode@@A 10166aa8     Interfaces.obj
 0003:0000eaac       ?g_Globals@@3PAVCGlobalVarsBase@@A 10166aac     Interfaces.obj
 0003:0000eab0       ?g_Prediction@@3PAVIPrediction@@A 10166ab0     Interfaces.obj
 0003:0000eab4       ?g_MaterialSystem@@3PAVCMaterialSystem@@A 10166ab4     Interfaces.obj
 0003:0000eab8       ?g_RenderView@@3PAVCVRenderView@@A 10166ab8     Interfaces.obj
 0003:0000eabc       ?g_ModelRender@@3PAVIVModelRender@@A 10166abc     Interfaces.obj
 0003:0000eac0       ?g_ModelInfo@@3PAVCModelInfo@@A 10166ac0     Interfaces.obj
 0003:0000eac4       ?g_EngineTrace@@3PAVIEngineTrace@@A 10166ac4     Interfaces.obj
 0003:0000eac8       ?g_PhysProps@@3PAVIPhysicsSurfaceProps@@A 10166ac8     Interfaces.obj
 0003:0000eacc       ?g_CVar@@3PAVICVar@@A      10166acc     Interfaces.obj
 0003:0000ead0       ?g_Dlight@@3PAVIVEffects@@A 10166ad0     Interfaces.obj
 0003:0000ead4       ?g_MoveHelper@@3PAVIMoveHelper@@A 10166ad4     Interfaces.obj
 0003:0000ead8       ?g_GameMovement@@3PAVIGameMovement@@A 10166ad8     Interfaces.obj
 0003:0000eadc       ?g_Input@@3PAVCInput@@A    10166adc     Interfaces.obj
 0003:0000eae0       ?g_EventManager@@3PAVIGameEventManager2@@A 10166ae0     Interfaces.obj
 0003:0000eae4       ?g_PlayerResource@@3PAVC_CSPlayerResource@@A 10166ae4     Interfaces.obj
 0003:0000eae8       ?g_GameRules@@3PAVC_CSGameRules@@A 10166ae8     Interfaces.obj
 0003:0000eaec       ?g_ViewRender@@3PAVIViewRender@@A 10166aec     Interfaces.obj
 0003:0000eaf0       ?g_GameConsole@@3PAVIGameConsole@@A 10166af0     Interfaces.obj
 0003:0000eaf4       ?g_MdlCache@@3PAVIMDLCache@@A 10166af4     Interfaces.obj
 0003:0000eaf8       ?g_ChatElement@@3PAVCHudChat@@A 10166af8     Interfaces.obj
 0003:0000eafc       ?g_GlowObjManager@@3PAVCGlowObjectManager@@A 10166afc     Interfaces.obj
 0003:0000eb30       ?Aimbotting@G@@3_NA        10166b30     Global.obj
 0003:0000eb31       ?InAntiAim@G@@3_NA         10166b31     Global.obj
 0003:0000eb32       ?Return@G@@3_NA            10166b32     Global.obj
 0003:0000eb33       ?d3dinit@G@@3_NA           10166b33     Global.obj
 0003:0000eb34       ?Dll@G@@3PAUHINSTANCE__@@A 10166b34     Global.obj
 0003:0000eb38       ?Window@G@@3PAUHWND__@@A   10166b38     Global.obj
 0003:0000eb3c       ?FOV@G@@3MA                10166b3c     Global.obj
 0003:0000eb40       ?PressedKeys@G@@3PA_NA     10166b40     Global.obj
 0003:0000ec40       ?AnimatedClantag@G@@3PADA  10166c40     Global.obj
 0003:0000ec50       ?buf3@G@@3PADA             10166c50     Global.obj
 0003:0000ecd0       ?extra_flags@G@@3DA        10166cd0     Global.obj
 0003:0000ecd1       ?menuon@G@@3_NA            10166cd1     Global.obj
 0003:0000ecd4       ?hitmarkeralpha@G@@3MA     10166cd4     Global.obj
 0003:0000ed18       ?_OptionsStorage@?1??__local_stdio_printf_options@@9@4_KA 10166d18     Chams.obj
 0003:0000ed58       ?m_flOldCurtime@@3MA       10166d58     EnginePrediction.obj
 0003:0000ed5c       ?m_flOldFrametime@@3MA     10166d5c     EnginePrediction.obj
 0003:0000ed60       ?m_pPredictionRandomSeed@@3PAHA 10166d60     EnginePrediction.obj
 0003:0000ed78       ?m_MoveData@@3VCMoveData@@A 10166d78     EnginePrediction.obj
 0003:00016ed0       ?shit@@3PADA               1016eed0     MiscFunctions.obj
 0003:00016ee0       ?shit2@@3PADA              1016eee0     MiscFunctions.obj
 0003:00016ef0       ?entCopy@@3PAVC_BaseEntity@@A 1016eef0     MiscFunctions.obj
 0003:00016f08       ?Trace@@3VCGameTrace@@A    1016ef08     MiscFunctions.obj
 0003:00016f90       ?oOnScreenSizeChanged@@3P6EXPAVISurface@@HH@ZA 1016ef90     Hooks.obj
 0003:00016f94       ?oFireEventClientSide@@3P6E_NPAXPAVIGameEvent@@@ZA 1016ef94     Hooks.obj
 0003:00016f98       ?Kills2@@3HA               1016ef98     Hooks.obj
 0003:00016f9c       ?Kills@@3HA                1016ef9c     Hooks.obj
 0003:00016fa0       ?RoundInfo@@3_NA           1016efa0     Hooks.obj
 0003:00016fa1       ?moveFlip@@3_NA            1016efa1     Hooks.obj
 0003:00016fa2       ?once1@@3_NA               1016efa2     Hooks.obj
 0003:00016fa3       ?shouldflip@Globals@@3_NA  1016efa3     Hooks.obj
 0003:00016fa4       ?Delay@@3IA                1016efa4     Hooks.obj
 0003:00016fa8       ?m_present@@3PAEA          1016efa8     Hooks.obj
 0003:00016fac       ?m_reset@@3PAEA            1016efac     Hooks.obj
 0003:00016fb0       ?d3d9_device@@3PAUIDirect3DDevice9@@A 1016efb0     Hooks.obj
 0003:00016fb4       ?oEndScene@@3P6GJPAUIDirect3DDevice9@@@ZA 1016efb4     Hooks.obj
 0003:00016fb8       ?oReset@@3P6GJPAUIDirect3DDevice9@@PAU_D3DPRESENT_PARAMETERS_@@@ZA 1016efb8     Hooks.obj
 0003:00016fbc       ?oPresent@@3P6GJPAXPBUtagRECT@@PAU1@PAUHWND__@@PAU_RGNDATA@@@ZA 1016efbc     Hooks.obj
 0003:00016fc0       ?oFindMDL@@3P6EGPAXPBD@ZA  1016efc0     Hooks.obj
 0003:00016fc4       ?lineLBY@@3MA              1016efc4     Hooks.obj
 0003:00016fc8       ?lineRealAngle@@3MA        1016efc8     Hooks.obj
 0003:00016fcc       ?lineFakeAngle@@3MA        1016efcc     Hooks.obj
 0003:00016fd0       ?LBY@Globals@@3MA          1016efd0     Hooks.obj
 0003:00016fd4       ?fDefault@@3PAUImFont@@A   1016efd4     Hooks.obj
 0003:00016fd8       ?fkek@@3PAUImFont@@A       1016efd8     Hooks.obj
 0003:00016fdc       ?iTab@@3HA                 1016efdc     Hooks.obj
 0003:00016fe0       ?flColor@@3PAMA            1016efe0     Hooks.obj
 0003:00016fec       ?flVColor@@3PAMA           1016efec     Hooks.obj
 0003:00016ff8       ?width1@@3HA               1016eff8     Hooks.obj
 0003:00016ffc       ?height1@@3HA              1016effc     Hooks.obj
 0003:00017000       ?Shots@Globals@@3HA        1016f000     Hooks.obj
 0003:00017004       ?missedshots@Globals@@3HA  1016f004     Hooks.obj
 0003:00017008       ?ySwitch@Globals@@3_NA     1016f008     Hooks.obj
 0003:00017009       ?error@Globals@@3_NA       1016f009     Hooks.obj
 0003:0001700c       ?NextTime@Globals@@3MA     1016f00c     Hooks.obj
 0003:00017010       ?OldSimulationTime@Globals@@3PAMA 1016f010     Hooks.obj
 0003:00017114       ?LocalPlayer@Globals@@3PAVC_BaseEntity@@A 1016f114     Hooks.obj
 0003:00017118       ?CurrentCmd@Globals@@3PAVCUserCmd@CInput@@A 1016f118     Hooks.obj
 0003:0001711c       ?modelrender@hooks@@3Vvfunc_hook@@A 1016f11c     Hooks.obj
 0003:0001712c       ?prediction@hooks@@3Vvfunc_hook@@A 1016f12c     Hooks.obj
 0003:0001713c       ?eventmanager@hooks@@3Vvfunc_hook@@A 1016f13c     Hooks.obj
 0003:0001714c       ?d3d@hooks@@3Vvfunc_hook@@A 1016f14c     Hooks.obj
 0003:00017164       ?clientmode@hooks@@3Vvfunc_hook@@A 1016f164     Hooks.obj
 0003:00017174       ?panel@hooks@@3Vvfunc_hook@@A 1016f174     Hooks.obj
 0003:00017184       ?qLastTickAngles@@3VVector@@A 1016f184     Hooks.obj
 0003:0001719c       ?engine@hooks@@3Vvfunc_hook@@A 1016f19c     Hooks.obj
 0003:000171ac       ?sv_cheats@hooks@@3Vvfunc_hook@@A 1016f1ac     Hooks.obj
 0003:000171bc       ?viewrender@hooks@@3Vvfunc_hook@@A 1016f1bc     Hooks.obj
 0003:000171cc       ?surface@hooks@@3Vvfunc_hook@@A 1016f1cc     Hooks.obj
 0003:000171dc       ?client@hooks@@3Vvfunc_hook@@A 1016f1dc     Hooks.obj
 0003:000171ec       ?dwCAM_Think@@3PAEA        1016f1ec     Hooks.obj
 0003:000171f8       ?listeners@Globals@@3V?$vector@PAVIGameEventListener2@@V?$allocator@PAVIGameEventListener2@@@std@@@std@@A 1016f1f8     Hooks.obj
 0003:00017204       ?AimPoint@Globals@@3VVector@@A 1016f204     Hooks.obj
 0003:00017210       ?ServerRankRevealAll@?4??RankReveal@@YAXPAVCUserCmd@CInput@@@Z@4P6A_NPAH@ZA 1016f210     Hooks.obj
 0003:00017214       ?$TSS0@?4??RankReveal@@YAXPAVCUserCmd@CInput@@@Z@4HA 1016f214     Hooks.obj
 0003:00017218       ?fArray@?7??RankReveal@@YAXPAVCUserCmd@CInput@@@Z@4PAHA 1016f218     Hooks.obj
 0003:000172e0       ?inst@?1??instance@?$singleton@Vvisuals@@@@SAAAVvisuals@@XZ@4V3@A 1016f2e0     Hooks.obj
 0003:000172e4       ?$TSS0@?1??instance@?$singleton@Vvisuals@@@@SAAAVvisuals@@XZ@4HA 1016f2e4     Hooks.obj
 0003:000172e8       ?inst@?1??instance@?$singleton@Vgrenade_prediction@@@@SAAAVgrenade_prediction@@XZ@4V3@A 1016f2e8     Hooks.obj
 0003:000172fc       ?$TSS0@?1??instance@?$singleton@Vgrenade_prediction@@@@SAAAVgrenade_prediction@@XZ@4HA 1016f2fc     Hooks.obj
 0003:00017300       ?inst@?1??instance@?$singleton@Vmisc@@@@SAAAVmisc@@XZ@4V3@A 1016f300     Hooks.obj
 0003:00017304       ?$TSS0@?1??instance@?$singleton@Vmisc@@@@SAAAVmisc@@XZ@4HA 1016f304     Hooks.obj
 0003:00017308       ?width@@3HA                1016f308     ESP.obj
 0003:0001730c       ?height@@3HA               1016f30c     ESP.obj
 0003:00017310       ?done@@3_NA                1016f310     ESP.obj
 0003:00017314       ?damage@@3MA               1016f314     ESP.obj
 0003:00017318       ?bombdamagestringdead@@3PADA 1016f318     ESP.obj
 0003:00017330       ?bombdamagestringalive@@3PADA 1016f330     ESP.obj
 0003:00017380       ?offsetz@@3UCOffsetz@@A    1016f380     Offsets.obj
 0003:000176cc       ?g_Netvars@@3PAVOffsetz@@A 1016f6cc     Offsets.obj
 0003:00017708       _sqlite3_temp_directory    1016f708     sqlite3.obj
 0003:0001770c       _sqlite3_data_directory    1016f70c     sqlite3.obj
 0003:00017aec       ?game_wndproc@@3P6GJPAUHWND__@@IIJ@ZA 1016faec     Renderer.obj
 0003:00017af0       ?renderer@@3PAVRenderer@@A 1016faf0     Renderer.obj
 0003:00017af8       ?_OptionsStorage@?1??__local_stdio_scanf_options@@9@4_KA 1016faf8     imgui.obj
 0003:0001b4fc       ?backtracking@@3PAVBackTrack@@A 101734fc     LagComp.obj
 0003:0001b508       ?headPositions@@3PAY0M@UbacktrackData@@A 10173508     LagComp.obj
 0003:00020454       ?Config@@3PAVCConfig@@A    10178454     Configuration.obj
 0003:00020458       ?g_Options@@3UVariables@@A 10178458     Configuration.obj
 0003:000208b8       ?unload@@3_NA              101788b8     DLLMain.obj
 0003:000208c0       ?szFileSys@@3PAEA          101788c0     DLLMain.obj
 0003:000209c0       ?szVolNameBuff@@3PAEA      101789c0     DLLMain.obj
 0003:00020ac0       ?dwMFL@@3KA                10178ac0     DLLMain.obj
 0003:00020ac4       ?dwSysFlags@@3KA           10178ac4     DLLMain.obj
 0003:00020ac8       ?dwSerial@@3KA             10178ac8     DLLMain.obj
 0003:00020acc       ?OriginalSleep@@3P6GXK@ZA  10178acc     DLLMain.obj
 0003:00020ad8       ?OriginalSleepEx@@3P6GKKH@ZA 10178ad8     DLLMain.obj
 0003:00020b0c       ?NetVarManager@@3PAVCNetVarManager@@A 10178b0c     NetVarManager.obj
 0003:00020b10       ?FileLog@@3_NA             10178b10     Utilities.obj
 0003:00020b18       ?logFile@@3V?$basic_ofstream@DU?$char_traits@D@std@@@std@@A 10178b18     Utilities.obj
 0003:00020bd8       ?_Stinit@?1??_Init@?$basic_filebuf@DU?$char_traits@D@std@@@std@@IAEXPAU_iobuf@@W4_Initfl@23@@Z@4U_Mbstatet@@A 10178bd8     Utilities.obj
 0003:00020be0       ?_Psave@?$_Facetptr@V?$codecvt@DDU_Mbstatet@@@std@@@std@@2PBVfacet@locale@2@B 10178be0     Utilities.obj
 0003:00020be4       ?fnSequenceProxyFn@@3P6AXPBVCRecvProxyData@@PAX1@ZA 10178be4     recvproxy.obj
 0003:00020be8       ?oRecvnModelIndex@@3P6AXPBVCRecvProxyData@@PAX1@ZA 10178be8     recvproxy.obj
 0003:00020bec       ?fnNoSmoke@@3P6AXPBVCRecvProxyData@@PAX1@ZA 10178bec     recvproxy.obj
 0003:00020c30       ?g_Render@@3PAVRender@@A   10178c30     Render.obj
 0003:00021450       ?iLastTime@@3HA            10179450     Misc.obj
 0003:00021454       ?bDone@@3_NA               10179454     Misc.obj
 0003:00021498       ___scrt_current_native_startup_state 10179498     MSVCRT:utility.obj
 0003:0002149c       ___scrt_native_startup_lock 1017949c     MSVCRT:utility.obj
 0003:000214e4       __tls_index                101794e4     MSVCRT:tlssup.obj
 0003:000214ec       ___isa_available           101794ec     MSVCRT:_cpu_disp_.obj
 0003:000214f0       ___favor                   101794f0     MSVCRT:_cpu_disp_.obj
 0003:000214f4       ___scrt_debugger_hook_flag 101794f4     MSVCRT:utility_desktop.obj
 0003:000214f8       ?__type_info_root_node@@3U__type_info_node@@A 101794f8     MSVCRT:tncleanup.obj
 0003:0002181c       ___dyn_tls_init_callback   1017981c     <common>
 0004:00000000       ?s_rceCopyTable@CDetourDisX64@@1QBUCOPYENTRY@1@B 1017a000     disolx64.obj
 0004:00000808       ?s_rceCopyTable0F@CDetourDisX64@@1QBUCOPYENTRY@1@B 1017a808     disolx64.obj
 0004:00001010       ?s_rbModRm@CDetourDisX64@@1QBEB 1017b010     disolx64.obj
 0004:00001180       ?s_rceCopyTable@CDetourDisX86@@1QBUCOPYENTRY@1@B 1017b180     disolx86.obj
 0004:00001988       ?s_rceCopyTable0F@CDetourDisX86@@1QBUCOPYENTRY@1@B 1017b988     disolx86.obj
 0004:00002190       ?s_rbModRm@CDetourDisX86@@1QBEB 1017c190     disolx86.obj
 0004:00002310       ?s_rceCopyTable@CDetourDis@@1QBUCOPYENTRY@1@B 1017c310     disasm.obj
 0004:00002b18       ?s_rceCopyTable0F@CDetourDis@@1QBUCOPYENTRY@1@B 1017cb18     disasm.obj
 0004:00003320       ?s_rbModRm@CDetourDis@@1QBEB 1017d320     disasm.obj
 0004:000034a0       ?s_rceCopyTable@CDetourDisARM@@1QBUCOPYENTRY@1@B 1017d4a0     disolarm.obj
 0004:000035a8       ?s_rceCopyTable@DETOUR_IA64_BUNDLE@@1QBUDETOUR_IA64_METADATA@1@B 1017d5a8     disolia64.obj
 0005:00000000       ?s_pbModuleBeg@CDetourDisX64@@1PAEA 1017e000     disolx64.obj
 0005:00000004       ?s_pbModuleEnd@CDetourDisX64@@1PAEA 1017e004     disolx64.obj
 0005:00000008       ?s_fLimitReferencesToModule@CDetourDisX64@@1HA 1017e008     disolx64.obj
 0005:0000000c       ?s_pbModuleBeg@CDetourDisX86@@1PAEA 1017e00c     disolx86.obj
 0005:00000010       ?s_pbModuleEnd@CDetourDisX86@@1PAEA 1017e010     disolx86.obj
 0005:00000014       ?s_fLimitReferencesToModule@CDetourDisX86@@1HA 1017e014     disolx86.obj
 0005:00000018       ?s_pbModuleBeg@CDetourDis@@1PAEA 1017e018     disasm.obj
 0005:0000001c       ?s_pbModuleEnd@CDetourDis@@1PAEA 1017e01c     disasm.obj
 0005:00000020       ?s_fLimitReferencesToModule@CDetourDis@@1HA 1017e020     disasm.obj

 entry point at        0001:00124379

 Static symbols

 0000:ffe75000       .debug$S                   10000000     kernel32:KERNEL32.dll
 0000:ffe75000       .debug$S                   10000000     kernel32:KERNEL32.dll
 0000:ffe75000       .debug$S                   10000000     kernel32:KERNEL32.dll
 0000:ffe75000       .debug$S                   10000000     kernel32:KERNEL32.dll
 0000:ffe75000       .debug$S                   10000000     kernel32:KERNEL32.dll
 0000:ffe75000       .debug$S                   10000000     kernel32:KERNEL32.dll
 0000:ffe75000       .debug$S                   10000000     kernel32:KERNEL32.dll
 0000:ffe75000       .debug$S                   10000000     kernel32:KERNEL32.dll
 0000:ffe75000       .debug$S                   10000000     kernel32:KERNEL32.dll
 0000:ffe75000       .debug$S                   10000000     kernel32:KERNEL32.dll
 0000:ffe75000       .debug$S                   10000000     kernel32:KERNEL32.dll
 0000:ffe75000       .debug$S                   10000000     kernel32:KERNEL32.dll
 0000:ffe75000       .debug$S                   10000000     kernel32:KERNEL32.dll
 0000:ffe75000       .debug$S                   10000000     kernel32:KERNEL32.dll
 0000:ffe75000       .debug$S                   10000000     kernel32:KERNEL32.dll
 0000:ffe75000       .debug$S                   10000000     kernel32:KERNEL32.dll
 0000:ffe75000       .debug$S                   10000000     kernel32:KERNEL32.dll
 0000:ffe75000       .debug$S                   10000000     kernel32:KERNEL32.dll
 0000:ffe75000       .debug$S                   10000000     kernel32:KERNEL32.dll
 0000:ffe75000       .debug$S                   10000000     kernel32:KERNEL32.dll
 0000:ffe75000       .debug$S                   10000000     ucrt:api-ms-win-crt-runtime-l1-1-0.dll
 0000:ffe75000       .debug$S                   10000000     ucrt:api-ms-win-crt-runtime-l1-1-0.dll
 0000:ffe75000       .debug$S                   10000000     ucrt:api-ms-win-crt-runtime-l1-1-0.dll
 0000:ffe75000       .debug$S                   10000000     ucrt:api-ms-win-crt-math-l1-1-0.dll
 0000:ffe75000       .debug$S                   10000000     ucrt:api-ms-win-crt-runtime-l1-1-0.dll
 0000:ffe75000       .debug$S                   10000000     ucrt:api-ms-win-crt-runtime-l1-1-0.dll
 0000:ffe75000       .debug$S                   10000000     ucrt:api-ms-win-crt-runtime-l1-1-0.dll
 0000:ffe75000       .debug$S                   10000000     ucrt:api-ms-win-crt-runtime-l1-1-0.dll
 0000:ffe75000       .debug$S                   10000000     ucrt:api-ms-win-crt-runtime-l1-1-0.dll
 0000:ffe75000       .debug$S                   10000000     ucrt:api-ms-win-crt-runtime-l1-1-0.dll
 0000:ffe75000       .debug$S                   10000000     ucrt:api-ms-win-crt-runtime-l1-1-0.dll
 0000:ffe75000       .debug$S                   10000000     ucrt:api-ms-win-crt-runtime-l1-1-0.dll
 0000:ffe75000       .debug$S                   10000000     ucrt:api-ms-win-crt-runtime-l1-1-0.dll
 0000:ffe75000       .debug$S                   10000000     ucrt:api-ms-win-crt-heap-l1-1-0.dll
 0000:ffe75000       .debug$S                   10000000     ucrt:api-ms-win-crt-math-l1-1-0.dll
 0000:ffe75000       .debug$S                   10000000     ucrt:api-ms-win-crt-math-l1-1-0.dll
 0000:ffe75000       .debug$S                   10000000     ucrt:api-ms-win-crt-math-l1-1-0.dll
 0000:ffe75000       .debug$S                   10000000     ucrt:api-ms-win-crt-stdio-l1-1-0.dll
 0000:ffe75000       .debug$S                   10000000     ucrt:api-ms-win-crt-convert-l1-1-0.dll
 0000:ffe75000       .debug$S                   10000000     ucrt:api-ms-win-crt-string-l1-1-0.dll
 0000:ffe75000       .debug$S                   10000000     ucrt:api-ms-win-crt-time-l1-1-0.dll
 0000:ffe75000       .debug$S                   10000000     ucrt:api-ms-win-crt-time-l1-1-0.dll
 0000:ffe75000       .debug$S                   10000000     ucrt:api-ms-win-crt-time-l1-1-0.dll
 0000:ffe75000       .debug$S                   10000000     ucrt:api-ms-win-crt-filesystem-l1-1-0.dll
 0000:ffe75000       .debug$S                   10000000     ucrt:api-ms-win-crt-filesystem-l1-1-0.dll
 0000:ffe75000       .debug$S                   10000000     ucrt:api-ms-win-crt-stdio-l1-1-0.dll
 0000:ffe75000       .debug$S                   10000000     ucrt:api-ms-win-crt-stdio-l1-1-0.dll
 0000:ffe75000       .debug$S                   10000000     ucrt:api-ms-win-crt-stdio-l1-1-0.dll
 0000:ffe75000       .debug$S                   10000000     ucrt:api-ms-win-crt-stdio-l1-1-0.dll
 0000:ffe75000       .debug$S                   10000000     ucrt:api-ms-win-crt-stdio-l1-1-0.dll
 0000:ffe75000       .debug$S                   10000000     ucrt:api-ms-win-crt-stdio-l1-1-0.dll
 0000:ffe75000       .debug$S                   10000000     ucrt:api-ms-win-crt-convert-l1-1-0.dll
 0000:ffe75000       .debug$S                   10000000     ucrt:api-ms-win-crt-runtime-l1-1-0.dll
 0000:ffe75000       .debug$S                   10000000     ucrt:api-ms-win-crt-string-l1-1-0.dll
 0000:ffe75000       .debug$S                   10000000     ucrt:api-ms-win-crt-convert-l1-1-0.dll
 0000:ffe75000       .debug$S                   10000000     ucrt:api-ms-win-crt-math-l1-1-0.dll
 0000:ffe75000       .debug$S                   10000000     ucrt:api-ms-win-crt-math-l1-1-0.dll
 0000:ffe75000       .debug$S                   10000000     ucrt:api-ms-win-crt-math-l1-1-0.dll
 0000:ffe75000       .debug$S                   10000000     ucrt:api-ms-win-crt-utility-l1-1-0.dll
 0000:ffe75000       .debug$S                   10000000     ucrt:api-ms-win-crt-string-l1-1-0.dll
 0000:ffe75000       .debug$S                   10000000     ucrt:api-ms-win-crt-math-l1-1-0.dll
 0000:ffe75000       .debug$S                   10000000     ucrt:api-ms-win-crt-math-l1-1-0.dll
 0000:ffe75000       .debug$S                   10000000     ucrt:api-ms-win-crt-math-l1-1-0.dll
 0000:ffe75000       .debug$S                   10000000     ucrt:api-ms-win-crt-stdio-l1-1-0.dll
 0000:ffe75000       .debug$S                   10000000     ucrt:api-ms-win-crt-stdio-l1-1-0.dll
 0000:ffe75000       .debug$S                   10000000     ucrt:api-ms-win-crt-string-l1-1-0.dll
 0000:ffe75000       .debug$S                   10000000     ucrt:api-ms-win-crt-runtime-l1-1-0.dll
 0000:ffe75000       .debug$S                   10000000     ucrt:api-ms-win-crt-runtime-l1-1-0.dll
 0000:ffe75000       .debug$S                   10000000     ucrt:api-ms-win-crt-time-l1-1-0.dll
 0000:ffe75000       .debug$S                   10000000     ucrt:api-ms-win-crt-string-l1-1-0.dll
 0000:ffe75000       .debug$S                   10000000     ucrt:api-ms-win-crt-heap-l1-1-0.dll
 0000:ffe75000       .debug$S                   10000000     ucrt:api-ms-win-crt-stdio-l1-1-0.dll
 0000:ffe75000       .debug$S                   10000000     ucrt:api-ms-win-crt-math-l1-1-0.dll
 0000:ffe75000       .debug$S                   10000000     ucrt:api-ms-win-crt-math-l1-1-0.dll
 0000:ffe75000       .debug$S                   10000000     ucrt:api-ms-win-crt-math-l1-1-0.dll
 0000:ffe75000       .debug$S                   10000000     ucrt:api-ms-win-crt-utility-l1-1-0.dll
 0000:ffe75000       .debug$S                   10000000     ucrt:api-ms-win-crt-filesystem-l1-1-0.dll
 0000:ffe75000       .debug$S                   10000000     ucrt:api-ms-win-crt-filesystem-l1-1-0.dll
 0000:ffe75000       .debug$S                   10000000     ucrt:api-ms-win-crt-filesystem-l1-1-0.dll
 0000:ffe75000       .debug$S                   10000000     ucrt:api-ms-win-crt-stdio-l1-1-0.dll
 0000:ffe75000       .debug$S                   10000000     ucrt:api-ms-win-crt-stdio-l1-1-0.dll
 0000:ffe75000       .debug$S                   10000000     ucrt:api-ms-win-crt-filesystem-l1-1-0.dll
 0000:ffe75000       .debug$S                   10000000     ucrt:api-ms-win-crt-filesystem-l1-1-0.dll
 0000:ffe75000       .debug$S                   10000000     ucrt:api-ms-win-crt-filesystem-l1-1-0.dll
 0000:ffe75000       .debug$S                   10000000     ucrt:api-ms-win-crt-filesystem-l1-1-0.dll
 0000:ffe75000       .debug$S                   10000000     ucrt:api-ms-win-crt-filesystem-l1-1-0.dll
 0000:ffe75000       .debug$S                   10000000     ucrt:api-ms-win-crt-string-l1-1-0.dll
 0000:ffe75000       .debug$S                   10000000     ucrt:api-ms-win-crt-string-l1-1-0.dll
 0000:ffe75000       .debug$S                   10000000     ucrt:api-ms-win-crt-string-l1-1-0.dll
 0000:ffe75000       .debug$S                   10000000     ucrt:api-ms-win-crt-string-l1-1-0.dll
 0000:ffe75000       .debug$S                   10000000     ucrt:api-ms-win-crt-string-l1-1-0.dll
 0000:ffe75000       .debug$S                   10000000     ucrt:api-ms-win-crt-string-l1-1-0.dll
 0000:ffe75000       .debug$S                   10000000     ucrt:api-ms-win-crt-stdio-l1-1-0.dll
 0000:ffe75000       .debug$S                   10000000     ucrt:api-ms-win-crt-stdio-l1-1-0.dll
 0000:ffe75000       .debug$S                   10000000     ucrt:api-ms-win-crt-stdio-l1-1-0.dll
 0000:ffe75000       .debug$S                   10000000     ucrt:api-ms-win-crt-stdio-l1-1-0.dll
 0000:ffe75000       .debug$S                   10000000     ucrt:api-ms-win-crt-filesystem-l1-1-0.dll
 0000:ffe75000       .debug$S                   10000000     ucrt:api-ms-win-crt-stdio-l1-1-0.dll
 0000:ffe75000       .debug$S                   10000000     ucrt:api-ms-win-crt-stdio-l1-1-0.dll
 0000:ffe75000       .debug$S                   10000000     ucrt:api-ms-win-crt-stdio-l1-1-0.dll
 0000:ffe75000       .debug$S                   10000000     ucrt:api-ms-win-crt-stdio-l1-1-0.dll
 0000:ffe75000       .debug$S                   10000000     ucrt:api-ms-win-crt-stdio-l1-1-0.dll
 0000:ffe75000       .debug$S                   10000000     ucrt:api-ms-win-crt-stdio-l1-1-0.dll
 0000:ffe75000       .debug$S                   10000000     ucrt:api-ms-win-crt-stdio-l1-1-0.dll
 0000:ffe75000       .debug$S                   10000000     ucrt:api-ms-win-crt-stdio-l1-1-0.dll
 0000:ffe75000       .debug$S                   10000000     ucrt:api-ms-win-crt-stdio-l1-1-0.dll
 0000:ffe75000       .debug$S                   10000000     ucrt:api-ms-win-crt-stdio-l1-1-0.dll
 0000:ffe75000       .debug$S                   10000000     ucrt:api-ms-win-crt-stdio-l1-1-0.dll
 0000:ffe75000       .debug$S                   10000000     ucrt:api-ms-win-crt-stdio-l1-1-0.dll
 0000:ffe75000       .debug$S                   10000000     ucrt:api-ms-win-crt-stdio-l1-1-0.dll
 0000:ffe75000       .debug$S                   10000000     ucrt:api-ms-win-crt-stdio-l1-1-0.dll
 0000:ffe75000       .debug$S                   10000000     ucrt:api-ms-win-crt-stdio-l1-1-0.dll
 0000:ffe75000       .debug$S                   10000000     ucrt:api-ms-win-crt-string-l1-1-0.dll
 0000:ffe75000       .debug$S                   10000000     ucrt:api-ms-win-crt-string-l1-1-0.dll
 0000:ffe75000       .debug$S                   10000000     ucrt:api-ms-win-crt-string-l1-1-0.dll
 0000:ffe75000       .debug$S                   10000000     ucrt:api-ms-win-crt-runtime-l1-1-0.dll
 0000:ffe75000       .debug$S                   10000000     ucrt:api-ms-win-crt-environment-l1-1-0.dll
 0000:ffe75000       .debug$S                   10000000     ucrt:api-ms-win-crt-convert-l1-1-0.dll
 0000:ffe75000       .debug$S                   10000000     ucrt:api-ms-win-crt-convert-l1-1-0.dll
 0000:ffe75000       .debug$S                   10000000     ucrt:api-ms-win-crt-runtime-l1-1-0.dll
 0000:ffe75000       .debug$S                   10000000     ucrt:api-ms-win-crt-runtime-l1-1-0.dll
 0000:ffe75000       .debug$S                   10000000     ucrt:api-ms-win-crt-heap-l1-1-0.dll
 0000:ffe75000       .debug$S                   10000000     ucrt:api-ms-win-crt-heap-l1-1-0.dll
 0000:ffe75000       .debug$S                   10000000     ucrt:api-ms-win-crt-stdio-l1-1-0.dll
 0000:ffe75000       .debug$S                   10000000     ucrt:api-ms-win-crt-heap-l1-1-0.dll
 0000:ffe75000       .debug$S                   10000000     ucrt:api-ms-win-crt-string-l1-1-0.dll
 0000:ffe75000       .debug$S                   10000000     ucrt:api-ms-win-crt-runtime-l1-1-0.dll
 0000:ffe75000       .debug$S                   10000000     kernel32:KERNEL32.dll
 0000:ffe75000       .debug$S                   10000000     vcruntime:VCRUNTIME140.dll
 0000:ffe75000       .debug$S                   10000000     vcruntime:VCRUNTIME140.dll
 0000:ffe75000       .debug$S                   10000000     vcruntime:VCRUNTIME140.dll
 0000:ffe75000       .debug$S                   10000000     vcruntime:VCRUNTIME140.dll
 0000:ffe75000       .debug$S                   10000000     vcruntime:VCRUNTIME140.dll
 0000:ffe75000       .debug$S                   10000000     vcruntime:VCRUNTIME140.dll
 0000:ffe75000       .debug$S                   10000000     vcruntime:VCRUNTIME140.dll
 0000:ffe75000       .debug$S                   10000000     vcruntime:VCRUNTIME140.dll
 0000:ffe75000       .debug$S                   10000000     vcruntime:VCRUNTIME140.dll
 0000:ffe75000       .debug$S                   10000000     vcruntime:VCRUNTIME140.dll
 0000:ffe75000       .debug$S                   10000000     vcruntime:VCRUNTIME140.dll
 0000:ffe75000       .debug$S                   10000000     vcruntime:VCRUNTIME140.dll
 0000:ffe75000       .debug$S                   10000000     vcruntime:VCRUNTIME140.dll
 0000:ffe75000       .debug$S                   10000000     vcruntime:VCRUNTIME140.dll
 0000:ffe75000       .debug$S                   10000000     vcruntime:VCRUNTIME140.dll
 0000:ffe75000       .debug$S                   10000000     kernel32:KERNEL32.dll
 0000:ffe75000       .debug$S                   10000000     imm32:IMM32.dll
 0000:ffe75000       .debug$S                   10000000     imm32:IMM32.dll
 0000:ffe75000       .debug$S                   10000000     kernel32:KERNEL32.dll
 0000:ffe75000       .debug$S                   10000000     kernel32:KERNEL32.dll
 0000:ffe75000       .debug$S                   10000000     kernel32:KERNEL32.dll
 0000:ffe75000       .debug$S                   10000000     kernel32:KERNEL32.dll
 0000:ffe75000       .debug$S                   10000000     kernel32:KERNEL32.dll
 0000:ffe75000       .debug$S                   10000000     kernel32:KERNEL32.dll
 0000:ffe75000       .debug$S                   10000000     kernel32:KERNEL32.dll
 0000:ffe75000       .debug$S                   10000000     kernel32:KERNEL32.dll
 0000:ffe75000       .debug$S                   10000000     kernel32:KERNEL32.dll
 0000:ffe75000       .debug$S                   10000000     kernel32:KERNEL32.dll
 0000:ffe75000       .debug$S                   10000000     kernel32:KERNEL32.dll
 0000:ffe75000       .debug$S                   10000000     kernel32:KERNEL32.dll
 0000:ffe75000       .debug$S                   10000000     kernel32:KERNEL32.dll
 0000:ffe75000       .debug$S                   10000000     kernel32:KERNEL32.dll
 0000:ffe75000       .debug$S                   10000000     kernel32:KERNEL32.dll
 0000:ffe75000       .debug$S                   10000000     kernel32:KERNEL32.dll
 0000:ffe75000       .debug$S                   10000000     kernel32:KERNEL32.dll
 0000:ffe75000       .debug$S                   10000000     kernel32:KERNEL32.dll
 0000:ffe75000       .debug$S                   10000000     kernel32:KERNEL32.dll
 0000:ffe75000       .debug$S                   10000000     kernel32:KERNEL32.dll
 0000:ffe75000       .debug$S                   10000000     kernel32:KERNEL32.dll
 0000:ffe75000       .debug$S                   10000000     kernel32:KERNEL32.dll
 0000:ffe75000       .debug$S                   10000000     kernel32:KERNEL32.dll
 0000:ffe75000       .debug$S                   10000000     kernel32:KERNEL32.dll
 0000:ffe75000       .debug$S                   10000000     kernel32:KERNEL32.dll
 0000:ffe75000       .debug$S                   10000000     kernel32:KERNEL32.dll
 0000:ffe75000       .debug$S                   10000000     kernel32:KERNEL32.dll
 0000:ffe75000       .debug$S                   10000000     kernel32:KERNEL32.dll
 0000:ffe75000       .debug$S                   10000000     kernel32:KERNEL32.dll
 0000:ffe75000       .debug$S                   10000000     kernel32:KERNEL32.dll
 0000:ffe75000       .debug$S                   10000000     kernel32:KERNEL32.dll
 0000:ffe75000       .debug$S                   10000000     kernel32:KERNEL32.dll
 0000:ffe75000       .debug$S                   10000000     kernel32:KERNEL32.dll
 0000:ffe75000       .debug$S                   10000000     kernel32:KERNEL32.dll
 0000:ffe75000       .debug$S                   10000000     kernel32:KERNEL32.dll
 0000:ffe75000       .debug$S                   10000000     kernel32:KERNEL32.dll
 0000:ffe75000       .debug$S                   10000000     kernel32:KERNEL32.dll
 0000:ffe75000       .debug$S                   10000000     kernel32:KERNEL32.dll
 0000:ffe75000       .debug$S                   10000000     kernel32:KERNEL32.dll
 0000:ffe75000       .debug$S                   10000000     kernel32:KERNEL32.dll
 0000:ffe75000       .debug$S                   10000000     kernel32:KERNEL32.dll
 0000:ffe75000       .debug$S                   10000000     kernel32:KERNEL32.dll
 0000:ffe75000       .debug$S                   10000000     kernel32:KERNEL32.dll
 0000:ffe75000       .debug$S                   10000000     kernel32:KERNEL32.dll
 0000:ffe75000       .debug$S                   10000000     kernel32:KERNEL32.dll
 0000:ffe75000       .debug$S                   10000000     kernel32:KERNEL32.dll
 0000:ffe75000       .debug$S                   10000000     kernel32:KERNEL32.dll
 0000:ffe75000       .debug$S                   10000000     kernel32:KERNEL32.dll
 0000:ffe75000       .debug$S                   10000000     kernel32:KERNEL32.dll
 0000:ffe75000       .debug$S                   10000000     kernel32:KERNEL32.dll
 0000:ffe75000       .debug$S                   10000000     kernel32:KERNEL32.dll
 0000:ffe75000       .debug$S                   10000000     kernel32:KERNEL32.dll
 0000:ffe75000       .debug$S                   10000000     kernel32:KERNEL32.dll
 0000:ffe75000       .debug$S                   10000000     kernel32:KERNEL32.dll
 0000:ffe75000       .debug$S                   10000000     kernel32:KERNEL32.dll
 0000:ffe75000       .debug$S                   10000000     kernel32:KERNEL32.dll
 0000:ffe75000       .debug$S                   10000000     kernel32:KERNEL32.dll
 0000:ffe75000       .debug$S                   10000000     kernel32:KERNEL32.dll
 0000:ffe75000       .debug$S                   10000000     kernel32:KERNEL32.dll
 0000:ffe75000       .debug$S                   10000000     kernel32:KERNEL32.dll
 0000:ffe75000       .debug$S                   10000000     kernel32:KERNEL32.dll
 0000:ffe75000       .debug$S                   10000000     kernel32:KERNEL32.dll
 0000:ffe75000       .debug$S                   10000000     msvcprt:MSVCP140.dll
 0000:ffe75000       .debug$S                   10000000     msvcprt:MSVCP140.dll
 0000:ffe75000       .debug$S                   10000000     msvcprt:MSVCP140.dll
 0000:ffe75000       .debug$S                   10000000     msvcprt:MSVCP140.dll
 0000:ffe75000       .debug$S                   10000000     msvcprt:MSVCP140.dll
 0000:ffe75000       .debug$S                   10000000     msvcprt:MSVCP140.dll
 0000:ffe75000       .debug$S                   10000000     msvcprt:MSVCP140.dll
 0000:ffe75000       .debug$S                   10000000     msvcprt:MSVCP140.dll
 0000:ffe75000       .debug$S                   10000000     msvcprt:MSVCP140.dll
 0000:ffe75000       .debug$S                   10000000     msvcprt:MSVCP140.dll
 0000:ffe75000       .debug$S                   10000000     msvcprt:MSVCP140.dll
 0000:ffe75000       .debug$S                   10000000     msvcprt:MSVCP140.dll
 0000:ffe75000       .debug$S                   10000000     msvcprt:MSVCP140.dll
 0000:ffe75000       .debug$S                   10000000     msvcprt:MSVCP140.dll
 0000:ffe75000       .debug$S                   10000000     msvcprt:MSVCP140.dll
 0000:ffe75000       .debug$S                   10000000     msvcprt:MSVCP140.dll
 0000:ffe75000       .debug$S                   10000000     msvcprt:MSVCP140.dll
 0000:ffe75000       .debug$S                   10000000     msvcprt:MSVCP140.dll
 0000:ffe75000       .debug$S                   10000000     msvcprt:MSVCP140.dll
 0000:ffe75000       .debug$S                   10000000     msvcprt:MSVCP140.dll
 0000:ffe75000       .debug$S                   10000000     msvcprt:MSVCP140.dll
 0000:ffe75000       .debug$S                   10000000     msvcprt:MSVCP140.dll
 0000:ffe75000       .debug$S                   10000000     msvcprt:MSVCP140.dll
 0000:ffe75000       .debug$S                   10000000     msvcprt:MSVCP140.dll
 0000:ffe75000       .debug$S                   10000000     msvcprt:MSVCP140.dll
 0000:ffe75000       .debug$S                   10000000     msvcprt:MSVCP140.dll
 0000:ffe75000       .debug$S                   10000000     msvcprt:MSVCP140.dll
 0000:ffe75000       .debug$S                   10000000     msvcprt:MSVCP140.dll
 0000:ffe75000       .debug$S                   10000000     msvcprt:MSVCP140.dll
 0000:ffe75000       .debug$S                   10000000     msvcprt:MSVCP140.dll
 0000:ffe75000       .debug$S                   10000000     msvcprt:MSVCP140.dll
 0000:ffe75000       .debug$S                   10000000     msvcprt:MSVCP140.dll
 0000:ffe75000       .debug$S                   10000000     msvcprt:MSVCP140.dll
 0000:ffe75000       .debug$S                   10000000     msvcprt:MSVCP140.dll
 0000:ffe75000       .debug$S                   10000000     msvcprt:MSVCP140.dll
 0000:ffe75000       .debug$S                   10000000     msvcprt:MSVCP140.dll
 0000:ffe75000       .debug$S                   10000000     msvcprt:MSVCP140.dll
 0000:ffe75000       .debug$S                   10000000     msvcprt:MSVCP140.dll
 0000:ffe75000       .debug$S                   10000000     msvcprt:MSVCP140.dll
 0000:ffe75000       .debug$S                   10000000     msvcprt:MSVCP140.dll
 0000:ffe75000       .debug$S                   10000000     msvcprt:MSVCP140.dll
 0000:ffe75000       .debug$S                   10000000     msvcprt:MSVCP140.dll
 0000:ffe75000       .debug$S                   10000000     msvcprt:MSVCP140.dll
 0000:ffe75000       .debug$S                   10000000     msvcprt:MSVCP140.dll
 0000:ffe75000       .debug$S                   10000000     msvcprt:MSVCP140.dll
 0000:ffe75000       .debug$S                   10000000     msvcprt:MSVCP140.dll
 0000:ffe75000       .debug$S                   10000000     msvcprt:MSVCP140.dll
 0000:ffe75000       .debug$S                   10000000     kernel32:KERNEL32.dll
 0000:ffe75000       .debug$S                   10000000     kernel32:KERNEL32.dll
 0000:ffe75000       .debug$S                   10000000     kernel32:KERNEL32.dll
 0000:ffe75000       .debug$S                   10000000     kernel32:KERNEL32.dll
 0000:ffe75000       .debug$S                   10000000     kernel32:KERNEL32.dll
 0000:ffe75000       .debug$S                   10000000     kernel32:KERNEL32.dll
 0000:ffe75000       .debug$S                   10000000     kernel32:KERNEL32.dll
 0000:ffe75000       .debug$S                   10000000     msvcprt:MSVCP140.dll
 0000:ffe75000       .debug$S                   10000000     msvcprt:MSVCP140.dll
 0000:ffe75000       .debug$S                   10000000     msvcprt:MSVCP140.dll
 0000:ffe75000       .debug$S                   10000000     msvcprt:MSVCP140.dll
 0000:ffe75000       .debug$S                   10000000     msvcprt:MSVCP140.dll
 0000:ffe75000       .debug$S                   10000000     kernel32:KERNEL32.dll
 0000:ffe75000       .debug$S                   10000000     shell32:SHELL32.dll
 0000:ffe75000       .debug$S                   10000000     kernel32:KERNEL32.dll
 0000:ffe75000       .debug$S                   10000000     user32:USER32.dll
 0000:ffe75000       .debug$S                   10000000     user32:USER32.dll
 0000:ffe75000       .debug$S                   10000000     user32:USER32.dll
 0000:ffe75000       .debug$S                   10000000     user32:USER32.dll
 0000:ffe75000       .debug$S                   10000000     user32:USER32.dll
 0000:ffe75000       .debug$S                   10000000     user32:USER32.dll
 0000:ffe75000       .debug$S                   10000000     user32:USER32.dll
 0000:ffe75000       .debug$S                   10000000     user32:USER32.dll
 0000:ffe75000       .debug$S                   10000000     user32:USER32.dll
 0000:ffe75000       .debug$S                   10000000     user32:USER32.dll
 0000:ffe75000       .debug$S                   10000000     user32:USER32.dll
 0000:ffe75000       .debug$S                   10000000     kernel32:KERNEL32.dll
 0000:ffe75000       .debug$S                   10000000     kernel32:KERNEL32.dll
 0000:ffe75000       .debug$S                   10000000     kernel32:KERNEL32.dll
 0000:ffe75000       .debug$S                   10000000     kernel32:KERNEL32.dll
 0000:ffe75000       .debug$S                   10000000     kernel32:KERNEL32.dll
 0000:ffe75000       .debug$S                   10000000     kernel32:KERNEL32.dll
 0000:ffe75000       .debug$S                   10000000     kernel32:KERNEL32.dll
 0000:ffe75000       .debug$S                   10000000     kernel32:KERNEL32.dll
 0000:ffe75000       .debug$S                   10000000     kernel32:KERNEL32.dll
 0000:ffe75000       .debug$S                   10000000     kernel32:KERNEL32.dll
 0000:ffe75000       .debug$S                   10000000     kernel32:KERNEL32.dll
 0000:ffe75000       .debug$S                   10000000     kernel32:KERNEL32.dll
 0000:ffe75000       .debug$S                   10000000     kernel32:KERNEL32.dll
 0000:ffe75000       .debug$S                   10000000     kernel32:KERNEL32.dll
 0000:ffe75000       .debug$S                   10000000     kernel32:KERNEL32.dll
 0000:ffe75000       .debug$S                   10000000     kernel32:KERNEL32.dll
 0000:ffe75000       .debug$S                   10000000     kernel32:KERNEL32.dll
 0000:ffe75000       .debug$S                   10000000     kernel32:KERNEL32.dll
 0000:ffe75000       .debug$S                   10000000     kernel32:KERNEL32.dll
 0000:ffe75000       .debug$S                   10000000     kernel32:KERNEL32.dll
 0000:ffe75000       .debug$S                   10000000     kernel32:KERNEL32.dll
 0000:ffe75000       .debug$S                   10000000     kernel32:KERNEL32.dll
 0000:ffe75000       .debug$S                   10000000     kernel32:KERNEL32.dll
 0000:ffe75000       .debug$S                   10000000     kernel32:KERNEL32.dll
 0000:ffe75000       .debug$S                   10000000     kernel32:KERNEL32.dll
 0000:ffe75000       .debug$S                   10000000     kernel32:KERNEL32.dll
 0000:ffe75000       .debug$S                   10000000     kernel32:KERNEL32.dll
 0000:ffe75000       .debug$S                   10000000     kernel32:KERNEL32.dll
 0000:ffe75000       .debug$S                   10000000     kernel32:KERNEL32.dll
 0000:ffe75000       .debug$S                   10000000     kernel32:KERNEL32.dll
 0000:ffe75000       .debug$S                   10000000     kernel32:KERNEL32.dll
 0000:ffe75000       .debug$S                   10000000     kernel32:KERNEL32.dll
 0000:ffe75000       .debug$S                   10000000     kernel32:KERNEL32.dll
 0000:ffe75000       .debug$S                   10000000     kernel32:KERNEL32.dll
 0000:ffe75000       .debug$S                   10000000     kernel32:KERNEL32.dll
 0000:ffe75000       .debug$S                   10000000     kernel32:KERNEL32.dll
 0000:ffe75000       .debug$S                   10000000     kernel32:KERNEL32.dll
 0000:ffe75000       .debug$S                   10000000     kernel32:KERNEL32.dll
 0000:ffe75000       .debug$S                   10000000     kernel32:KERNEL32.dll
 0000:ffe75000       .debug$S                   10000000     kernel32:KERNEL32.dll
 0000:ffe75000       .debug$S                   10000000     kernel32:KERNEL32.dll
 0000:ffe75000       .debug$S                   10000000     kernel32:KERNEL32.dll
 0001:00000000       ??__EItemDefinitionIndexMap@@YAXXZ 10001000 f   Interfaces.obj
 0001:00001080       ??__Evec2_invalid@@YAXXZ   10002080 f   Interfaces.obj
 0001:000010b0       ??__Evec2_origin@@YAXXZ    100020b0 f   Interfaces.obj
 0001:000010e0       ??__Ew_printf@XorCompileTime@@YAXXZ 100020e0 f   Interfaces.obj
 0001:000010f0       ??__Ew_printf_s@XorCompileTime@@YAXXZ 100020f0 f   Interfaces.obj
 0001:00001100       ??__Ew_sprintf@XorCompileTime@@YAXXZ 10002100 f   Interfaces.obj
 0001:00001110       ??__Ew_sprintf_s@XorCompileTime@@YAXXZ 10002110 f   Interfaces.obj
 0001:00001120       ??__EItemDefinitionIndexMap@@YAXXZ 10002120 f   Global.obj
 0001:000021a0       ??__Evec2_invalid@@YAXXZ   100031a0 f   Global.obj
 0001:000021d0       ??__Evec2_origin@@YAXXZ    100031d0 f   Global.obj
 0001:00002200       ??__Ew_printf@XorCompileTime@@YAXXZ 10003200 f   Global.obj
 0001:00002210       ??__Ew_printf_s@XorCompileTime@@YAXXZ 10003210 f   Global.obj
 0001:00002220       ??__Ew_sprintf@XorCompileTime@@YAXXZ 10003220 f   Global.obj
 0001:00002230       ??__Ew_sprintf_s@XorCompileTime@@YAXXZ 10003230 f   Global.obj
 0001:00002240       ??__EItemDefinitionIndexMap@@YAXXZ 10003240 f   Chams.obj
 0001:000032c0       ??__Evec2_invalid@@YAXXZ   100042c0 f   Chams.obj
 0001:000032f0       ??__Evec2_origin@@YAXXZ    100042f0 f   Chams.obj
 0001:00003320       ??__Ew_printf@XorCompileTime@@YAXXZ 10004320 f   Chams.obj
 0001:00003330       ??__Ew_printf_s@XorCompileTime@@YAXXZ 10004330 f   Chams.obj
 0001:00003340       ??__Ew_sprintf@XorCompileTime@@YAXXZ 10004340 f   Chams.obj
 0001:00003350       ??__Ew_sprintf_s@XorCompileTime@@YAXXZ 10004350 f   Chams.obj
 0001:00003360       ??__EItemDefinitionIndexMap@@YAXXZ 10004360 f   EnginePrediction.obj
 0001:000043e0       ??__Em_MoveData@@YAXXZ     100053e0 f   EnginePrediction.obj
 0001:000043f0       ??__Evec2_invalid@@YAXXZ   100053f0 f   EnginePrediction.obj
 0001:00004420       ??__Evec2_origin@@YAXXZ    10005420 f   EnginePrediction.obj
 0001:00004450       ??__Ew_printf@XorCompileTime@@YAXXZ 10005450 f   EnginePrediction.obj
 0001:00004460       ??__Ew_printf_s@XorCompileTime@@YAXXZ 10005460 f   EnginePrediction.obj
 0001:00004470       ??__Ew_sprintf@XorCompileTime@@YAXXZ 10005470 f   EnginePrediction.obj
 0001:00004480       ??__Ew_sprintf_s@XorCompileTime@@YAXXZ 10005480 f   EnginePrediction.obj
 0001:00004490       ??__EItemDefinitionIndexMap@@YAXXZ 10005490 f   MiscFunctions.obj
 0001:00005510       ??__ETrace@@YAXXZ          10006510 f   MiscFunctions.obj
 0001:00005520       ??__Evec2_invalid@@YAXXZ   10006520 f   MiscFunctions.obj
 0001:00005550       ??__Evec2_origin@@YAXXZ    10006550 f   MiscFunctions.obj
 0001:00005580       ??__Ew_printf@XorCompileTime@@YAXXZ 10006580 f   MiscFunctions.obj
 0001:00005590       ??__Ew_printf_s@XorCompileTime@@YAXXZ 10006590 f   MiscFunctions.obj
 0001:000055a0       ??__Ew_sprintf@XorCompileTime@@YAXXZ 100065a0 f   MiscFunctions.obj
 0001:000055b0       ??__Ew_sprintf_s@XorCompileTime@@YAXXZ 100065b0 f   MiscFunctions.obj
 0001:000055c0       ??__EAimPoint@Globals@@YAXXZ 100065c0 f   Hooks.obj
 0001:000055d0       ??__EItemDefinitionIndexMap@@YAXXZ 100065d0 f   Hooks.obj
 0001:00006650       ??__Eclient@hooks@@YAXXZ   10007650 f   Hooks.obj
 0001:00006670       ??__Eclientmode@hooks@@YAXXZ 10007670 f   Hooks.obj
 0001:00006690       ??__Ed3d@hooks@@YAXXZ      10007690 f   Hooks.obj
 0001:000066b0       ??__EdwCAM_Think@@YAXXZ    100076b0 f   Hooks.obj
 0001:000066e0       ??__Eengine@hooks@@YAXXZ   100076e0 f   Hooks.obj
 0001:00006700       ??__Eeventmanager@hooks@@YAXXZ 10007700 f   Hooks.obj
 0001:00006720       ??__Elisteners@Globals@@YAXXZ 10007720 f   Hooks.obj
 0001:00006740       ??__Emodelrender@hooks@@YAXXZ 10007740 f   Hooks.obj
 0001:00006760       ??__Epanel@hooks@@YAXXZ    10007760 f   Hooks.obj
 0001:00006780       ??__Eprediction@hooks@@YAXXZ 10007780 f   Hooks.obj
 0001:000067a0       ??__EqLastTickAngles@@YAXXZ 100077a0 f   Hooks.obj
 0001:000067d0       ??__Esurface@hooks@@YAXXZ  100077d0 f   Hooks.obj
 0001:000067f0       ??__Esv_cheats@hooks@@YAXXZ 100077f0 f   Hooks.obj
 0001:00006810       ??__Evec2_invalid@@YAXXZ   10007810 f   Hooks.obj
 0001:00006840       ??__Evec2_origin@@YAXXZ    10007840 f   Hooks.obj
 0001:00006870       ??__Eviewrender@hooks@@YAXXZ 10007870 f   Hooks.obj
 0001:00006890       ??__Ew_printf@XorCompileTime@@YAXXZ 10007890 f   Hooks.obj
 0001:000068a0       ??__Ew_printf_s@XorCompileTime@@YAXXZ 100078a0 f   Hooks.obj
 0001:000068b0       ??__Ew_sprintf@XorCompileTime@@YAXXZ 100078b0 f   Hooks.obj
 0001:000068c0       ??__Ew_sprintf_s@XorCompileTime@@YAXXZ 100078c0 f   Hooks.obj
 0001:000068e0       ??__EItemDefinitionIndexMap@@YAXXZ 100078e0 f   ESP.obj
 0001:00007960       ??__Evec2_invalid@@YAXXZ   10008960 f   ESP.obj
 0001:00007990       ??__Evec2_origin@@YAXXZ    10008990 f   ESP.obj
 0001:000079c0       ??__Ew_printf@XorCompileTime@@YAXXZ 100089c0 f   ESP.obj
 0001:000079d0       ??__Ew_printf_s@XorCompileTime@@YAXXZ 100089d0 f   ESP.obj
 0001:000079e0       ??__Ew_sprintf@XorCompileTime@@YAXXZ 100089e0 f   ESP.obj
 0001:000079f0       ??__Ew_sprintf_s@XorCompileTime@@YAXXZ 100089f0 f   ESP.obj
 0001:00007a00       ??__EItemDefinitionIndexMap@@YAXXZ 10008a00 f   Offsets.obj
 0001:00008a80       ??__Eg_Netvars@@YAXXZ      10009a80 f   Offsets.obj
 0001:00008aa0       ??__Evec2_invalid@@YAXXZ   10009aa0 f   Offsets.obj
 0001:00008ad0       ??__Evec2_origin@@YAXXZ    10009ad0 f   Offsets.obj
 0001:00008b00       ??__Ew_printf@XorCompileTime@@YAXXZ 10009b00 f   Offsets.obj
 0001:00008b10       ??__Ew_printf_s@XorCompileTime@@YAXXZ 10009b10 f   Offsets.obj
 0001:00008b20       ??__Ew_sprintf@XorCompileTime@@YAXXZ 10009b20 f   Offsets.obj
 0001:00008b30       ??__Ew_sprintf_s@XorCompileTime@@YAXXZ 10009b30 f   Offsets.obj
 0001:00008b40       ??__Erenderer@@YAXXZ       10009b40 f   Renderer.obj
 0001:00008b80       ??__EGImDefaultContext@@YAXXZ 10009b80 f   imgui.obj
 0001:00008ba0       ??__EGImDefaultFontAtlas@@YAXXZ 10009ba0 f   imgui.obj
 0001:00008bc0       ??__EItemDefinitionIndexMap@@YAXXZ 10009bc0 f   LagComp.obj
 0001:00009c40       ??__Ebacktracking@@YAXXZ   1000ac40 f   LagComp.obj
 0001:00009cd0       ??__EheadPositions@@YAXXZ  1000acd0 f   LagComp.obj
 0001:00009cf0       ??__Evec2_invalid@@YAXXZ   1000acf0 f   LagComp.obj
 0001:00009d20       ??__Evec2_origin@@YAXXZ    1000ad20 f   LagComp.obj
 0001:00009d50       ??__Ew_printf@XorCompileTime@@YAXXZ 1000ad50 f   LagComp.obj
 0001:00009d60       ??__Ew_printf_s@XorCompileTime@@YAXXZ 1000ad60 f   LagComp.obj
 0001:00009d70       ??__Ew_sprintf@XorCompileTime@@YAXXZ 1000ad70 f   LagComp.obj
 0001:00009d80       ??__Ew_sprintf_s@XorCompileTime@@YAXXZ 1000ad80 f   LagComp.obj
 0001:00009d90       ??__EGNullClipRect@@YAXXZ  1000ad90 f   imgui_draw.obj
 0001:00009de0       ??__EConfig@@YAXXZ         1000ade0 f   Configuration.obj
 0001:00009e50       ??__EItemDefinitionIndexMap@@YAXXZ 1000ae50 f   Configuration.obj
 0001:0000aed0       ??__Eg_Options@@YAXXZ      1000bed0 f   Configuration.obj
 0001:0000aee0       ??__Evec2_invalid@@YAXXZ   1000bee0 f   Configuration.obj
 0001:0000af10       ??__Evec2_origin@@YAXXZ    1000bf10 f   Configuration.obj
 0001:0000af40       ??__Ew_printf@XorCompileTime@@YAXXZ 1000bf40 f   Configuration.obj
 0001:0000af50       ??__Ew_printf_s@XorCompileTime@@YAXXZ 1000bf50 f   Configuration.obj
 0001:0000af60       ??__Ew_sprintf@XorCompileTime@@YAXXZ 1000bf60 f   Configuration.obj
 0001:0000af70       ??__Ew_sprintf_s@XorCompileTime@@YAXXZ 1000bf70 f   Configuration.obj
 0001:0000af80       ??__EItemDefinitionIndexMap@@YAXXZ 1000bf80 f   DLLMain.obj
 0001:0000c000       ??__EOriginalSleep@@YAXXZ  1000d000 f   DLLMain.obj
 0001:0000c010       ??__EOriginalSleepEx@@YAXXZ 1000d010 f   DLLMain.obj
 0001:0000c020       ??__Evec2_invalid@@YAXXZ   1000d020 f   DLLMain.obj
 0001:0000c050       ??__Evec2_origin@@YAXXZ    1000d050 f   DLLMain.obj
 0001:0000c080       ??__Ew_printf@XorCompileTime@@YAXXZ 1000d080 f   DLLMain.obj
 0001:0000c090       ??__Ew_printf_s@XorCompileTime@@YAXXZ 1000d090 f   DLLMain.obj
 0001:0000c0a0       ??__Ew_sprintf@XorCompileTime@@YAXXZ 1000d0a0 f   DLLMain.obj
 0001:0000c0b0       ??__Ew_sprintf_s@XorCompileTime@@YAXXZ 1000d0b0 f   DLLMain.obj
 0001:0000c0c0       ??__EItemDefinitionIndexMap@@YAXXZ 1000d0c0 f   NetVarManager.obj
 0001:0000d140       ??__ENetVarManager@@YAXXZ  1000e140 f   NetVarManager.obj
 0001:0000d180       ??__Evec2_invalid@@YAXXZ   1000e180 f   NetVarManager.obj
 0001:0000d1b0       ??__Evec2_origin@@YAXXZ    1000e1b0 f   NetVarManager.obj
 0001:0000d1e0       ??__Ew_printf@XorCompileTime@@YAXXZ 1000e1e0 f   NetVarManager.obj
 0001:0000d1f0       ??__Ew_printf_s@XorCompileTime@@YAXXZ 1000e1f0 f   NetVarManager.obj
 0001:0000d200       ??__Ew_sprintf@XorCompileTime@@YAXXZ 1000e200 f   NetVarManager.obj
 0001:0000d210       ??__Ew_sprintf_s@XorCompileTime@@YAXXZ 1000e210 f   NetVarManager.obj
 0001:0000d220       ??__ElogFile@@YAXXZ        1000e220 f   Utilities.obj
 0001:0000d240       ??__EItemDefinitionIndexMap@@YAXXZ 1000e240 f   recvproxy.obj
 0001:0000e2c0       ??__Evec2_invalid@@YAXXZ   1000f2c0 f   recvproxy.obj
 0001:0000e2f0       ??__Evec2_origin@@YAXXZ    1000f2f0 f   recvproxy.obj
 0001:0000e320       ??__Ew_printf@XorCompileTime@@YAXXZ 1000f320 f   recvproxy.obj
 0001:0000e330       ??__Ew_printf_s@XorCompileTime@@YAXXZ 1000f330 f   recvproxy.obj
 0001:0000e340       ??__Ew_sprintf@XorCompileTime@@YAXXZ 1000f340 f   recvproxy.obj
 0001:0000e350       ??__Ew_sprintf_s@XorCompileTime@@YAXXZ 1000f350 f   recvproxy.obj
 0001:0000e360       ??__EItemDefinitionIndexMap@@YAXXZ 1000f360 f   SpoofedConvar.obj
 0001:0000f3e0       ??__Evec2_invalid@@YAXXZ   100103e0 f   SpoofedConvar.obj
 0001:0000f410       ??__Evec2_origin@@YAXXZ    10010410 f   SpoofedConvar.obj
 0001:0000f440       ??__Ew_printf@XorCompileTime@@YAXXZ 10010440 f   SpoofedConvar.obj
 0001:0000f450       ??__Ew_printf_s@XorCompileTime@@YAXXZ 10010450 f   SpoofedConvar.obj
 0001:0000f460       ??__Ew_sprintf@XorCompileTime@@YAXXZ 10010460 f   SpoofedConvar.obj
 0001:0000f470       ??__Ew_sprintf_s@XorCompileTime@@YAXXZ 10010470 f   SpoofedConvar.obj
 0001:0000f490       ??__EItemDefinitionIndexMap@@YAXXZ 10010490 f   Render.obj
 0001:00010510       ??__Eg_Render@@YAXXZ       10011510 f   Render.obj
 0001:00010530       ??__Evec2_invalid@@YAXXZ   10011530 f   Render.obj
 0001:00010560       ??__Evec2_origin@@YAXXZ    10011560 f   Render.obj
 0001:00010590       ??__Ew_printf@XorCompileTime@@YAXXZ 10011590 f   Render.obj
 0001:000105a0       ??__Ew_printf_s@XorCompileTime@@YAXXZ 100115a0 f   Render.obj
 0001:000105b0       ??__Ew_sprintf@XorCompileTime@@YAXXZ 100115b0 f   Render.obj
 0001:000105c0       ??__Ew_sprintf_s@XorCompileTime@@YAXXZ 100115c0 f   Render.obj
 0001:000105d0       ??__EItemDefinitionIndexMap@@YAXXZ 100115d0 f   Misc.obj
 0001:00011650       ??__Evec2_invalid@@YAXXZ   10012650 f   Misc.obj
 0001:00011680       ??__Evec2_origin@@YAXXZ    10012680 f   Misc.obj
 0001:000116b0       ??__Ew_printf@XorCompileTime@@YAXXZ 100126b0 f   Misc.obj
 0001:000116c0       ??__Ew_printf_s@XorCompileTime@@YAXXZ 100126c0 f   Misc.obj
 0001:000116d0       ??__Ew_sprintf@XorCompileTime@@YAXXZ 100126d0 f   Misc.obj
 0001:000116e0       ??__Ew_sprintf_s@XorCompileTime@@YAXXZ 100126e0 f   Misc.obj
 0001:000116f0       ??__EItemDefinitionIndexMap@@YAXXZ 100126f0 f   GrenadePrediction.obj
 0001:00012770       ??__Evec2_invalid@@YAXXZ   10013770 f   GrenadePrediction.obj
 0001:000127a0       ??__Evec2_origin@@YAXXZ    100137a0 f   GrenadePrediction.obj
 0001:000127d0       ??__Ew_printf@XorCompileTime@@YAXXZ 100137d0 f   GrenadePrediction.obj
 0001:000127e0       ??__Ew_printf_s@XorCompileTime@@YAXXZ 100137e0 f   GrenadePrediction.obj
 0001:000127f0       ??__Ew_sprintf@XorCompileTime@@YAXXZ 100137f0 f   GrenadePrediction.obj
 0001:00012800       ??__Ew_sprintf_s@XorCompileTime@@YAXXZ 10013800 f   GrenadePrediction.obj
 0001:0001280d       ??__E_Fac_tidy_reg@std@@YAXXZ 1001380d f   msvcprt:locale0_implib.obj
 0001:00012ba0       ??$FindHudElement@VCHudChat@@@@YAPAVCHudChat@@PBD@Z 10013ba0 f   Interfaces.obj
 0001:00012ee5       __catch$??$_Buynode@ABU?$pair@$$CBW4ItemDefinitionIndexx@@UDefItem_t@@@std@@@?$_Tree_comp_alloc@V?$_Tmap_traits@W4ItemDefinitionIndexx@@UDefItem_t@@U?$less@W4ItemDefinitionIndexx@@@std@@V?$allocator@U?$pair@$$CBW4ItemDefinitionIndexx@@UDefItem_t@@@std@@@4@$0A@@std@@@std@@QAEPAU?$_Tree_node@U?$pair@$$CBW4ItemDefinitionIndexx@@UDefItem_t@@@std@@PAX@1@ABU?$pair@$$CBW4ItemDefinitionIndexx@@UDefItem_t@@@1@@Z$0 10013ee5 f i Interfaces.obj
 0001:00012f30       ??$move@AAVText@?1??DrawInfo@visuals@@AAEXUtagRECT@@PAVC_BaseEntity@@1@Z@@std@@YA$$QAVText@?1??DrawInfo@visuals@@AAEXUtagRECT@@PAVC_BaseEntity@@1@Z@AAV1?1??23@AAEX011@Z@@Z 10013f30 f i ESP.obj
 0001:00012f30       ??$_Unchecked@PAVText@?1??DrawInfo@visuals@@AAEXUtagRECT@@PAVC_BaseEntity@@1@Z@@std@@YAPAVText@?1??DrawInfo@visuals@@AAEXUtagRECT@@PAVC_BaseEntity@@1@Z@PAV1?1??23@AAEX011@Z@@Z 10013f30 f i ESP.obj
 0001:00012f30       ??$forward@VText@?1??DrawInfo@visuals@@AAEXUtagRECT@@PAVC_BaseEntity@@1@Z@@std@@YA$$QAVText@?1??DrawInfo@visuals@@AAEXUtagRECT@@PAVC_BaseEntity@@1@Z@AAV1?1??23@AAEX011@Z@@Z 10013f30 f i ESP.obj
 0001:00012f30       ??$_Unfancy@VText@?1??DrawInfo@visuals@@AAEXUtagRECT@@PAVC_BaseEntity@@1@Z@@std@@YAPAVText@?1??DrawInfo@visuals@@AAEXUtagRECT@@PAVC_BaseEntity@@1@Z@PAV1?1??23@AAEX011@Z@@Z 10013f30 f i ESP.obj
 0001:00013a6e       __catch$??$_Insert_hint@AAU?$pair@$$CBW4ItemDefinitionIndexx@@UDefItem_t@@@std@@PAU?$_Tree_node@U?$pair@$$CBW4ItemDefinitionIndexx@@UDefItem_t@@@std@@PAX@2@@?$_Tree@V?$_Tmap_traits@W4ItemDefinitionIndexx@@UDefItem_t@@U?$less@W4ItemDefinitionIndexx@@@std@@V?$allocator@U?$pair@$$CBW4ItemDefinitionIndexx@@UDefItem_t@@@std@@@4@$0A@@std@@@std@@IAE?AV?$_Tree_iterator@V?$_Tree_val@U?$_Tree_simple_types@U?$pair@$$CBW4ItemDefinitionIndexx@@UDefItem_t@@@std@@@std@@@std@@@1@V?$_Tree_const_iterator@V?$_Tree_val@U?$_Tree_simple_types@U?$pair@$$CBW4ItemDefinitionIndexx@@UDefItem_t@@@std@@@std@@@std@@@1@AAU?$pair@$$CBW4ItemDefinitionIndexx@@UDefItem_t@@@1@PAU?$_Tree_node@U?$pair@$$CBW4ItemDefinitionIndexx@@UDefItem_t@@@std@@PAX@1@@Z$0 10014a6e f i Interfaces.obj
 0001:00013d96       __catch$??$_Insert_nohint@AAU?$pair@$$CBW4ItemDefinitionIndexx@@UDefItem_t@@@std@@PAU?$_Tree_node@U?$pair@$$CBW4ItemDefinitionIndexx@@UDefItem_t@@@std@@PAX@2@@?$_Tree@V?$_Tmap_traits@W4ItemDefinitionIndexx@@UDefItem_t@@U?$less@W4ItemDefinitionIndexx@@@std@@V?$allocator@U?$pair@$$CBW4ItemDefinitionIndexx@@UDefItem_t@@@std@@@4@$0A@@std@@@std@@IAE?AU?$pair@V?$_Tree_iterator@V?$_Tree_val@U?$_Tree_simple_types@U?$pair@$$CBW4ItemDefinitionIndexx@@UDefItem_t@@@std@@@std@@@std@@@std@@_N@1@_NAAU?$pair@$$CBW4ItemDefinitionIndexx@@UDefItem_t@@@1@PAU?$_Tree_node@U?$pair@$$CBW4ItemDefinitionIndexx@@UDefItem_t@@@std@@PAX@1@@Z$0 10014d96 f i Interfaces.obj
 0001:00013e40       ??$_Reallocate_for@V<lambda_9366063389c5f42a00a5088cf24e69de>@@PBD@?$basic_string@DU?$char_traits@D@std@@V?$allocator@D@2@@std@@QAEAAV01@IV<lambda_9366063389c5f42a00a5088cf24e69de>@@PBD@Z 10014e40 f   Interfaces.obj
 0001:00013fa0       ?_Deprecate@_Unchecked_iterators@?1???$transform@V?$_String_iterator@V?$_String_val@U?$_Simple_types@D@std@@@std@@@std@@V12@P6AHH@Z@std@@YA?AV?$_String_iterator@V?$_String_val@U?$_Simple_types@D@std@@@std@@@2@V32@0V32@P6AHH@Z@Z@SAXU?$integral_constant@_N$00@2@@Z 10014fa0 f i DLLMain.obj
 0001:00014210       ?_Get_first@?$_Compressed_pair@V?$allocator@VText@?1??DrawInfo@visuals@@AAEXUtagRECT@@PAVC_BaseEntity@@1@Z@@std@@V?$_Vector_val@U?$_Simple_types@VText@?1??DrawInfo@visuals@@AAEXUtagRECT@@PAVC_BaseEntity@@1@Z@@std@@@2@$00@std@@QBEABV?$allocator@VText@?1??DrawInfo@visuals@@AAEXUtagRECT@@PAVC_BaseEntity@@1@Z@@2@XZ 10015210 f i ESP.obj
 0001:00014210       ?_Get_first@?$_Compressed_pair@V?$allocator@VText@?1??DrawInfo@visuals@@AAEXUtagRECT@@PAVC_BaseEntity@@1@Z@@std@@V?$_Vector_val@U?$_Simple_types@VText@?1??DrawInfo@visuals@@AAEXUtagRECT@@PAVC_BaseEntity@@1@Z@@std@@@2@$00@std@@QAEAAV?$allocator@VText@?1??DrawInfo@visuals@@AAEXUtagRECT@@PAVC_BaseEntity@@1@Z@@2@XZ 10015210 f i ESP.obj
 0001:00014210       ??0?$allocator@VText@?1??DrawInfo@visuals@@AAEXUtagRECT@@PAVC_BaseEntity@@1@Z@@std@@QAE@XZ 10015210 f i ESP.obj
 0001:00014210       ?_Get_second@?$_Compressed_pair@V?$allocator@VText@?1??DrawInfo@visuals@@AAEXUtagRECT@@PAVC_BaseEntity@@1@Z@@std@@V?$_Vector_val@U?$_Simple_types@VText@?1??DrawInfo@visuals@@AAEXUtagRECT@@PAVC_BaseEntity@@1@Z@@std@@@2@$00@std@@QAEAAV?$_Vector_val@U?$_Simple_types@VText@?1??DrawInfo@visuals@@AAEXUtagRECT@@PAVC_BaseEntity@@1@Z@@std@@@2@XZ 10015210 f i ESP.obj
 0001:00014210       ?_Get_second@?$_Compressed_pair@V?$allocator@VText@?1??DrawInfo@visuals@@AAEXUtagRECT@@PAVC_BaseEntity@@1@Z@@std@@V?$_Vector_val@U?$_Simple_types@VText@?1??DrawInfo@visuals@@AAEXUtagRECT@@PAVC_BaseEntity@@1@Z@@std@@@2@$00@std@@QBEABV?$_Vector_val@U?$_Simple_types@VText@?1??DrawInfo@visuals@@AAEXUtagRECT@@PAVC_BaseEntity@@1@Z@@std@@@2@XZ 10015210 f i ESP.obj
 0001:000146f0       ??R<lambda_9366063389c5f42a00a5088cf24e69de>@@QBEXQADIQBD@Z 100156f0 f   Interfaces.obj
 0001:00014893       __catch$?_Buyheadnode@?$_Tree_comp_alloc@V?$_Tmap_traits@W4ItemDefinitionIndexx@@UDefItem_t@@U?$less@W4ItemDefinitionIndexx@@@std@@V?$allocator@U?$pair@$$CBW4ItemDefinitionIndexx@@UDefItem_t@@@std@@@4@$0A@@std@@@std@@QAEPAU?$_Tree_node@U?$pair@$$CBW4ItemDefinitionIndexx@@UDefItem_t@@@std@@PAX@2@XZ$0 10015893 f i Interfaces.obj
 0001:000149a2       __catch$?_Buynode0@?$_Tree_comp_alloc@V?$_Tmap_traits@W4ItemDefinitionIndexx@@UDefItem_t@@U?$less@W4ItemDefinitionIndexx@@@std@@V?$allocator@U?$pair@$$CBW4ItemDefinitionIndexx@@UDefItem_t@@@std@@@4@$0A@@std@@@std@@QAEPAU?$_Tree_node@U?$pair@$$CBW4ItemDefinitionIndexx@@UDefItem_t@@@std@@PAX@2@XZ$0 100159a2 f i Interfaces.obj
 0001:00016260       $LN30                      10017260     disolx64.obj
 0001:00016280       $LN31                      10017280     disolx64.obj
 0001:00017580       ?detour_is_imported@@YA_NPAE0@Z 10018580 f   detours.obj
 0001:000176c0       ?detour_writable_trampoline_regions@@YAKXZ 100186c0 f   detours.obj
 0001:00017710       ?detour_runnable_trampoline_regions@@YAXXZ 10018710 f   detours.obj
 0001:00017770       ?detour_alloc_round_down_to_region@@YAPAEPAE@Z 10018770 f   detours.obj
 0001:000177a0       ?detour_alloc_round_up_to_region@@YAPAEPAE@Z 100187a0 f   detours.obj
 0001:000177d0       ?detour_alloc_region_from_lo@@YAPAXPAE0@Z 100187d0 f   detours.obj
 0001:000178a0       ?detour_alloc_region_from_hi@@YAPAXPAE0@Z 100188a0 f   detours.obj
 0001:00017980       ?detour_alloc_trampoline@@YAPAU_DETOUR_TRAMPOLINE@@PAE@Z 10018980 f   detours.obj
 0001:00017b80       ?detour_free_trampoline@@YAXPAU_DETOUR_TRAMPOLINE@@@Z 10018b80 f   detours.obj
 0001:00017bc0       ?detour_is_region_empty@@YAHPAUDETOUR_REGION@@@Z 10018bc0 f   detours.obj
 0001:00017c50       ?detour_free_unused_trampoline_regions@@YAXXZ 10018c50 f   detours.obj
 0001:00017cc0       ?detour_align_from_trampoline@@YAEPAU_DETOUR_TRAMPOLINE@@E@Z 10018cc0 f   detours.obj
 0001:00017d10       ?detour_align_from_target@@YAJPAU_DETOUR_TRAMPOLINE@@J@Z 10018d10 f   detours.obj
 0001:00017d60       ?DetourPageProtectAdjustExecute@@YAKKK@Z 10018d60 f   detours.obj
 0001:0001b2f0       _setBinaryMode             1001c2f0 f   shell.obj
 0001:0001b330       _setTextMode               1001c330 f   shell.obj
 0001:0001b370       _timeOfDay                 1001c370 f   shell.obj
 0001:0001b400       _hasTimer                  1001c400 f   shell.obj
 0001:0001b480       _beginTimer                1001c480 f   shell.obj
 0001:0001b4d0       _timeDiff                  1001c4d0 f   shell.obj
 0001:0001b520       _endTimer                  1001c520 f   shell.obj
 0001:0001b670       _utf8_width_print          1001c670 f   shell.obj
 0001:0001b790       _isNumber                  1001c790 f   shell.obj
 0001:0001b910       _strlen30                  1001c910 f   shell.obj
 0001:0001b940       _strlenChar                1001c940 f   shell.obj
 0001:0001b990       _local_getline             1001c990 f   shell.obj
 0001:0001bb50       _one_input_line            1001cb50 f   shell.obj
 0001:0001bbe0       _hexDigitValue             1001cbe0 f   shell.obj
 0001:0001bc40       _integerValue              1001cc40 f   shell.obj
 0001:0001be00       _initText                  1001ce00 f   shell.obj
 0001:0001be20       _freeText                  1001ce20 f   shell.obj
 0001:0001be40       _appendText                1001ce40 f   shell.obj
 0001:0001bff0       _quoteChar                 1001cff0 f   shell.obj
 0001:0001c0f0       _shellFakeSchema           1001d0f0 f   shell.obj
 0001:0001c2a0       _shellModuleSchema         1001d2a0 f   shell.obj
 0001:0001c320       _shellAddSchemaName        1001d320 f   shell.obj
 0001:0001ca20       _KeccakF1600Step           1001da20 f   shell.obj
 0001:00020570       _SHA3Init                  10021570 f   shell.obj
 0001:000205d0       _SHA3Update                100215d0 f   shell.obj
 0001:00020720       _SHA3Final                 10021720 f   shell.obj
 0001:000207f0       _sha3Func                  100217f0 f   shell.obj
 0001:00020940       _hash_step_vformat         10021940 f   shell.obj
 0001:00020990       _sha3QueryFunc             10021990 f   shell.obj
 0001:00020e3c       $LN29                      10021e3c     shell.obj
 0001:00020f00       _readFileContents          10021f00 f   shell.obj
 0001:00020fc0       _readfileFunc              10021fc0 f   shell.obj
 0001:00021000       _ctxErrorMsg               10022000 f   shell.obj
 0001:00021050       _fileTimeToUnixTime        10022050 f   shell.obj
 0001:000210d0       _statTimesToUtc            100220d0 f   shell.obj
 0001:00021190       _fileStat                  10022190 f   shell.obj
 0001:000211d0       _fileLinkStat              100221d0 f   shell.obj
 0001:00021210       _makeDirectory             10022210 f   shell.obj
 0001:00021310       _writeFile                 10022310 f   shell.obj
 0001:000215b0       _writefileFunc             100225b0 f   shell.obj
 0001:00021750       _lsModeFunc                10022750 f   shell.obj
 0001:000218b0       _fsdirConnect              100228b0 f   shell.obj
 0001:00021910       _fsdirDisconnect           10022910 f   shell.obj
 0001:00021930       _fsdirOpen                 10022930 f   shell.obj
 0001:00021980       _fsdirResetCursor          10022980 f   shell.obj
 0001:00021a50       _fsdirClose                10022a50 f   shell.obj
 0001:00021a80       _fsdirSetErrmsg            10022a80 f   shell.obj
 0001:00021ab0       _fsdirNext                 10022ab0 f   shell.obj
 0001:00021d60       _fsdirColumn               10022d60 f   shell.obj
 0001:00021e18       $LN11                      10022e18     shell.obj
 0001:00021e30       _fsdirRowid                10022e30 f   shell.obj
 0001:00021e60       _fsdirEof                  10022e60 f   shell.obj
 0001:00021e90       _fsdirFilter               10022e90 f   shell.obj
 0001:00021fe0       _fsdirBestIndex            10022fe0 f   shell.obj
 0001:00022100       _fsdirRegister             10023100 f   shell.obj
 0001:000221d0       _completionConnect         100231d0 f   shell.obj
 0001:00022240       _completionDisconnect      10023240 f   shell.obj
 0001:00022260       _completionOpen            10023260 f   shell.obj
 0001:000222b0       _completionCursorReset     100232b0 f   shell.obj
 0001:00022320       _completionClose           10023320 f   shell.obj
 0001:00022340       _completionNext            10023340 f   shell.obj
 0001:00022680       $LN31                      10023680     shell.obj
 0001:000226b0       _completionColumn          100236b0 f   shell.obj
 0001:00022738       $LN9                       10023738     shell.obj
 0001:00022750       _completionRowid           10023750 f   shell.obj
 0001:00022780       _completionEof             10023780 f   shell.obj
 0001:000227b0       _completionFilter          100237b0 f   shell.obj
 0001:00022980       _completionBestIndex       10023980 f   shell.obj
 0001:00022b20       _apndClose                 10023b20 f   shell.obj
 0001:00022b40       _apndRead                  10023b40 f   shell.obj
 0001:00022b90       _apndWrite                 10023b90 f   shell.obj
 0001:00022d00       _apndTruncate              10023d00 f   shell.obj
 0001:00022d80       _apndSync                  10023d80 f   shell.obj
 0001:00022db0       _apndFileSize              10023db0 f   shell.obj
 0001:00022e30       _apndLock                  10023e30 f   shell.obj
 0001:00022e60       _apndUnlock                10023e60 f   shell.obj
 0001:00022e90       _apndCheckReservedLock     10023e90 f   shell.obj
 0001:00022ec0       _apndFileControl           10023ec0 f   shell.obj
 0001:00022f30       _apndSectorSize            10023f30 f   shell.obj
 0001:00022f50       _apndDeviceCharacteristics 10023f50 f   shell.obj
 0001:00022f70       _apndShmMap                10023f70 f   shell.obj
 0001:00022fa0       _apndShmLock               10023fa0 f   shell.obj
 0001:00022fd0       _apndShmBarrier            10023fd0 f   shell.obj
 0001:00022ff0       _apndShmUnmap              10023ff0 f   shell.obj
 0001:00023020       _apndFetch                 10024020 f   shell.obj
 0001:00023070       _apndUnfetch               10024070 f   shell.obj
 0001:000230b0       _apndOpen                  100240b0 f   shell.obj
 0001:00023250       _apndDelete                10024250 f   shell.obj
 0001:00023280       _apndAccess                10024280 f   shell.obj
 0001:000232b0       _apndFullPathname          100242b0 f   shell.obj
 0001:000232e0       _apndDlOpen                100242e0 f   shell.obj
 0001:00023300       _apndDlError               10024300 f   shell.obj
 0001:00023330       _apndDlSym                 10024330 f   shell.obj
 0001:00023360       _apndDlClose               10024360 f   shell.obj
 0001:00023380       _apndRandomness            10024380 f   shell.obj
 0001:000233b0       _apndSleep                 100243b0 f   shell.obj
 0001:000233d0       _apndCurrentTime           100243d0 f   shell.obj
 0001:000233f0       _apndGetLastError          100243f0 f   shell.obj
 0001:00023420       _apndCurrentTimeInt64      10024420 f   shell.obj
 0001:00023440       _apndSetSystemCall         10024440 f   shell.obj
 0001:00023470       _apndGetSystemCall         10024470 f   shell.obj
 0001:00023490       _apndNextSystemCall        10024490 f   shell.obj
 0001:000234b0       _apndWriteMark             100244b0 f   shell.obj
 0001:00023540       _apndIsOrdinaryDatabaseFile 10024540 f   shell.obj
 0001:000235c0       _apndReadMark              100245c0 f   shell.obj
 0001:00023c58       $LN16                      10024c58     shell.obj
 0001:00023d10       _idxMalloc                 10024d10 f   shell.obj
 0001:00023d50       _idxHashInit               10024d50 f   shell.obj
 0001:00023d70       _idxHashClear              10024d70 f   shell.obj
 0001:00023df0       _idxHashString             10024df0 f   shell.obj
 0001:00023e40       _idxHashAdd                10024e40 f   shell.obj
 0001:00023fa0       _idxHashFind               10024fa0 f   shell.obj
 0001:00024030       _idxHashSearch             10025030 f   shell.obj
 0001:00024060       _idxNewConstraint          10025060 f   shell.obj
 0001:000240d0       _idxDatabaseError          100250d0 f   shell.obj
 0001:00024100       _idxPrepareStmt            10025100 f   shell.obj
 0001:00024150       _idxPrintfPrepareStmt      10025150 f   shell.obj
 0001:000241c0       _expertDequote             100251c0 f   shell.obj
 0001:00024260       _expertConnect             10025260 f   shell.obj
 0001:00024320       _expertDisconnect          10025320 f   shell.obj
 0001:00024340       _expertBestIndex           10025340 f   shell.obj
 0001:00024580       _expertUpdate              10025580 f   shell.obj
 0001:00024590       _expertOpen                10025590 f   shell.obj
 0001:000245c0       _expertClose               100255c0 f   shell.obj
 0001:000245f0       _expertEof                 100255f0 f   shell.obj
 0001:00024620       _expertNext                10025620 f   shell.obj
 0001:00024680       _expertRowid               10025680 f   shell.obj
 0001:000246a0       _expertColumn              100256a0 f   shell.obj
 0001:000246e0       _expertFilter              100256e0 f   shell.obj
 0001:00024770       _idxRegisterVtab           10025770 f   shell.obj
 0001:000247a0       _idxFinalize               100257a0 f   shell.obj
 0001:000247d0       _idxGetTableInfo           100257d0 f   shell.obj
 0001:00024a90       _idxAppendText             10025a90 f   shell.obj
 0001:00024bb0       _idxIdentifierRequiresQuotes 10025bb0 f   shell.obj
 0001:00024c50       _idxAppendColDefn          10025c50 f   shell.obj
 0001:00024d70       _idxFindCompatible         10025d70 f   shell.obj
 0001:00024fb0       _idxCreateFromCons         10025fb0 f   shell.obj
 0001:000251b0       _idxFindConstraint         100261b0 f   shell.obj
 0001:000251f0       _idxCreateFromWhere        100261f0 f   shell.obj
 0001:000252e0       _idxCreateCandidates       100262e0 f   shell.obj
 0001:00025360       _idxConstraintFree         10026360 f   shell.obj
 0001:000253a0       _idxScanFree               100263a0 f   shell.obj
 0001:00025410       _idxStatementFree          10026410 f   shell.obj
 0001:00025470       _idxTableFree              10026470 f   shell.obj
 0001:000254b0       _idxWriteFree              100264b0 f   shell.obj
 0001:000257a0       _idxAuthCallback           100267a0 f   shell.obj
 0001:000258a0       _idxProcessOneTrigger      100268a0 f   shell.obj
 0001:00025b90       _idxProcessTriggers        10026b90 f   shell.obj
 0001:00025c10       _idxCreateVtabSchema       10026c10 f   shell.obj
 0001:00025e50       _idxSampleFunc             10026e50 f   shell.obj
 0001:00025f40       _idxRemFunc                10026f40 f   shell.obj
 0001:00026170       $LN20                      10027170     shell.obj
 0001:00026180       $LN21                      10027180     shell.obj
 0001:00026190       _idxLargestIndex           10027190 f   shell.obj
 0001:00026220       _idxPopulateOneStat1       10027220 f   shell.obj
 0001:00026650       _idxBuildSampleTable       10027650 f   shell.obj
 0001:000266d0       _idxPopulateStat1          100276d0 f   shell.obj
 0001:00026a60       _shellLog                  10027a60 f   shell.obj
 0001:00026ab0       _shellPutsFunc             10027ab0 f   shell.obj
 0001:00026b10       _editFunc                  10027b10 f   shell.obj
 0001:00026fc0       _outputModePush            10027fc0 f   shell.obj
 0001:00027010       _outputModePop             10028010 f   shell.obj
 0001:00027060       _output_hex_blob           10028060 f   shell.obj
 0001:000270d0       _unused_string             100280d0 f   shell.obj
 0001:00027160       _output_quoted_string      10028160 f   shell.obj
 0001:000272b0       _output_quoted_escaped_string 100282b0 f   shell.obj
 0001:00027560       _output_c_string           10028560 f   shell.obj
 0001:000276c0       _output_html_string        100286c0 f   shell.obj
 0001:00027830       _output_csv                10028830 f   shell.obj
 0001:00027970       _interrupt_handler         10028970 f   shell.obj
 0001:000279b0       _ConsoleCtrlHandler@4      100289b0 f   shell.obj
 0001:000279d0       _shellAuth                 100289d0 f   shell.obj
 0001:00027ac0       _printSchemaLine           10028ac0 f   shell.obj
 0001:00027b20       _printSchemaLineN          10028b20 f   shell.obj
 0001:00027b60       _wsToEol                   10028b60 f   shell.obj
 0001:00027bf0       _shell_callback            10028bf0 f   shell.obj
 0001:00029258       $LN229                     1002a258     shell.obj
 0001:00029290       _callback                  1002a290 f   shell.obj
 0001:000292b0       _captureOutputCallback     1002a2b0 f   shell.obj
 0001:00029350       _createSelftestTable       1002a350 f   shell.obj
 0001:000293d0       _set_table_name            1002a3d0 f   shell.obj
 0001:00029530       _run_table_dump_query      1002a530 f   shell.obj
 0001:00029770       _save_err_msg              1002a770 f   shell.obj
 0001:000297d0       _displayStatLine           1002a7d0 f   shell.obj
 0001:000298c0       _display_stats             1002a8c0 f   shell.obj
 0001:00029eb0       _display_scanstats         1002aeb0 f   shell.obj
 0001:00029ec0       _str_in_array              1002aec0 f   shell.obj
 0001:00029f10       _explain_data_prepare      1002af10 f   shell.obj
 0001:0002a2a0       _explain_data_delete       1002b2a0 f   shell.obj
 0001:0002a2e0       _disable_debug_trace_modes 1002b2e0 f   shell.obj
 0001:0002a2f0       _restore_debug_trace_modes 1002b2f0 f   shell.obj
 0001:0002a300       _exec_prepared_stmt        1002b300 f   shell.obj
 0001:0002a4b0       _expertHandleSQL           1002b4b0 f   shell.obj
 0001:0002a4d0       _expertFinish              1002b4d0 f   shell.obj
 0001:0002a660       _expertDotCommand          1002b660 f   shell.obj
 0001:0002a880       _shell_exec                1002b880 f   shell.obj
 0001:0002ae00       _freeColumnList            1002be00 f   shell.obj
 0001:0002ae50       _tableColumnList           1002be50 f   shell.obj
 0001:0002b180       _toggleSelectOrder         1002c180 f   shell.obj
 0001:0002b230       _dump_callback             1002c230 f   shell.obj
 0001:0002b6b0       _run_schema_dump_query     1002c6b0 f   shell.obj
 0001:0002b7f0       _process_input             1002c7f0 f   shell.obj
 0001:0002bc00       _readFile                  1002cc00 f   shell.obj
 0001:0002bcd0       _deduceDatabaseType        1002ccd0 f   shell.obj
 0001:0002be40       _open_db                   1002ce40 f   shell.obj
 0001:0002c0c0       $LN15                      1002d0c0     shell.obj
 0001:0002c0e0       _resolve_backslashes       1002d0e0 f   shell.obj
 0001:0002c2f0       _booleanValue              1002d2f0 f   shell.obj
 0001:0002c420       _setOrClearFlag            1002d420 f   shell.obj
 0001:0002c460       _output_file_close         1002d460 f   shell.obj
 0001:0002c4a0       _output_file_open          1002d4a0 f   shell.obj
 0001:0002c570       _sql_trace_callback        1002d570 f   shell.obj
 0001:0002c5e0       _test_breakpoint           1002d5e0 f   shell.obj
 0001:0002c600       _import_append_char        1002d600 f   shell.obj
 0001:0002c6a0       _csv_read_one_field        1002d6a0 f   shell.obj
 0001:0002c9e0       _ascii_read_one_field      1002d9e0 f   shell.obj
 0001:0002cab0       _tryToCloneData            1002dab0 f   shell.obj
 0001:0002cf50       $LN29                      1002df50     shell.obj
 0001:0002cf70       _tryToCloneSchema          1002df70 f   shell.obj
 0001:0002d280       _tryToClone                1002e280 f   shell.obj
 0001:0002d3b0       _output_reset              1002e3b0 f   shell.obj
 0001:0002d4a0       _db_int                    1002e4a0 f   shell.obj
 0001:0002d510       _get2byteInt               1002e510 f   shell.obj
 0001:0002d540       _get4byteInt               1002e540 f   shell.obj
 0001:0002d590       _shell_dbinfo_command      1002e590 f   shell.obj
 0001:0002d910       _shellDatabaseError        1002e910 f   shell.obj
 0001:0002d950       _shellNomemError           1002e950 f   shell.obj
 0001:0002d980       _testcase_glob             1002e980 f   shell.obj
 0001:0002dde0       _optionMatch               1002ede0 f   shell.obj
 0001:0002de90       _clearTempFile             1002ee90 f   shell.obj
 0001:0002dee0       _newTempFile               1002eee0 f   shell.obj
 0001:0002dfb0       _shellFkeyCollateClause    1002efb0 f   shell.obj
 0001:0002e0f0       _lintFkeyIndexes           1002f0f0 f   shell.obj
 0001:0002e530       _lintDotCommand            1002f530 f   shell.obj
 0001:0002e610       _do_meta_command           1002f610 f   shell.obj
 0001:00034a94       $LN644                     10035a94     shell.obj
 0001:00034ab0       $LN643                     10035ab0     shell.obj
 0001:00034ad0       _line_contains_semicolon   10035ad0 f   shell.obj
 0001:00034b10       __all_whitespace           10035b10 f   shell.obj
 0001:00034c40       _line_is_command_terminator 10035c40 f   shell.obj
 0001:00034d10       _line_is_complete          10035d10 f   shell.obj
 0001:00034d60       _runOneSqlLine             10035d60 f   shell.obj
 0001:00034ec0       _find_home_dir             10035ec0 f   shell.obj
 0001:00035050       _process_sqliterc          10036050 f   shell.obj
 0001:00035140       _usage                     10036140 f   shell.obj
 0001:000351b0       _main_init                 100361b0 f   shell.obj
 0001:00035280       _printBold                 10036280 f   shell.obj
 0001:000352d0       _cmdline_option_value      100362d0 f   shell.obj
 0001:0003dcc0       ??0?$_Vector_val@U?$_Simple_types@VText@?1??DrawInfo@visuals@@AAEXUtagRECT@@PAVC_BaseEntity@@1@Z@@std@@@std@@QAE@XZ 1003ecc0 f i ESP.obj
 0001:0003e598       $LN20                      1003f598     Hooks.obj
 0001:0003f648       __catch$?unhook_all@vfunc_hook@@QAEXXZ$0 10040648 f i Hooks.obj
 0001:000414d0       ??$?0$$V@?$_Compressed_pair@V?$allocator@VText@?1??DrawInfo@visuals@@AAEXUtagRECT@@PAVC_BaseEntity@@1@Z@@std@@V?$_Vector_val@U?$_Simple_types@VText@?1??DrawInfo@visuals@@AAEXUtagRECT@@PAVC_BaseEntity@@1@Z@@std@@@2@$00@std@@QAE@U_Zero_then_variadic_args_t@1@@Z 100424d0 f   ESP.obj
 0001:00041650       ??$_Destroy_range1@V?$allocator@VText@?1??DrawInfo@visuals@@AAEXUtagRECT@@PAVC_BaseEntity@@1@Z@@std@@@std@@YAXPAVText@?1??DrawInfo@visuals@@AAEXUtagRECT@@PAVC_BaseEntity@@1@Z@2AAV?$allocator@VText@?1??DrawInfo@visuals@@AAEXUtagRECT@@PAVC_BaseEntity@@1@Z@@0@U?$integral_constant@_N$0A@@0@@Z 10042650 f   ESP.obj
 0001:000416c0       ??$_Destroy_range@V?$allocator@VText@?1??DrawInfo@visuals@@AAEXUtagRECT@@PAVC_BaseEntity@@1@Z@@std@@@std@@YAXPAVText@?1??DrawInfo@visuals@@AAEXUtagRECT@@PAVC_BaseEntity@@1@Z@2AAV?$allocator@VText@?1??DrawInfo@visuals@@AAEXUtagRECT@@PAVC_BaseEntity@@1@Z@@0@@Z 100426c0 f   ESP.obj
 0001:000416f0       ??$_Emplace_back_with_unused_capacity@VText@?1??DrawInfo@visuals@@AAEXUtagRECT@@PAVC_BaseEntity@@1@Z@@?$vector@VText@?1??DrawInfo@visuals@@AAEXUtagRECT@@PAVC_BaseEntity@@1@Z@V?$allocator@VText@?1??DrawInfo@visuals@@AAEXUtagRECT@@PAVC_BaseEntity@@1@Z@@std@@@std@@AAEX$$QAVText@?1??DrawInfo@visuals@@AAEXUtagRECT@@PAVC_BaseEntity@@1@Z@@Z 100426f0 f   ESP.obj
 0001:000417a0       ??$_Ptr_move_cat@VText@?1??DrawInfo@visuals@@AAEXUtagRECT@@PAVC_BaseEntity@@1@Z@V1?1??23@AAEX011@Z@@std@@YA?AU_General_ptr_iterator_tag@0@ABQAVText@?1??DrawInfo@visuals@@AAEXUtagRECT@@PAVC_BaseEntity@@1@Z@2@Z 100427a0 f   ESP.obj
 0001:000417b0       ??$_Reallocate_grow_by@V<lambda_67d87d4aa1269033985980465fd1d824>@@$$V@?$basic_string@DU?$char_traits@D@std@@V?$allocator@D@2@@std@@QAEAAV01@IV<lambda_67d87d4aa1269033985980465fd1d824>@@@Z 100427b0 f   ESP.obj
 0001:000418d0       ??$_Reallocate_grow_by@V<lambda_ab246b20b9526e2ef7792587e4298a77>@@PBDI@?$basic_string@DU?$char_traits@D@std@@V?$allocator@D@2@@std@@QAEAAV01@IV<lambda_ab246b20b9526e2ef7792587e4298a77>@@PBDI@Z 100428d0 f   ESP.obj
 0001:00041a00       ??$_Rechecked@PAVText@?1??DrawInfo@visuals@@AAEXUtagRECT@@PAVC_BaseEntity@@1@Z@PAV1?1??23@AAEX011@Z@@std@@YAAAPAVText@?1??DrawInfo@visuals@@AAEXUtagRECT@@PAVC_BaseEntity@@1@Z@AAPAV1?1??23@AAEX011@Z@QAV1?1??23@AAEX011@Z@@Z 10042a00 f   ESP.obj
 0001:00041a10       ??$_Uninitialized_move@PAVText@?1??DrawInfo@visuals@@AAEXUtagRECT@@PAVC_BaseEntity@@1@Z@PAV1?1??23@AAEX011@Z@V?$allocator@VText@?1??DrawInfo@visuals@@AAEXUtagRECT@@PAVC_BaseEntity@@1@Z@@std@@@std@@YAPAVText@?1??DrawInfo@visuals@@AAEXUtagRECT@@PAVC_BaseEntity@@1@Z@PAV1?1??23@AAEX011@Z@22AAV?$allocator@VText@?1??DrawInfo@visuals@@AAEXUtagRECT@@PAVC_BaseEntity@@1@Z@@0@@Z 10042a10 f   ESP.obj
 0001:00041aa0       ??$_Uninitialized_move_al_unchecked@PAVText@?1??DrawInfo@visuals@@AAEXUtagRECT@@PAVC_BaseEntity@@1@Z@PAV1?1??23@AAEX011@Z@V?$allocator@VText@?1??DrawInfo@visuals@@AAEXUtagRECT@@PAVC_BaseEntity@@1@Z@@std@@@std@@YAPAVText@?1??DrawInfo@visuals@@AAEXUtagRECT@@PAVC_BaseEntity@@1@Z@PAV1?1??23@AAEX011@Z@22AAV?$allocator@VText@?1??DrawInfo@visuals@@AAEXUtagRECT@@PAVC_BaseEntity@@1@Z@@0@U_General_ptr_iterator_tag@0@U_Unused_parameter@0@@Z 10042aa0 f   ESP.obj
 0001:00041b1b       __catch$??$_Uninitialized_move_al_unchecked@PAVText@?1??DrawInfo@visuals@@AAEXUtagRECT@@PAVC_BaseEntity@@1@Z@PAV1?1??23@AAEX011@Z@V?$allocator@VText@?1??DrawInfo@visuals@@AAEXUtagRECT@@PAVC_BaseEntity@@1@Z@@std@@@std@@YAPAVText@?1??DrawInfo@visuals@@AAEXUtagRECT@@PAVC_BaseEntity@@1@Z@PAV1?1??23@AAEX011@Z@22AAV?$allocator@VText@?1??DrawInfo@visuals@@AAEXUtagRECT@@PAVC_BaseEntity@@1@Z@@0@U_General_ptr_iterator_tag@0@U_Unused_parameter@0@@Z$0 10042b1b f   ESP.obj
 0001:00041b70       ??$construct@VText@?1??DrawInfo@visuals@@AAEXUtagRECT@@PAVC_BaseEntity@@1@Z@V1?1??23@AAEX011@Z@@?$_Default_allocator_traits@V?$allocator@VText@?1??DrawInfo@visuals@@AAEXUtagRECT@@PAVC_BaseEntity@@1@Z@@std@@@std@@SAXAAV?$allocator@VText@?1??DrawInfo@visuals@@AAEXUtagRECT@@PAVC_BaseEntity@@1@Z@@1@QAVText@?1??DrawInfo@visuals@@AAEXUtagRECT@@PAVC_BaseEntity@@2@Z@$$QAV3?1??45@AAEX122@Z@@Z 10042b70 f   ESP.obj
 0001:00041bb0       ??$destroy@VText@?1??DrawInfo@visuals@@AAEXUtagRECT@@PAVC_BaseEntity@@1@Z@@?$_Default_allocator_traits@V?$allocator@VText@?1??DrawInfo@visuals@@AAEXUtagRECT@@PAVC_BaseEntity@@1@Z@@std@@@std@@SAXAAV?$allocator@VText@?1??DrawInfo@visuals@@AAEXUtagRECT@@PAVC_BaseEntity@@1@Z@@1@QAVText@?1??DrawInfo@visuals@@AAEXUtagRECT@@PAVC_BaseEntity@@2@Z@@Z 10042bb0 f   ESP.obj
 0001:00041bc0       ??$emplace_back@VText@?1??DrawInfo@visuals@@AAEXUtagRECT@@PAVC_BaseEntity@@1@Z@@?$vector@VText@?1??DrawInfo@visuals@@AAEXUtagRECT@@PAVC_BaseEntity@@1@Z@V?$allocator@VText@?1??DrawInfo@visuals@@AAEXUtagRECT@@PAVC_BaseEntity@@1@Z@@std@@@std@@QAEX$$QAVText@?1??DrawInfo@visuals@@AAEXUtagRECT@@PAVC_BaseEntity@@1@Z@@Z 10042bc0 f   ESP.obj
 0001:00041cc7       __catch$??$emplace_back@VText@?1??DrawInfo@visuals@@AAEXUtagRECT@@PAVC_BaseEntity@@1@Z@@?$vector@VText@?1??DrawInfo@visuals@@AAEXUtagRECT@@PAVC_BaseEntity@@1@Z@V?$allocator@VText@?1??DrawInfo@visuals@@AAEXUtagRECT@@PAVC_BaseEntity@@1@Z@@std@@@std@@QAEX$$QAVText@?1??DrawInfo@visuals@@AAEXUtagRECT@@PAVC_BaseEntity@@1@Z@@Z$0 10042cc7 f   ESP.obj
 0001:00041db0       ??0?$_Vector_alloc@U?$_Vec_base_types@VText@?1??DrawInfo@visuals@@AAEXUtagRECT@@PAVC_BaseEntity@@1@Z@V?$allocator@VText@?1??DrawInfo@visuals@@AAEXUtagRECT@@PAVC_BaseEntity@@1@Z@@std@@@std@@@std@@QAE@XZ 10042db0 f   ESP.obj
 0001:00041ef0       ??0?$vector@VText@?1??DrawInfo@visuals@@AAEXUtagRECT@@PAVC_BaseEntity@@1@Z@V?$allocator@VText@?1??DrawInfo@visuals@@AAEXUtagRECT@@PAVC_BaseEntity@@1@Z@@std@@@std@@QAE@XZ 10042ef0 f   ESP.obj
 0001:00041f60       ??0Text@?1??DrawInfo@visuals@@AAEXUtagRECT@@PAVC_BaseEntity@@1@Z@QAE@$$QAV0?1??12@AAEX011@Z@@Z 10042f60 f   ESP.obj
 0001:00041fa0       ??0Text@?1??DrawInfo@visuals@@AAEXUtagRECT@@PAVC_BaseEntity@@1@Z@QAE@ABV0?1??12@AAEX011@Z@@Z 10042fa0 f   ESP.obj
 0001:00041fe0       ??0Text@?1??DrawInfo@visuals@@AAEXUtagRECT@@PAVC_BaseEntity@@1@Z@QAE@V?$basic_string@DU?$char_traits@D@std@@V?$allocator@D@2@@std@@HHVColor@@@Z 10042fe0 f   ESP.obj
 0001:000420d0       ??1?$vector@VText@?1??DrawInfo@visuals@@AAEXUtagRECT@@PAVC_BaseEntity@@1@Z@V?$allocator@VText@?1??DrawInfo@visuals@@AAEXUtagRECT@@PAVC_BaseEntity@@1@Z@@std@@@std@@QAE@XZ 100430d0 f   ESP.obj
 0001:00042110       ??1Text@?1??DrawInfo@visuals@@AAEXUtagRECT@@PAVC_BaseEntity@@1@Z@QAE@XZ 10043110 f   ESP.obj
 0001:00042150       ??R<lambda_67d87d4aa1269033985980465fd1d824>@@QBEXQADQBDI@Z 10043150 f   ESP.obj
 0001:00042180       ??R<lambda_ab246b20b9526e2ef7792587e4298a77>@@QBEXQADQBDI1I@Z 10043180 f   ESP.obj
 0001:000428ac       $LN48                      100438ac     ESP.obj
 0001:00042954       $LN47                      10043954     ESP.obj
 0001:00042e90       ?_Calculate_growth@?$vector@VText@?1??DrawInfo@visuals@@AAEXUtagRECT@@PAVC_BaseEntity@@1@Z@V?$allocator@VText@?1??DrawInfo@visuals@@AAEXUtagRECT@@PAVC_BaseEntity@@1@Z@@std@@@std@@ABEII@Z 10043e90 f   ESP.obj
 0001:00042ee0       ?_Change_array@?$vector@VText@?1??DrawInfo@visuals@@AAEXUtagRECT@@PAVC_BaseEntity@@1@Z@V?$allocator@VText@?1??DrawInfo@visuals@@AAEXUtagRECT@@PAVC_BaseEntity@@1@Z@@std@@@std@@AAEXQAVText@?1??DrawInfo@visuals@@AAEXUtagRECT@@PAVC_BaseEntity@@1@Z@II@Z 10043ee0 f   ESP.obj
 0001:000430b0       ?_Destroy@?$vector@VText@?1??DrawInfo@visuals@@AAEXUtagRECT@@PAVC_BaseEntity@@1@Z@V?$allocator@VText@?1??DrawInfo@visuals@@AAEXUtagRECT@@PAVC_BaseEntity@@1@Z@@std@@@std@@AAEXPAVText@?1??DrawInfo@visuals@@AAEXUtagRECT@@PAVC_BaseEntity@@1@Z@2@Z 100440b0 f   ESP.obj
 0001:000430e0       ?_Getal@?$_Vector_alloc@U?$_Vec_base_types@VText@?1??DrawInfo@visuals@@AAEXUtagRECT@@PAVC_BaseEntity@@1@Z@V?$allocator@VText@?1??DrawInfo@visuals@@AAEXUtagRECT@@PAVC_BaseEntity@@1@Z@@std@@@std@@@std@@QAEAAV?$allocator@VText@?1??DrawInfo@visuals@@AAEXUtagRECT@@PAVC_BaseEntity@@1@Z@@2@XZ 100440e0 f   ESP.obj
 0001:000430e0       ?_Getal@?$_Vector_alloc@U?$_Vec_base_types@VText@?1??DrawInfo@visuals@@AAEXUtagRECT@@PAVC_BaseEntity@@1@Z@V?$allocator@VText@?1??DrawInfo@visuals@@AAEXUtagRECT@@PAVC_BaseEntity@@1@Z@@std@@@std@@@std@@QBEABV?$allocator@VText@?1??DrawInfo@visuals@@AAEXUtagRECT@@PAVC_BaseEntity@@1@Z@@2@XZ 100440e0 f   ESP.obj
 0001:000430e0       ?_Get_data@?$_Vector_alloc@U?$_Vec_base_types@VText@?1??DrawInfo@visuals@@AAEXUtagRECT@@PAVC_BaseEntity@@1@Z@V?$allocator@VText@?1??DrawInfo@visuals@@AAEXUtagRECT@@PAVC_BaseEntity@@1@Z@@std@@@std@@@std@@QAEAAV?$_Vector_val@U?$_Simple_types@VText@?1??DrawInfo@visuals@@AAEXUtagRECT@@PAVC_BaseEntity@@1@Z@@std@@@2@XZ 100440e0 f   ESP.obj
 0001:000430e0       ?_Get_data@?$_Vector_alloc@U?$_Vec_base_types@VText@?1??DrawInfo@visuals@@AAEXUtagRECT@@PAVC_BaseEntity@@1@Z@V?$allocator@VText@?1??DrawInfo@visuals@@AAEXUtagRECT@@PAVC_BaseEntity@@1@Z@@std@@@std@@@std@@QBEABV?$_Vector_val@U?$_Simple_types@VText@?1??DrawInfo@visuals@@AAEXUtagRECT@@PAVC_BaseEntity@@1@Z@@std@@@2@XZ 100440e0 f   ESP.obj
 0001:00043100       ?_Has_unused_capacity@?$vector@VText@?1??DrawInfo@visuals@@AAEXUtagRECT@@PAVC_BaseEntity@@1@Z@V?$allocator@VText@?1??DrawInfo@visuals@@AAEXUtagRECT@@PAVC_BaseEntity@@1@Z@@std@@@std@@ABE_NXZ 10044100 f   ESP.obj
 0001:00043140       ?_Myend@?$_Vector_alloc@U?$_Vec_base_types@VText@?1??DrawInfo@visuals@@AAEXUtagRECT@@PAVC_BaseEntity@@1@Z@V?$allocator@VText@?1??DrawInfo@visuals@@AAEXUtagRECT@@PAVC_BaseEntity@@1@Z@@std@@@std@@@std@@QBEABQAVText@?1??DrawInfo@visuals@@AAEXUtagRECT@@PAVC_BaseEntity@@1@Z@XZ 10044140 f   ESP.obj
 0001:00043140       ?_Myend@?$_Vector_alloc@U?$_Vec_base_types@VText@?1??DrawInfo@visuals@@AAEXUtagRECT@@PAVC_BaseEntity@@1@Z@V?$allocator@VText@?1??DrawInfo@visuals@@AAEXUtagRECT@@PAVC_BaseEntity@@1@Z@@std@@@std@@@std@@QAEAAPAVText@?1??DrawInfo@visuals@@AAEXUtagRECT@@PAVC_BaseEntity@@1@Z@XZ 10044140 f   ESP.obj
 0001:00043160       ?_Myfirst@?$_Vector_alloc@U?$_Vec_base_types@VText@?1??DrawInfo@visuals@@AAEXUtagRECT@@PAVC_BaseEntity@@1@Z@V?$allocator@VText@?1??DrawInfo@visuals@@AAEXUtagRECT@@PAVC_BaseEntity@@1@Z@@std@@@std@@@std@@QBEABQAVText@?1??DrawInfo@visuals@@AAEXUtagRECT@@PAVC_BaseEntity@@1@Z@XZ 10044160 f   ESP.obj
 0001:00043160       ?_Myfirst@?$_Vector_alloc@U?$_Vec_base_types@VText@?1??DrawInfo@visuals@@AAEXUtagRECT@@PAVC_BaseEntity@@1@Z@V?$allocator@VText@?1??DrawInfo@visuals@@AAEXUtagRECT@@PAVC_BaseEntity@@1@Z@@std@@@std@@@std@@QAEAAPAVText@?1??DrawInfo@visuals@@AAEXUtagRECT@@PAVC_BaseEntity@@1@Z@XZ 10044160 f   ESP.obj
 0001:00043180       ?_Mylast@?$_Vector_alloc@U?$_Vec_base_types@VText@?1??DrawInfo@visuals@@AAEXUtagRECT@@PAVC_BaseEntity@@1@Z@V?$allocator@VText@?1??DrawInfo@visuals@@AAEXUtagRECT@@PAVC_BaseEntity@@1@Z@@std@@@std@@@std@@QBEABQAVText@?1??DrawInfo@visuals@@AAEXUtagRECT@@PAVC_BaseEntity@@1@Z@XZ 10044180 f   ESP.obj
 0001:00043180       ?_Mylast@?$_Vector_alloc@U?$_Vec_base_types@VText@?1??DrawInfo@visuals@@AAEXUtagRECT@@PAVC_BaseEntity@@1@Z@V?$allocator@VText@?1??DrawInfo@visuals@@AAEXUtagRECT@@PAVC_BaseEntity@@1@Z@@std@@@std@@@std@@QAEAAPAVText@?1??DrawInfo@visuals@@AAEXUtagRECT@@PAVC_BaseEntity@@1@Z@XZ 10044180 f   ESP.obj
 0001:000431a0       ?_Orphan_all@?$_Vector_alloc@U?$_Vec_base_types@VText@?1??DrawInfo@visuals@@AAEXUtagRECT@@PAVC_BaseEntity@@1@Z@V?$allocator@VText@?1??DrawInfo@visuals@@AAEXUtagRECT@@PAVC_BaseEntity@@1@Z@@std@@@std@@@std@@QAEXXZ 100441a0 f   ESP.obj
 0001:000431c0       ?_Orphan_range@?$vector@VText@?1??DrawInfo@visuals@@AAEXUtagRECT@@PAVC_BaseEntity@@1@Z@V?$allocator@VText@?1??DrawInfo@visuals@@AAEXUtagRECT@@PAVC_BaseEntity@@1@Z@@std@@@std@@ABEXPAVText@?1??DrawInfo@visuals@@AAEXUtagRECT@@PAVC_BaseEntity@@1@Z@2@Z 100441c0 f   ESP.obj
 0001:00043260       ?_Tidy@?$vector@VText@?1??DrawInfo@visuals@@AAEXUtagRECT@@PAVC_BaseEntity@@1@Z@V?$allocator@VText@?1??DrawInfo@visuals@@AAEXUtagRECT@@PAVC_BaseEntity@@1@Z@@std@@@std@@AAEXXZ 10044260 f   ESP.obj
 0001:000433a0       ?_Umove_if_noexcept1@?$vector@VText@?1??DrawInfo@visuals@@AAEXUtagRECT@@PAVC_BaseEntity@@1@Z@V?$allocator@VText@?1??DrawInfo@visuals@@AAEXUtagRECT@@PAVC_BaseEntity@@1@Z@@std@@@std@@AAEXPAVText@?1??DrawInfo@visuals@@AAEXUtagRECT@@PAVC_BaseEntity@@1@Z@22U?$integral_constant@_N$00@2@@Z 100443a0 f   ESP.obj
 0001:000433d0       ?_Umove_if_noexcept@?$vector@VText@?1??DrawInfo@visuals@@AAEXUtagRECT@@PAVC_BaseEntity@@1@Z@V?$allocator@VText@?1??DrawInfo@visuals@@AAEXUtagRECT@@PAVC_BaseEntity@@1@Z@@std@@@std@@AAEXPAVText@?1??DrawInfo@visuals@@AAEXUtagRECT@@PAVC_BaseEntity@@1@Z@22@Z 100443d0 f   ESP.obj
 0001:00043400       ?_Unchecked_begin@?$vector@VText@?1??DrawInfo@visuals@@AAEXUtagRECT@@PAVC_BaseEntity@@1@Z@V?$allocator@VText@?1??DrawInfo@visuals@@AAEXUtagRECT@@PAVC_BaseEntity@@1@Z@@std@@@std@@QAEPAVText@?1??DrawInfo@visuals@@AAEXUtagRECT@@PAVC_BaseEntity@@1@Z@XZ 10044400 f   ESP.obj
 0001:00043420       ?_Unchecked_end@?$vector@VText@?1??DrawInfo@visuals@@AAEXUtagRECT@@PAVC_BaseEntity@@1@Z@V?$allocator@VText@?1??DrawInfo@visuals@@AAEXUtagRECT@@PAVC_BaseEntity@@1@Z@@std@@@std@@QAEPAVText@?1??DrawInfo@visuals@@AAEXUtagRECT@@PAVC_BaseEntity@@1@Z@XZ 10044420 f   ESP.obj
 0001:00043440       ?_Xlength@?$vector@VText@?1??DrawInfo@visuals@@AAEXUtagRECT@@PAVC_BaseEntity@@1@Z@V?$allocator@VText@?1??DrawInfo@visuals@@AAEXUtagRECT@@PAVC_BaseEntity@@1@Z@@std@@@std@@CAXXZ 10044440 f   ESP.obj
 0001:00043450       ?allocate@?$allocator@VText@?1??DrawInfo@visuals@@AAEXUtagRECT@@PAVC_BaseEntity@@1@Z@@std@@QAEPAVText@?1??DrawInfo@visuals@@AAEXUtagRECT@@PAVC_BaseEntity@@1@Z@I@Z 10044450 f   ESP.obj
 0001:00043600       ?capacity@?$vector@VText@?1??DrawInfo@visuals@@AAEXUtagRECT@@PAVC_BaseEntity@@1@Z@V?$allocator@VText@?1??DrawInfo@visuals@@AAEXUtagRECT@@PAVC_BaseEntity@@1@Z@@std@@@std@@QBEIXZ 10044600 f   ESP.obj
 0001:00043650       ?deallocate@?$allocator@VText@?1??DrawInfo@visuals@@AAEXUtagRECT@@PAVC_BaseEntity@@1@Z@@std@@QAEXQAVText@?1??DrawInfo@visuals@@AAEXUtagRECT@@PAVC_BaseEntity@@1@Z@I@Z 10044650 f   ESP.obj
 0001:000436d0       ?max_size@?$_Default_allocator_traits@V?$allocator@VText@?1??DrawInfo@visuals@@AAEXUtagRECT@@PAVC_BaseEntity@@1@Z@@std@@@std@@SAIABV?$allocator@VText@?1??DrawInfo@visuals@@AAEXUtagRECT@@PAVC_BaseEntity@@1@Z@@2@@Z 100446d0 f   ESP.obj
 0001:000436e0       ?max_size@?$vector@VText@?1??DrawInfo@visuals@@AAEXUtagRECT@@PAVC_BaseEntity@@1@Z@V?$allocator@VText@?1??DrawInfo@visuals@@AAEXUtagRECT@@PAVC_BaseEntity@@1@Z@@std@@@std@@QBEIXZ 100446e0 f   ESP.obj
 0001:00043720       ?push_back@?$vector@VText@?1??DrawInfo@visuals@@AAEXUtagRECT@@PAVC_BaseEntity@@1@Z@V?$allocator@VText@?1??DrawInfo@visuals@@AAEXUtagRECT@@PAVC_BaseEntity@@1@Z@@std@@@std@@QAEX$$QAVText@?1??DrawInfo@visuals@@AAEXUtagRECT@@PAVC_BaseEntity@@1@Z@@Z 10044720 f   ESP.obj
 0001:00043800       ?size@?$vector@VText@?1??DrawInfo@visuals@@AAEXUtagRECT@@PAVC_BaseEntity@@1@Z@V?$allocator@VText@?1??DrawInfo@visuals@@AAEXUtagRECT@@PAVC_BaseEntity@@1@Z@@std@@@std@@QBEIXZ 10044800 f   ESP.obj
 0001:00043920       ?StringLengthWorkerA@@YGJPBDIPAI@Z 10044920 f   creatwth.obj
 0001:00043990       ?StringLengthWorkerW@@YGJPB_WIPAI@Z 10044990 f   creatwth.obj
 0001:00043a00       ?StringValidateDestA@@YGJPBDII@Z 10044a00 f   creatwth.obj
 0001:00043a30       ?StringValidateDestAndLengthA@@YGJPBDIPAII@Z 10044a30 f   creatwth.obj
 0001:00043a80       ?StringValidateDestW@@YGJPB_WII@Z 10044a80 f   creatwth.obj
 0001:00043ab0       ?StringValidateDestAndLengthW@@YGJPB_WIPAII@Z 10044ab0 f   creatwth.obj
 0001:00043b00       ?StringCopyWorkerA@@YGJPADIPAIPBDI@Z 10044b00 f   creatwth.obj
 0001:00043ba0       ?StringCopyWorkerW@@YGJPA_WIPAIPB_WI@Z 10044ba0 f   creatwth.obj
 0001:00043c50       ?StringVPrintfWorkerA@@YGJPADIPAIPBD0@Z 10044c50 f   creatwth.obj
 0001:00043cf0       ?StringVPrintfWorkerW@@YGJPA_WIPAIPB_WPAD@Z 10044cf0 f   creatwth.obj
 0001:00044f00       ?LoadNtHeaderFromProcess@@YGHPAXPAUHINSTANCE__@@PAU_IMAGE_NT_HEADERS@@@Z 10045f00 f   creatwth.obj
 0001:00044fe0       ?EnumerateModulesInProcess@@YGPAUHINSTANCE__@@PAXPAU1@PAU_IMAGE_NT_HEADERS@@@Z 10045fe0 f   creatwth.obj
 0001:00045090       ?RecordExeRestore@@YAHPAXPAUHINSTANCE__@@AAU_DETOUR_EXE_RESTORE@@@Z 10046090 f   creatwth.obj
 0001:00045280       ?AllocExeHelper@@YGHPAPAU_DETOUR_EXE_HELPER@@KKPAPBD@Z 10046280 f   creatwth.obj
 0001:00045500       ?FreeExeHelper@@YGXPAPAU_DETOUR_EXE_HELPER@@@Z 10046500 f   creatwth.obj
 0001:0004790c       $LN39                      1004890c     sqlite3.obj
 0001:00047fac       $LN58                      10048fac     sqlite3.obj
 0001:00047fc8       $LN56                      10048fc8     sqlite3.obj
 0001:00048020       $LN59                      10049020     sqlite3.obj
 0001:00048030       $LN57                      10049030     sqlite3.obj
 0001:00049630       $LN12                      1004a630     sqlite3.obj
 0001:0004ca7c       $LN32                      1004da7c     sqlite3.obj
 0001:0004d06c       $LN45                      1004e06c     sqlite3.obj
 0001:0004e100       _sqlite3HashInit           1004f100 f   sqlite3.obj
 0001:0004e130       _sqlite3HashInsert         1004f130 f   sqlite3.obj
 0001:0004e270       _sqlite3HashFind           1004f270 f   sqlite3.obj
 0001:0004e290       _sqlite3HashClear          1004f290 f   sqlite3.obj
 0001:0004e300       _sqlite3BtreeOpen          1004f300 f   sqlite3.obj
 0001:0004eae0       _sqlite3BtreeClose         1004fae0 f   sqlite3.obj
 0001:0004ec10       _sqlite3BtreeSetCacheSize  1004fc10 f   sqlite3.obj
 0001:0004ec50       _sqlite3BtreeSetSpillSize  1004fc50 f   sqlite3.obj
 0001:0004eca0       _sqlite3BtreeSetMmapLimit  1004fca0 f   sqlite3.obj
 0001:0004ecf0       _sqlite3BtreeSetPagerFlags 1004fcf0 f   sqlite3.obj
 0001:0004ed30       _sqlite3BtreeSetPageSize   1004fd30 f   sqlite3.obj
 0001:0004ee20       _sqlite3BtreeGetPageSize   1004fe20 f   sqlite3.obj
 0001:0004ee30       _sqlite3BtreeMaxPageCount  1004fe30 f   sqlite3.obj
 0001:0004ee70       _sqlite3BtreeLastPage      1004fe70 f   sqlite3.obj
 0001:0004ee90       _sqlite3BtreeSecureDelete  1004fe90 f   sqlite3.obj
 0001:0004ef10       _sqlite3BtreeGetOptimalReserve 1004ff10 f   sqlite3.obj
 0001:0004ef50       _sqlite3BtreeGetReserveNoMutex 1004ff50 f   sqlite3.obj
 0001:0004ef70       _sqlite3BtreeSetAutoVacuum 1004ff70 f   sqlite3.obj
 0001:0004f030       _sqlite3BtreeGetAutoVacuum 10050030 f   sqlite3.obj
 0001:0004f0d0       _sqlite3BtreeBeginTrans    100500d0 f   sqlite3.obj
 0001:0004f430       _sqlite3BtreeCommitPhaseOne 10050430 f   sqlite3.obj
 0001:0004f4e0       _sqlite3BtreeCommitPhaseTwo 100504e0 f   sqlite3.obj
 0001:0004f590       _sqlite3BtreeCommit        10050590 f   sqlite3.obj
 0001:0004f5e0       _sqlite3BtreeRollback      100505e0 f   sqlite3.obj
 0001:0004f720       _sqlite3BtreeBeginStmt     10050720 f   sqlite3.obj
 0001:0004f770       _sqlite3BtreeCreateTable   10050770 f   sqlite3.obj
 0001:0004f7b0       _sqlite3BtreeIsInTrans     100507b0 f   sqlite3.obj
 0001:0004f7e0       _sqlite3BtreeIsInReadTrans 100507e0 f   sqlite3.obj
 0001:0004f810       _sqlite3BtreeIsInBackup    10050810 f   sqlite3.obj
 0001:0004f840       _sqlite3BtreeSchema        10050840 f   sqlite3.obj
 0001:0004f8a0       _sqlite3BtreeSchemaLocked  100508a0 f   sqlite3.obj
 0001:0004f8e0       _sqlite3BtreeLockTable     100508e0 f   sqlite3.obj
 0001:0004f960       _sqlite3BtreeSavepoint     10050960 f   sqlite3.obj
 0001:0004fa40       _sqlite3BtreeGetFilename   10050a40 f   sqlite3.obj
 0001:0004fa60       _sqlite3BtreeGetJournalname 10050a60 f   sqlite3.obj
 0001:0004fa80       _sqlite3BtreeCopyFile      10050a80 f   sqlite3.obj
 0001:0004fbc0       _sqlite3BtreeIncrVacuum    10050bc0 f   sqlite3.obj
 0001:0004fcf0       _sqlite3BtreeDropTable     10050cf0 f   sqlite3.obj
 0001:0004fd30       _sqlite3BtreeClearTable    10050d30 f   sqlite3.obj
 0001:0004fdb0       _sqlite3BtreeClearTableOfCursor 10050db0 f   sqlite3.obj
 0001:0004fdd0       _sqlite3BtreeTripAllCursors 10050dd0 f   sqlite3.obj
 0001:0004feb0       _sqlite3BtreeGetMeta       10050eb0 f   sqlite3.obj
 0001:0004ff20       _sqlite3BtreeUpdateMeta    10050f20 f   sqlite3.obj
 0001:0004ffa0       _sqlite3BtreeNewDb         10050fa0 f   sqlite3.obj
 0001:0004fff0       _sqlite3BtreeCursor        10050ff0 f   sqlite3.obj
 0001:00050050       _sqlite3BtreeFakeValidCursor 10051050 f   sqlite3.obj
 0001:00050060       _sqlite3BtreeCursorSize    10051060 f   sqlite3.obj
 0001:00050070       _sqlite3BtreeCursorZero    10051070 f   sqlite3.obj
 0001:00050090       _sqlite3BtreeCursorHintFlags 10051090 f   sqlite3.obj
 0001:000500a0       _sqlite3BtreeCloseCursor   100510a0 f   sqlite3.obj
 0001:00050160       _sqlite3BtreeMovetoUnpacked 10051160 f   sqlite3.obj
 0001:00050760       _sqlite3BtreeCursorHasMoved 10051760 f   sqlite3.obj
 0001:00050790       _sqlite3BtreeCursorRestore 10051790 f   sqlite3.obj
 0001:00050800       _sqlite3BtreeDelete        10051800 f   sqlite3.obj
 0001:00050c10       _sqlite3BtreeInsert        10051c10 f   sqlite3.obj
 0001:000510a0       _sqlite3BtreeFirst         100520a0 f   sqlite3.obj
 0001:000510f0       _sqlite3BtreeLast          100520f0 f   sqlite3.obj
 0001:00051190       _sqlite3BtreeNext          10052190 f   sqlite3.obj
 0001:00051240       _sqlite3BtreeEof           10052240 f   sqlite3.obj
 0001:00051270       _sqlite3BtreePrevious      10052270 f   sqlite3.obj
 0001:000512e0       _sqlite3BtreeIntegerKey    100522e0 f   sqlite3.obj
 0001:00051300       _sqlite3BtreePayload       10052300 f   sqlite3.obj
 0001:00051320       _sqlite3BtreePayloadFetch  10052320 f   sqlite3.obj
 0001:00051340       _sqlite3BtreePayloadSize   10052340 f   sqlite3.obj
 0001:00051360       _sqlite3BtreeIntegrityCheck 10052360 f   sqlite3.obj
 0001:000516b0       _sqlite3BtreePager         100526b0 f   sqlite3.obj
 0001:000516c0       _sqlite3BtreeRowCountEst   100526c0 f   sqlite3.obj
 0001:00051750       _sqlite3BtreePayloadChecked 10052750 f   sqlite3.obj
 0001:000517a0       _sqlite3BtreePutData       100527a0 f   sqlite3.obj
 0001:00051840       _sqlite3BtreeIncrblobCursor 10052840 f   sqlite3.obj
 0001:00051860       _sqlite3BtreeClearCursor   10052860 f   sqlite3.obj
 0001:00051890       _sqlite3BtreeSetVersion    10052890 f   sqlite3.obj
 0001:00051990       _sqlite3BtreeCursorHasHint 10052990 f   sqlite3.obj
 0001:000519c0       _sqlite3BtreeIsReadonly    100529c0 f   sqlite3.obj
 0001:000519f0       _sqlite3HeaderSizeBtree    100529f0 f   sqlite3.obj
 0001:00051a00       _sqlite3BtreeCursorIsValidNN 10052a00 f   sqlite3.obj
 0001:00051a30       _sqlite3BtreeCount         10052a30 f   sqlite3.obj
 0001:00051bb0       _sqlite3BtreeCheckpoint    10052bb0 f   sqlite3.obj
 0001:00051c30       _sqlite3BtreeEnter         10052c30 f   sqlite3.obj
 0001:00051c70       _sqlite3BtreeEnterAll      10052c70 f   sqlite3.obj
 0001:00051c90       _sqlite3BtreeSharable      10052c90 f   sqlite3.obj
 0001:00051ca0       _sqlite3BtreeEnterCursor   10052ca0 f   sqlite3.obj
 0001:00051cc0       _sqlite3BtreeConnectionCount 10052cc0 f   sqlite3.obj
 0001:00051cd0       _sqlite3BtreeLeave         10052cd0 f   sqlite3.obj
 0001:00051d10       _sqlite3BtreeLeaveCursor   10052d10 f   sqlite3.obj
 0001:00051d30       _sqlite3BtreeLeaveAll      10052d30 f   sqlite3.obj
 0001:00051d50       _sqlite3VdbeCreate         10052d50 f   sqlite3.obj
 0001:00051e10       _sqlite3VdbeAddOp0         10052e10 f   sqlite3.obj
 0001:00051e30       _sqlite3VdbeAddOp1         10052e30 f   sqlite3.obj
 0001:00051e50       _sqlite3VdbeAddOp2         10052e50 f   sqlite3.obj
 0001:00051e70       _sqlite3VdbeGoto           10052e70 f   sqlite3.obj
 0001:00051e90       _sqlite3VdbeLoadString     10052e90 f   sqlite3.obj
 0001:00051ec0       _sqlite3VdbeMultiLoad      10052ec0 f   sqlite3.obj
 0001:00051fb0       _sqlite3VdbeAddOp3         10052fb0 f   sqlite3.obj
 0001:00052060       _sqlite3VdbeAddOp4         10053060 f   sqlite3.obj
 0001:000520b0       _sqlite3VdbeAddOp4Dup8     100530b0 f   sqlite3.obj
 0001:00052110       _sqlite3VdbeAddOp4Int      10053110 f   sqlite3.obj
 0001:00052170       _sqlite3VdbeEndCoroutine   10053170 f   sqlite3.obj
 0001:000521a0       _sqlite3VdbeAddOpList      100531a0 f   sqlite3.obj
 0001:000522c0       _sqlite3VdbeAddParseSchemaOp 100532c0 f   sqlite3.obj
 0001:00052320       _sqlite3VdbeChangeOpcode   10053320 f   sqlite3.obj
 0001:00052340       _sqlite3VdbeChangeP1       10053340 f   sqlite3.obj
 0001:00052360       _sqlite3VdbeChangeP2       10053360 f   sqlite3.obj
 0001:00052380       _sqlite3VdbeChangeP3       10053380 f   sqlite3.obj
 0001:000523a0       _sqlite3VdbeChangeP5       100533a0 f   sqlite3.obj
 0001:000523d0       _sqlite3VdbeJumpHere       100533d0 f   sqlite3.obj
 0001:000523f0       _sqlite3VdbeChangeToNoop   100533f0 f   sqlite3.obj
 0001:00052450       _sqlite3VdbeDeletePriorOpcode 10053450 f   sqlite3.obj
 0001:000524b0       _sqlite3VdbeChangeP4       100534b0 f   sqlite3.obj
 0001:00052580       _sqlite3VdbeAppendP4       10053580 f   sqlite3.obj
 0001:000525e0       _sqlite3VdbeSetP4KeyInfo   100535e0 f   sqlite3.obj
 0001:00052620       _sqlite3VdbeUsesBtree      10053620 f   sqlite3.obj
 0001:00052690       _sqlite3VdbeGetOp          10053690 f   sqlite3.obj
